
DIC_23.elf:     file format elf32-avr

Sections:
Idx Name          Size      VMA       LMA       File off  Algn
  0 .data         000001a8  00800100  00003b02  00003b96  2**0
                  CONTENTS, ALLOC, LOAD, DATA
  1 .text         00003b02  00000000  00000000  00000094  2**1
                  CONTENTS, ALLOC, LOAD, READONLY, CODE
  2 .bss          00000107  008002a8  008002a8  00003d3e  2**0
                  ALLOC
  3 .comment      00000030  00000000  00000000  00003d3e  2**0
                  CONTENTS, READONLY
  4 .note.gnu.avr.deviceinfo 00000040  00000000  00000000  00003d70  2**2
                  CONTENTS, READONLY
  5 .debug_aranges 00000100  00000000  00000000  00003db0  2**0
                  CONTENTS, READONLY, DEBUGGING
  6 .debug_info   00002272  00000000  00000000  00003eb0  2**0
                  CONTENTS, READONLY, DEBUGGING
  7 .debug_abbrev 00001170  00000000  00000000  00006122  2**0
                  CONTENTS, READONLY, DEBUGGING
  8 .debug_line   000019f7  00000000  00000000  00007292  2**0
                  CONTENTS, READONLY, DEBUGGING
  9 .debug_frame  000007d8  00000000  00000000  00008c8c  2**2
                  CONTENTS, READONLY, DEBUGGING
 10 .debug_str    00000e8d  00000000  00000000  00009464  2**0
                  CONTENTS, READONLY, DEBUGGING
 11 .debug_loc    00000fa6  00000000  00000000  0000a2f1  2**0
                  CONTENTS, READONLY, DEBUGGING

Disassembly of section .text:

00000000 <__vectors>:
       0:	97 c0       	rjmp	.+302    	; 0x130 <__ctors_end>
       2:	00 00       	nop
       4:	b4 c0       	rjmp	.+360    	; 0x16e <__bad_interrupt>
       6:	00 00       	nop
       8:	b2 c0       	rjmp	.+356    	; 0x16e <__bad_interrupt>
       a:	00 00       	nop
       c:	b0 c0       	rjmp	.+352    	; 0x16e <__bad_interrupt>
       e:	00 00       	nop
      10:	ae c0       	rjmp	.+348    	; 0x16e <__bad_interrupt>
      12:	00 00       	nop
      14:	ac c0       	rjmp	.+344    	; 0x16e <__bad_interrupt>
      16:	00 00       	nop
      18:	aa c0       	rjmp	.+340    	; 0x16e <__bad_interrupt>
      1a:	00 00       	nop
      1c:	a8 c0       	rjmp	.+336    	; 0x16e <__bad_interrupt>
      1e:	00 00       	nop
      20:	a6 c0       	rjmp	.+332    	; 0x16e <__bad_interrupt>
      22:	00 00       	nop
      24:	a4 c0       	rjmp	.+328    	; 0x16e <__bad_interrupt>
      26:	00 00       	nop
      28:	a2 c0       	rjmp	.+324    	; 0x16e <__bad_interrupt>
      2a:	00 00       	nop
      2c:	a0 c0       	rjmp	.+320    	; 0x16e <__bad_interrupt>
      2e:	00 00       	nop
      30:	9e c0       	rjmp	.+316    	; 0x16e <__bad_interrupt>
      32:	00 00       	nop
      34:	9c c0       	rjmp	.+312    	; 0x16e <__bad_interrupt>
      36:	00 00       	nop
      38:	9a c0       	rjmp	.+308    	; 0x16e <__bad_interrupt>
      3a:	00 00       	nop
      3c:	98 c0       	rjmp	.+304    	; 0x16e <__bad_interrupt>
      3e:	00 00       	nop
      40:	0c 94 86 1b 	jmp	0x370c	; 0x370c <__vector_16>
      44:	94 c0       	rjmp	.+296    	; 0x16e <__bad_interrupt>
      46:	00 00       	nop
      48:	92 c0       	rjmp	.+292    	; 0x16e <__bad_interrupt>
      4a:	00 00       	nop
      4c:	90 c0       	rjmp	.+288    	; 0x16e <__bad_interrupt>
      4e:	00 00       	nop
      50:	0c 94 af 16 	jmp	0x2d5e	; 0x2d5e <__vector_20>
      54:	8c c0       	rjmp	.+280    	; 0x16e <__bad_interrupt>
      56:	00 00       	nop
      58:	8a c0       	rjmp	.+276    	; 0x16e <__bad_interrupt>
      5a:	00 00       	nop
      5c:	88 c0       	rjmp	.+272    	; 0x16e <__bad_interrupt>
      5e:	00 00       	nop
      60:	86 c0       	rjmp	.+268    	; 0x16e <__bad_interrupt>
      62:	00 00       	nop
      64:	84 c0       	rjmp	.+264    	; 0x16e <__bad_interrupt>
      66:	00 00       	nop
      68:	82 c0       	rjmp	.+260    	; 0x16e <__bad_interrupt>
      6a:	00 00       	nop
      6c:	80 c0       	rjmp	.+256    	; 0x16e <__bad_interrupt>
      6e:	00 00       	nop
      70:	7e c0       	rjmp	.+252    	; 0x16e <__bad_interrupt>
      72:	00 00       	nop
      74:	7c c0       	rjmp	.+248    	; 0x16e <__bad_interrupt>
      76:	00 00       	nop
      78:	7a c0       	rjmp	.+244    	; 0x16e <__bad_interrupt>
      7a:	00 00       	nop
      7c:	78 c0       	rjmp	.+240    	; 0x16e <__bad_interrupt>
      7e:	00 00       	nop
      80:	76 c0       	rjmp	.+236    	; 0x16e <__bad_interrupt>
      82:	00 00       	nop
      84:	74 c0       	rjmp	.+232    	; 0x16e <__bad_interrupt>
      86:	00 00       	nop
      88:	72 c0       	rjmp	.+228    	; 0x16e <__bad_interrupt>
      8a:	00 00       	nop
      8c:	70 c0       	rjmp	.+224    	; 0x16e <__bad_interrupt>
      8e:	00 00       	nop
      90:	6e c0       	rjmp	.+220    	; 0x16e <__bad_interrupt>
      92:	00 00       	nop
      94:	cd 11       	cpse	r28, r13
      96:	ee 11       	cpse	r30, r14
      98:	0f 12       	cpse	r0, r31
      9a:	30 12       	cpse	r3, r16
      9c:	51 12       	cpse	r5, r17
      9e:	72 12       	cpse	r7, r18
      a0:	93 12       	cpse	r9, r19
      a2:	b4 12       	cpse	r11, r20
      a4:	d5 12       	cpse	r13, r21
      a6:	f6 12       	cpse	r15, r22
      a8:	17 13       	cpse	r17, r23
      aa:	38 13       	cpse	r19, r24
      ac:	59 13       	cpse	r21, r25
      ae:	7a 13       	cpse	r23, r26
      b0:	e6 13       	cpse	r30, r22
      b2:	ef 13       	cpse	r30, r31
      b4:	f8 13       	cpse	r31, r24
      b6:	01 14       	cp	r0, r1
      b8:	0a 14       	cp	r0, r10
      ba:	13 14       	cp	r1, r3
      bc:	1c 14       	cp	r1, r12
      be:	25 14       	cp	r2, r5
      c0:	2e 14       	cp	r2, r14
      c2:	37 14       	cp	r3, r7
      c4:	41 17       	cp	r20, r17
      c6:	4f 17       	cp	r20, r31
      c8:	48 17       	cp	r20, r24
      ca:	64 17       	cp	r22, r20
      cc:	56 17       	cp	r21, r22
      ce:	5d 17       	cp	r21, r29
      d0:	72 17       	cp	r23, r18
      d2:	6b 17       	cp	r22, r27
      d4:	98 17       	cp	r25, r24
      d6:	a0 17       	cp	r26, r16
      d8:	9c 17       	cp	r25, r28
      da:	ac 17       	cp	r26, r28
      dc:	a4 17       	cp	r26, r20
      de:	a8 17       	cp	r26, r24
      e0:	b4 17       	cp	r27, r20
      e2:	b0 17       	cp	r27, r16
      e4:	d7 17       	cp	r29, r23
      e6:	df 17       	cp	r29, r31
      e8:	db 17       	cp	r29, r27
      ea:	eb 17       	cp	r30, r27
      ec:	e3 17       	cp	r30, r19
      ee:	e7 17       	cp	r30, r23
      f0:	f3 17       	cp	r31, r19
      f2:	ef 17       	cp	r30, r31
      f4:	5c 19       	sub	r21, r12
      f6:	66 19       	sub	r22, r6
      f8:	70 19       	sub	r23, r0
      fa:	7a 19       	sub	r23, r10
      fc:	84 19       	sub	r24, r4
      fe:	8e 19       	sub	r24, r14
     100:	98 19       	sub	r25, r8
     102:	a2 19       	sub	r26, r2
     104:	ac 19       	sub	r26, r12
     106:	b6 19       	sub	r27, r6
     108:	c0 19       	sub	r28, r0
     10a:	ca 19       	sub	r28, r10
     10c:	d4 19       	sub	r29, r4
     10e:	de 19       	sub	r29, r14
     110:	e8 19       	sub	r30, r8
     112:	12 1a       	sub	r1, r18
     114:	1c 1a       	sub	r1, r28
     116:	26 1a       	sub	r2, r22
     118:	30 1a       	sub	r3, r16
     11a:	3a 1a       	sub	r3, r26
     11c:	44 1a       	sub	r4, r20
     11e:	4e 1a       	sub	r4, r30
     120:	58 1a       	sub	r5, r24
     122:	62 1a       	sub	r6, r18
     124:	6c 1a       	sub	r6, r28
     126:	76 1a       	sub	r7, r22
     128:	80 1a       	sub	r8, r16
     12a:	8a 1a       	sub	r8, r26
     12c:	94 1a       	sub	r9, r20
     12e:	9e 1a       	sub	r9, r30

00000130 <__ctors_end>:
     130:	11 24       	eor	r1, r1
     132:	1f be       	out	0x3f, r1	; 63
     134:	cf ef       	ldi	r28, 0xFF	; 255
     136:	d0 e1       	ldi	r29, 0x10	; 16
     138:	de bf       	out	0x3e, r29	; 62
     13a:	cd bf       	out	0x3d, r28	; 61

0000013c <__do_copy_data>:
     13c:	12 e0       	ldi	r17, 0x02	; 2
     13e:	a0 e0       	ldi	r26, 0x00	; 0
     140:	b1 e0       	ldi	r27, 0x01	; 1
     142:	e2 e0       	ldi	r30, 0x02	; 2
     144:	fb e3       	ldi	r31, 0x3B	; 59
     146:	00 e0       	ldi	r16, 0x00	; 0
     148:	0b bf       	out	0x3b, r16	; 59
     14a:	02 c0       	rjmp	.+4      	; 0x150 <__do_copy_data+0x14>
     14c:	07 90       	elpm	r0, Z+
     14e:	0d 92       	st	X+, r0
     150:	a8 3a       	cpi	r26, 0xA8	; 168
     152:	b1 07       	cpc	r27, r17
     154:	d9 f7       	brne	.-10     	; 0x14c <__do_copy_data+0x10>

00000156 <__do_clear_bss>:
     156:	23 e0       	ldi	r18, 0x03	; 3
     158:	a8 ea       	ldi	r26, 0xA8	; 168
     15a:	b2 e0       	ldi	r27, 0x02	; 2
     15c:	01 c0       	rjmp	.+2      	; 0x160 <.do_clear_bss_start>

0000015e <.do_clear_bss_loop>:
     15e:	1d 92       	st	X+, r1

00000160 <.do_clear_bss_start>:
     160:	af 3a       	cpi	r26, 0xAF	; 175
     162:	b2 07       	cpc	r27, r18
     164:	e1 f7       	brne	.-8      	; 0x15e <.do_clear_bss_loop>
     166:	0e 94 88 14 	call	0x2910	; 0x2910 <main>
     16a:	0c 94 7f 1d 	jmp	0x3afe	; 0x3afe <_exit>

0000016e <__bad_interrupt>:
     16e:	48 cf       	rjmp	.-368    	; 0x0 <__vectors>

00000170 <init_mobs>:
// 0: MCU Temperature
struct CAN_MOB inv11_mob;



void init_mobs(){
     170:	cf 93       	push	r28
     172:	df 93       	push	r29
     174:	cd b7       	in	r28, 0x3d	; 61
     176:	de b7       	in	r29, 0x3e	; 62
	
	ams0_mob.mob_id = AMS_0_MOB_ID;
     178:	80 e0       	ldi	r24, 0x00	; 0
     17a:	92 e0       	ldi	r25, 0x02	; 2
     17c:	90 93 40 03 	sts	0x0340, r25	; 0x800340 <ams0_mob+0x1>
     180:	80 93 3f 03 	sts	0x033F, r24	; 0x80033f <ams0_mob>
	ams0_mob.mob_idmask = 0xffff;
     184:	8f ef       	ldi	r24, 0xFF	; 255
     186:	9f ef       	ldi	r25, 0xFF	; 255
     188:	90 93 42 03 	sts	0x0342, r25	; 0x800342 <ams0_mob+0x3>
     18c:	80 93 41 03 	sts	0x0341, r24	; 0x800341 <ams0_mob+0x2>
	ams0_mob.mob_number = 0;
     190:	10 92 44 03 	sts	0x0344, r1	; 0x800344 <ams0_mob+0x5>
     194:	10 92 43 03 	sts	0x0343, r1	; 0x800343 <ams0_mob+0x4>
	
	ams1_mob.mob_id = AMS_1_MOB_ID;
     198:	81 e0       	ldi	r24, 0x01	; 1
     19a:	92 e0       	ldi	r25, 0x02	; 2
     19c:	90 93 28 03 	sts	0x0328, r25	; 0x800328 <ams1_mob+0x1>
     1a0:	80 93 27 03 	sts	0x0327, r24	; 0x800327 <ams1_mob>
	ams1_mob.mob_idmask = 0xffff;
     1a4:	8f ef       	ldi	r24, 0xFF	; 255
     1a6:	9f ef       	ldi	r25, 0xFF	; 255
     1a8:	90 93 2a 03 	sts	0x032A, r25	; 0x80032a <ams1_mob+0x3>
     1ac:	80 93 29 03 	sts	0x0329, r24	; 0x800329 <ams1_mob+0x2>
	ams1_mob.mob_number = 1;
     1b0:	81 e0       	ldi	r24, 0x01	; 1
     1b2:	90 e0       	ldi	r25, 0x00	; 0
     1b4:	90 93 2c 03 	sts	0x032C, r25	; 0x80032c <ams1_mob+0x5>
     1b8:	80 93 2b 03 	sts	0x032B, r24	; 0x80032b <ams1_mob+0x4>
	
	shr_mob.mob_id = SHR_MOB_ID;
     1bc:	80 e0       	ldi	r24, 0x00	; 0
     1be:	94 e0       	ldi	r25, 0x04	; 4
     1c0:	90 93 10 03 	sts	0x0310, r25	; 0x800310 <shr_mob+0x1>
     1c4:	80 93 0f 03 	sts	0x030F, r24	; 0x80030f <shr_mob>
	shr_mob.mob_idmask = 0xffff;
     1c8:	8f ef       	ldi	r24, 0xFF	; 255
     1ca:	9f ef       	ldi	r25, 0xFF	; 255
     1cc:	90 93 12 03 	sts	0x0312, r25	; 0x800312 <shr_mob+0x3>
     1d0:	80 93 11 03 	sts	0x0311, r24	; 0x800311 <shr_mob+0x2>
	shr_mob.mob_number = 2;
     1d4:	82 e0       	ldi	r24, 0x02	; 2
     1d6:	90 e0       	ldi	r25, 0x00	; 0
     1d8:	90 93 14 03 	sts	0x0314, r25	; 0x800314 <shr_mob+0x5>
     1dc:	80 93 13 03 	sts	0x0313, r24	; 0x800313 <shr_mob+0x4>
	
	shl_mob.mob_id = SHL_MOB_ID;
     1e0:	80 e9       	ldi	r24, 0x90	; 144
     1e2:	94 e0       	ldi	r25, 0x04	; 4
     1e4:	90 93 3a 03 	sts	0x033A, r25	; 0x80033a <shl_mob+0x1>
     1e8:	80 93 39 03 	sts	0x0339, r24	; 0x800339 <shl_mob>
	shl_mob.mob_idmask = 0xffff;
     1ec:	8f ef       	ldi	r24, 0xFF	; 255
     1ee:	9f ef       	ldi	r25, 0xFF	; 255
     1f0:	90 93 3c 03 	sts	0x033C, r25	; 0x80033c <shl_mob+0x3>
     1f4:	80 93 3b 03 	sts	0x033B, r24	; 0x80033b <shl_mob+0x2>
	shl_mob.mob_number = 3;
     1f8:	83 e0       	ldi	r24, 0x03	; 3
     1fa:	90 e0       	ldi	r25, 0x00	; 0
     1fc:	90 93 3e 03 	sts	0x033E, r25	; 0x80033e <shl_mob+0x5>
     200:	80 93 3d 03 	sts	0x033D, r24	; 0x80033d <shl_mob+0x4>
	
	shb_mob.mob_id = SHB_0_MOB_ID;
     204:	80 e2       	ldi	r24, 0x20	; 32
     206:	94 e0       	ldi	r25, 0x04	; 4
     208:	90 93 1c 03 	sts	0x031C, r25	; 0x80031c <shb_mob+0x1>
     20c:	80 93 1b 03 	sts	0x031B, r24	; 0x80031b <shb_mob>
	shb_mob.mob_idmask = 0xffff;
     210:	8f ef       	ldi	r24, 0xFF	; 255
     212:	9f ef       	ldi	r25, 0xFF	; 255
     214:	90 93 1e 03 	sts	0x031E, r25	; 0x80031e <shb_mob+0x3>
     218:	80 93 1d 03 	sts	0x031D, r24	; 0x80031d <shb_mob+0x2>
	shb_mob.mob_number = 4;
     21c:	84 e0       	ldi	r24, 0x04	; 4
     21e:	90 e0       	ldi	r25, 0x00	; 0
     220:	90 93 20 03 	sts	0x0320, r25	; 0x800320 <shb_mob+0x5>
     224:	80 93 1f 03 	sts	0x031F, r24	; 0x80031f <shb_mob+0x4>
	
	dic_mob.mob_id = DIC_MOB_ID;
     228:	80 e0       	ldi	r24, 0x00	; 0
     22a:	95 e0       	ldi	r25, 0x05	; 5
     22c:	90 93 04 03 	sts	0x0304, r25	; 0x800304 <dic_mob+0x1>
     230:	80 93 03 03 	sts	0x0303, r24	; 0x800303 <dic_mob>
	dic_mob.mob_idmask = 0xffff;
     234:	8f ef       	ldi	r24, 0xFF	; 255
     236:	9f ef       	ldi	r25, 0xFF	; 255
     238:	90 93 06 03 	sts	0x0306, r25	; 0x800306 <dic_mob+0x3>
     23c:	80 93 05 03 	sts	0x0305, r24	; 0x800305 <dic_mob+0x2>
	dic_mob.mob_number = 5;
     240:	85 e0       	ldi	r24, 0x05	; 5
     242:	90 e0       	ldi	r25, 0x00	; 0
     244:	90 93 08 03 	sts	0x0308, r25	; 0x800308 <dic_mob+0x5>
     248:	80 93 07 03 	sts	0x0307, r24	; 0x800307 <dic_mob+0x4>
	
	fusebox_mob.mob_id = FUSEBOX_MOB_ID;
     24c:	80 e0       	ldi	r24, 0x00	; 0
     24e:	96 e0       	ldi	r25, 0x06	; 6
     250:	90 93 a6 03 	sts	0x03A6, r25	; 0x8003a6 <fusebox_mob+0x1>
     254:	80 93 a5 03 	sts	0x03A5, r24	; 0x8003a5 <fusebox_mob>
	fusebox_mob.mob_idmask = 0xffff;
     258:	8f ef       	ldi	r24, 0xFF	; 255
     25a:	9f ef       	ldi	r25, 0xFF	; 255
     25c:	90 93 a8 03 	sts	0x03A8, r25	; 0x8003a8 <fusebox_mob+0x3>
     260:	80 93 a7 03 	sts	0x03A7, r24	; 0x8003a7 <fusebox_mob+0x2>
	fusebox_mob.mob_number = 6;
     264:	86 e0       	ldi	r24, 0x06	; 6
     266:	90 e0       	ldi	r25, 0x00	; 0
     268:	90 93 aa 03 	sts	0x03AA, r25	; 0x8003aa <fusebox_mob+0x5>
     26c:	80 93 a9 03 	sts	0x03A9, r24	; 0x8003a9 <fusebox_mob+0x4>
	
	swc_mob.mob_id = SWC_MOB_ID;
     270:	80 e5       	ldi	r24, 0x50	; 80
     272:	97 e0       	ldi	r25, 0x07	; 7
     274:	90 93 0a 03 	sts	0x030A, r25	; 0x80030a <swc_mob+0x1>
     278:	80 93 09 03 	sts	0x0309, r24	; 0x800309 <swc_mob>
	swc_mob.mob_idmask = 0xffff;
     27c:	8f ef       	ldi	r24, 0xFF	; 255
     27e:	9f ef       	ldi	r25, 0xFF	; 255
     280:	90 93 0c 03 	sts	0x030C, r25	; 0x80030c <swc_mob+0x3>
     284:	80 93 0b 03 	sts	0x030B, r24	; 0x80030b <swc_mob+0x2>
	swc_mob.mob_number = 7;
     288:	87 e0       	ldi	r24, 0x07	; 7
     28a:	90 e0       	ldi	r25, 0x00	; 0
     28c:	90 93 0e 03 	sts	0x030E, r25	; 0x80030e <swc_mob+0x5>
     290:	80 93 0d 03 	sts	0x030D, r24	; 0x80030d <swc_mob+0x4>
	
	
	inv00_mob.mob_id = INV0_0_MOB_ID;
     294:	10 92 16 03 	sts	0x0316, r1	; 0x800316 <inv00_mob+0x1>
     298:	10 92 15 03 	sts	0x0315, r1	; 0x800315 <inv00_mob>
	inv00_mob.mob_idmask = 0xffff;
     29c:	8f ef       	ldi	r24, 0xFF	; 255
     29e:	9f ef       	ldi	r25, 0xFF	; 255
     2a0:	90 93 18 03 	sts	0x0318, r25	; 0x800318 <inv00_mob+0x3>
     2a4:	80 93 17 03 	sts	0x0317, r24	; 0x800317 <inv00_mob+0x2>
	inv00_mob.mob_number = 8;
     2a8:	88 e0       	ldi	r24, 0x08	; 8
     2aa:	90 e0       	ldi	r25, 0x00	; 0
     2ac:	90 93 1a 03 	sts	0x031A, r25	; 0x80031a <inv00_mob+0x5>
     2b0:	80 93 19 03 	sts	0x0319, r24	; 0x800319 <inv00_mob+0x4>
	
	inv01_mob.mob_id = INV0_1_MOB_ID;
     2b4:	8a e5       	ldi	r24, 0x5A	; 90
     2b6:	94 e0       	ldi	r25, 0x04	; 4
     2b8:	90 93 34 03 	sts	0x0334, r25	; 0x800334 <inv01_mob+0x1>
     2bc:	80 93 33 03 	sts	0x0333, r24	; 0x800333 <inv01_mob>
	inv01_mob.mob_idmask = 0xffff;
     2c0:	8f ef       	ldi	r24, 0xFF	; 255
     2c2:	9f ef       	ldi	r25, 0xFF	; 255
     2c4:	90 93 36 03 	sts	0x0336, r25	; 0x800336 <inv01_mob+0x3>
     2c8:	80 93 35 03 	sts	0x0335, r24	; 0x800335 <inv01_mob+0x2>
	inv01_mob.mob_number = 9;
     2cc:	89 e0       	ldi	r24, 0x09	; 9
     2ce:	90 e0       	ldi	r25, 0x00	; 0
     2d0:	90 93 38 03 	sts	0x0338, r25	; 0x800338 <inv01_mob+0x5>
     2d4:	80 93 37 03 	sts	0x0337, r24	; 0x800337 <inv01_mob+0x4>
	
	inv10_mob.mob_id = INV0_1_MOB_ID;
     2d8:	8a e5       	ldi	r24, 0x5A	; 90
     2da:	94 e0       	ldi	r25, 0x04	; 4
     2dc:	90 93 22 03 	sts	0x0322, r25	; 0x800322 <inv10_mob+0x1>
     2e0:	80 93 21 03 	sts	0x0321, r24	; 0x800321 <inv10_mob>
	inv10_mob.mob_idmask = 0xffff;
     2e4:	8f ef       	ldi	r24, 0xFF	; 255
     2e6:	9f ef       	ldi	r25, 0xFF	; 255
     2e8:	90 93 24 03 	sts	0x0324, r25	; 0x800324 <inv10_mob+0x3>
     2ec:	80 93 23 03 	sts	0x0323, r24	; 0x800323 <inv10_mob+0x2>
	inv10_mob.mob_number = 10;
     2f0:	8a e0       	ldi	r24, 0x0A	; 10
     2f2:	90 e0       	ldi	r25, 0x00	; 0
     2f4:	90 93 26 03 	sts	0x0326, r25	; 0x800326 <inv10_mob+0x5>
     2f8:	80 93 25 03 	sts	0x0325, r24	; 0x800325 <inv10_mob+0x4>
	
	inv11_mob.mob_id = INV1_1_MOB_ID;
     2fc:	8a e4       	ldi	r24, 0x4A	; 74
     2fe:	94 e0       	ldi	r25, 0x04	; 4
     300:	90 93 2e 03 	sts	0x032E, r25	; 0x80032e <inv11_mob+0x1>
     304:	80 93 2d 03 	sts	0x032D, r24	; 0x80032d <inv11_mob>
	inv11_mob.mob_idmask = 0xffff;
     308:	8f ef       	ldi	r24, 0xFF	; 255
     30a:	9f ef       	ldi	r25, 0xFF	; 255
     30c:	90 93 30 03 	sts	0x0330, r25	; 0x800330 <inv11_mob+0x3>
     310:	80 93 2f 03 	sts	0x032F, r24	; 0x80032f <inv11_mob+0x2>
	inv11_mob.mob_number = 11;
     314:	8b e0       	ldi	r24, 0x0B	; 11
     316:	90 e0       	ldi	r25, 0x00	; 0
     318:	90 93 32 03 	sts	0x0332, r25	; 0x800332 <inv11_mob+0x5>
     31c:	80 93 31 03 	sts	0x0331, r24	; 0x800331 <inv11_mob+0x4>
	
	shb_mob.mob_id = SHB_1_MOB_ID;
     320:	81 e2       	ldi	r24, 0x21	; 33
     322:	94 e0       	ldi	r25, 0x04	; 4
     324:	90 93 1c 03 	sts	0x031C, r25	; 0x80031c <shb_mob+0x1>
     328:	80 93 1b 03 	sts	0x031B, r24	; 0x80031b <shb_mob>
	shb_mob.mob_idmask = 0xffff;
     32c:	8f ef       	ldi	r24, 0xFF	; 255
     32e:	9f ef       	ldi	r25, 0xFF	; 255
     330:	90 93 1e 03 	sts	0x031E, r25	; 0x80031e <shb_mob+0x3>
     334:	80 93 1d 03 	sts	0x031D, r24	; 0x80031d <shb_mob+0x2>
	shb_mob.mob_number = 12;
     338:	8c e0       	ldi	r24, 0x0C	; 12
     33a:	90 e0       	ldi	r25, 0x00	; 0
     33c:	90 93 20 03 	sts	0x0320, r25	; 0x800320 <shb_mob+0x5>
     340:	80 93 1f 03 	sts	0x031F, r24	; 0x80031f <shb_mob+0x4>
	
	
}
     344:	00 00       	nop
     346:	df 91       	pop	r29
     348:	cf 91       	pop	r28
     34a:	08 95       	ret

0000034c <can_receive>:

void can_receive(){
     34c:	cf 93       	push	r28
     34e:	df 93       	push	r29
     350:	1f 92       	push	r1
     352:	cd b7       	in	r28, 0x3d	; 61
     354:	de b7       	in	r29, 0x3e	; 62
	
	can_rx(&ams0_mob, mob_databytes[AMS0_DATA]);
     356:	65 e4       	ldi	r22, 0x45	; 69
     358:	73 e0       	ldi	r23, 0x03	; 3
     35a:	8f e3       	ldi	r24, 0x3F	; 63
     35c:	93 e0       	ldi	r25, 0x03	; 3
     35e:	89 d3       	rcall	.+1810   	; 0xa72 <can_rx>
	uint8_t ams_counter = mob_databytes[AMS0_DATA][7];
     360:	80 91 4c 03 	lds	r24, 0x034C	; 0x80034c <mob_databytes+0x7>
     364:	89 83       	std	Y+1, r24	; 0x01
	if (ams_counter == last_ams_counter){
     366:	80 91 f7 02 	lds	r24, 0x02F7	; 0x8002f7 <last_ams_counter>
     36a:	99 81       	ldd	r25, Y+1	; 0x01
     36c:	98 17       	cp	r25, r24
     36e:	31 f4       	brne	.+12     	; 0x37c <can_receive+0x30>
		ams_error_counter++;
     370:	80 91 f6 02 	lds	r24, 0x02F6	; 0x8002f6 <ams_error_counter>
     374:	8f 5f       	subi	r24, 0xFF	; 255
     376:	80 93 f6 02 	sts	0x02F6, r24	; 0x8002f6 <ams_error_counter>
     37a:	02 c0       	rjmp	.+4      	; 0x380 <can_receive+0x34>
	} else {
		ams_error_counter = 0;
     37c:	10 92 f6 02 	sts	0x02F6, r1	; 0x8002f6 <ams_error_counter>
	}
	last_ams_counter = ams_counter;			// AMS error muss 100 mal kommen, dann dann leuchtet led bar 
     380:	89 81       	ldd	r24, Y+1	; 0x01
     382:	80 93 f7 02 	sts	0x02F7, r24	; 0x8002f7 <last_ams_counter>
	if (ams_error_counter > 100  || ams_error != 0){
     386:	80 91 f6 02 	lds	r24, 0x02F6	; 0x8002f6 <ams_error_counter>
     38a:	85 36       	cpi	r24, 0x65	; 101
     38c:	20 f4       	brcc	.+8      	; 0x396 <can_receive+0x4a>
     38e:	80 91 ae 02 	lds	r24, 0x02AE	; 0x8002ae <ams_error>
     392:	88 23       	and	r24, r24
     394:	21 f0       	breq	.+8      	; 0x39e <can_receive+0x52>
		//LED anschalten
		bms_error(1);
     396:	81 e0       	ldi	r24, 0x01	; 1
     398:	0e 94 ad 1a 	call	0x355a	; 0x355a <bms_error>
     39c:	03 c0       	rjmp	.+6      	; 0x3a4 <can_receive+0x58>
	} else {
		bms_error(0);
     39e:	80 e0       	ldi	r24, 0x00	; 0
     3a0:	0e 94 ad 1a 	call	0x355a	; 0x355a <bms_error>
	}
	
	can_rx(&ams1_mob, mob_databytes[AMS1_DATA]);
     3a4:	6d e4       	ldi	r22, 0x4D	; 77
     3a6:	73 e0       	ldi	r23, 0x03	; 3
     3a8:	87 e2       	ldi	r24, 0x27	; 39
     3aa:	93 e0       	ldi	r25, 0x03	; 3
     3ac:	62 d3       	rcall	.+1732   	; 0xa72 <can_rx>
	can_rx(&shr_mob, mob_databytes[SHR_DATA]);
     3ae:	65 e5       	ldi	r22, 0x55	; 85
     3b0:	73 e0       	ldi	r23, 0x03	; 3
     3b2:	8f e0       	ldi	r24, 0x0F	; 15
     3b4:	93 e0       	ldi	r25, 0x03	; 3
     3b6:	5d d3       	rcall	.+1722   	; 0xa72 <can_rx>
	can_rx(&shl_mob, mob_databytes[SHL_DATA]);
     3b8:	6d e5       	ldi	r22, 0x5D	; 93
     3ba:	73 e0       	ldi	r23, 0x03	; 3
     3bc:	89 e3       	ldi	r24, 0x39	; 57
     3be:	93 e0       	ldi	r25, 0x03	; 3
     3c0:	58 d3       	rcall	.+1712   	; 0xa72 <can_rx>
	can_rx(&shb_mob, mob_databytes[SHB_DATA_0]);
     3c2:	65 e6       	ldi	r22, 0x65	; 101
     3c4:	73 e0       	ldi	r23, 0x03	; 3
     3c6:	8b e1       	ldi	r24, 0x1B	; 27
     3c8:	93 e0       	ldi	r25, 0x03	; 3
     3ca:	53 d3       	rcall	.+1702   	; 0xa72 <can_rx>
	can_rx(&shb_mob, mob_databytes[SHB_DATA_1]);
     3cc:	65 ea       	ldi	r22, 0xA5	; 165
     3ce:	73 e0       	ldi	r23, 0x03	; 3
     3d0:	8b e1       	ldi	r24, 0x1B	; 27
     3d2:	93 e0       	ldi	r25, 0x03	; 3
     3d4:	4e d3       	rcall	.+1692   	; 0xa72 <can_rx>
	can_rx(&fusebox_mob, mob_databytes[FUSEBOX_DATA]);
     3d6:	65 e7       	ldi	r22, 0x75	; 117
     3d8:	73 e0       	ldi	r23, 0x03	; 3
     3da:	85 ea       	ldi	r24, 0xA5	; 165
     3dc:	93 e0       	ldi	r25, 0x03	; 3
     3de:	49 d3       	rcall	.+1682   	; 0xa72 <can_rx>
	can_rx(&swc_mob, mob_databytes[SWC_DATA]);
     3e0:	6d e7       	ldi	r22, 0x7D	; 125
     3e2:	73 e0       	ldi	r23, 0x03	; 3
     3e4:	89 e0       	ldi	r24, 0x09	; 9
     3e6:	93 e0       	ldi	r25, 0x03	; 3
     3e8:	44 d3       	rcall	.+1672   	; 0xa72 <can_rx>
	can_rx(&inv01_mob, mob_databytes[INV01_DATA]);
     3ea:	6d e8       	ldi	r22, 0x8D	; 141
     3ec:	73 e0       	ldi	r23, 0x03	; 3
     3ee:	83 e3       	ldi	r24, 0x33	; 51
     3f0:	93 e0       	ldi	r25, 0x03	; 3
     3f2:	3f d3       	rcall	.+1662   	; 0xa72 <can_rx>
	can_rx(&inv11_mob, mob_databytes[INV11_DATA]);
     3f4:	6d e9       	ldi	r22, 0x9D	; 157
     3f6:	73 e0       	ldi	r23, 0x03	; 3
     3f8:	8d e2       	ldi	r24, 0x2D	; 45
     3fa:	93 e0       	ldi	r25, 0x03	; 3
     3fc:	3a d3       	rcall	.+1652   	; 0xa72 <can_rx>
     3fe:	00 00       	nop
	
	
}
     400:	0f 90       	pop	r0
     402:	df 91       	pop	r29
     404:	cf 91       	pop	r28
     406:	08 95       	ret

00000408 <can_transmit>:

void can_transmit(){
     408:	cf 93       	push	r28
     40a:	df 93       	push	r29
     40c:	cd b7       	in	r28, 0x3d	; 61
     40e:	de b7       	in	r29, 0x3e	; 62
	can_tx(&dic_mob, mob_databytes[DIC_DATA]);
     410:	6d e6       	ldi	r22, 0x6D	; 109
     412:	73 e0       	ldi	r23, 0x03	; 3
     414:	83 e0       	ldi	r24, 0x03	; 3
     416:	93 e0       	ldi	r25, 0x03	; 3
     418:	c8 d3       	rcall	.+1936   	; 0xbaa <can_tx>
     41a:	00 00       	nop
}
     41c:	df 91       	pop	r29
     41e:	cf 91       	pop	r28
     420:	08 95       	ret

00000422 <get_dsp_mode>:
     422:	cf 93       	push	r28

uint8_t get_dsp_mode(){
     424:	df 93       	push	r29
     426:	cd b7       	in	r28, 0x3d	; 61
     428:	de b7       	in	r29, 0x3e	; 62
     42a:	80 91 7d 03 	lds	r24, 0x037D	; 0x80037d <mob_databytes+0x38>
	return mob_databytes[SWC_DATA][DSP_MODE_BYTE];
     42e:	df 91       	pop	r29
}
     430:	cf 91       	pop	r28
     432:	08 95       	ret

00000434 <get_mob_data>:
     434:	cf 93       	push	r28

uint8_t* get_mob_data(uint8_t mob){
     436:	df 93       	push	r29
     438:	1f 92       	push	r1
     43a:	cd b7       	in	r28, 0x3d	; 61
     43c:	de b7       	in	r29, 0x3e	; 62
     43e:	89 83       	std	Y+1, r24	; 0x01
     440:	89 81       	ldd	r24, Y+1	; 0x01
	return mob_databytes[mob];
     442:	88 2f       	mov	r24, r24
     444:	90 e0       	ldi	r25, 0x00	; 0
     446:	88 0f       	add	r24, r24
     448:	99 1f       	adc	r25, r25
     44a:	88 0f       	add	r24, r24
     44c:	99 1f       	adc	r25, r25
     44e:	88 0f       	add	r24, r24
     450:	99 1f       	adc	r25, r25
     452:	8b 5b       	subi	r24, 0xBB	; 187
     454:	9c 4f       	sbci	r25, 0xFC	; 252
     456:	0f 90       	pop	r0
}
     458:	df 91       	pop	r29
     45a:	cf 91       	pop	r28
     45c:	08 95       	ret

0000045e <can_put_data>:
     45e:	cf 93       	push	r28

void can_put_data(){
     460:	df 93       	push	r29
     462:	cd b7       	in	r28, 0x3d	; 61
     464:	de b7       	in	r29, 0x3e	; 62
     466:	80 91 45 03 	lds	r24, 0x0345	; 0x800345 <mob_databytes>
	
	ts_voltage = (mob_databytes[AMS0_DATA][0] | (mob_databytes[AMS0_DATA][1] << 8));
     46a:	28 2f       	mov	r18, r24
     46c:	30 e0       	ldi	r19, 0x00	; 0
     46e:	80 91 46 03 	lds	r24, 0x0346	; 0x800346 <mob_databytes+0x1>
     472:	88 2f       	mov	r24, r24
     474:	90 e0       	ldi	r25, 0x00	; 0
     476:	98 2f       	mov	r25, r24
     478:	88 27       	eor	r24, r24
     47a:	82 2b       	or	r24, r18
     47c:	93 2b       	or	r25, r19
     47e:	90 93 a9 02 	sts	0x02A9, r25	; 0x8002a9 <__data_end+0x1>
     482:	80 93 a8 02 	sts	0x02A8, r24	; 0x8002a8 <__data_end>
     486:	80 91 a8 02 	lds	r24, 0x02A8	; 0x8002a8 <__data_end>
	ts_voltage = ts_voltage/100;
     48a:	90 91 a9 02 	lds	r25, 0x02A9	; 0x8002a9 <__data_end+0x1>
     48e:	96 95       	lsr	r25
     490:	87 95       	ror	r24
     492:	96 95       	lsr	r25
     494:	87 95       	ror	r24
     496:	9c 01       	movw	r18, r24
     498:	ab e7       	ldi	r26, 0x7B	; 123
     49a:	b4 e1       	ldi	r27, 0x14	; 20
     49c:	0e 94 70 1d 	call	0x3ae0	; 0x3ae0 <__umulhisi3>
     4a0:	96 95       	lsr	r25
     4a2:	87 95       	ror	r24
     4a4:	90 93 a9 02 	sts	0x02A9, r25	; 0x8002a9 <__data_end+0x1>
     4a8:	80 93 a8 02 	sts	0x02A8, r24	; 0x8002a8 <__data_end>
     4ac:	80 91 4b 03 	lds	r24, 0x034B	; 0x80034b <mob_databytes+0x6>
	//ts_current = mob_databytes[AMS0_DATA][2] | (mob_databytes[AMS0_DATA][3] << 8);
	//state_of_charge = mob_databytes[AMS0_DATA][4] | (mob_databytes[AMS0_DATA][5] << 8);
	ams_error = ((mob_databytes[AMS0_DATA][6]>>7) & 1);
     4b0:	88 1f       	adc	r24, r24
     4b2:	88 27       	eor	r24, r24
     4b4:	88 1f       	adc	r24, r24
     4b6:	80 93 ae 02 	sts	0x02AE, r24	; 0x8002ae <ams_error>
     4ba:	80 91 4b 03 	lds	r24, 0x034B	; 0x80034b <mob_databytes+0x6>
	imd_error = ((mob_databytes[AMS0_DATA][6]>>6) & 1);
     4be:	82 95       	swap	r24
     4c0:	86 95       	lsr	r24
     4c2:	86 95       	lsr	r24
     4c4:	83 70       	andi	r24, 0x03	; 3
     4c6:	81 70       	andi	r24, 0x01	; 1
     4c8:	80 93 af 02 	sts	0x02AF, r24	; 0x8002af <imd_error>
     4cc:	80 91 af 02 	lds	r24, 0x02AF	; 0x8002af <imd_error>
	if (imd_error == 0){
     4d0:	88 23       	and	r24, r24
     4d2:	49 f4       	brne	.+18     	; 0x4e6 <can_put_data+0x88>
     4d4:	82 e2       	ldi	r24, 0x22	; 34
		//pre_defined_led_colors(PE_RED);
		PORTA |= (0<<PA2);
     4d6:	90 e0       	ldi	r25, 0x00	; 0
     4d8:	22 e2       	ldi	r18, 0x22	; 34
     4da:	30 e0       	ldi	r19, 0x00	; 0
     4dc:	f9 01       	movw	r30, r18
     4de:	20 81       	ld	r18, Z
     4e0:	fc 01       	movw	r30, r24
     4e2:	20 83       	st	Z, r18
     4e4:	09 c0       	rjmp	.+18     	; 0x4f8 <can_put_data+0x9a>
     4e6:	82 e2       	ldi	r24, 0x22	; 34
		//extender_leds_blocking(RGB_LEFT,0|(0<<F_RED));
	}
	else
	{
		//pre_defined_led_colors(PE_OFF);
		PORTA |= (1<<PA2);
     4e8:	90 e0       	ldi	r25, 0x00	; 0
     4ea:	22 e2       	ldi	r18, 0x22	; 34
     4ec:	30 e0       	ldi	r19, 0x00	; 0
     4ee:	f9 01       	movw	r30, r18
     4f0:	20 81       	ld	r18, Z
     4f2:	24 60       	ori	r18, 0x04	; 4
     4f4:	fc 01       	movw	r30, r24
     4f6:	20 83       	st	Z, r18
     4f8:	80 91 4b 03 	lds	r24, 0x034B	; 0x80034b <mob_databytes+0x6>
		//extender_leds_blocking(RGB_LEFT,0|(1<<F_RED));
	}
	//can_ok = ((mob_databytes[AMS0_DATA][6]>>5) & 1);
	precharge_active = ((mob_databytes[AMS0_DATA][6]>>4) & 1);
     4fc:	82 95       	swap	r24
     4fe:	8f 70       	andi	r24, 0x0F	; 15
     500:	81 70       	andi	r24, 0x01	; 1
     502:	80 93 b1 02 	sts	0x02B1, r24	; 0x8002b1 <precharge_active>
     506:	80 91 53 03 	lds	r24, 0x0353	; 0x800353 <mob_databytes+0xe>
    //TS_RDY = ((mob_databytes[AMS0_DATA][6]>>3) & 1);
	
	//bms_min_voltage = mob_databytes[AMS1_DATA][0] | (mob_databytes[AMS1_DATA][1] << 8);
	//bms_max_voltage = mob_databytes[AMS1_DATA][2] | (mob_databytes[AMS1_DATA][3] << 8);
	//bms_min_temp = (mob_databytes[AMS1_DATA][4] | (mob_databytes[AMS1_DATA][5] << 8))/100;
	bms_max_temp = (mob_databytes[AMS1_DATA][6] | (mob_databytes[AMS1_DATA][7] << 8))/100;
     50a:	28 2f       	mov	r18, r24
     50c:	30 e0       	ldi	r19, 0x00	; 0
     50e:	80 91 54 03 	lds	r24, 0x0354	; 0x800354 <mob_databytes+0xf>
     512:	88 2f       	mov	r24, r24
     514:	90 e0       	ldi	r25, 0x00	; 0
     516:	98 2f       	mov	r25, r24
     518:	88 27       	eor	r24, r24
     51a:	82 2b       	or	r24, r18
     51c:	93 2b       	or	r25, r19
     51e:	24 e6       	ldi	r18, 0x64	; 100
     520:	30 e0       	ldi	r19, 0x00	; 0
     522:	b9 01       	movw	r22, r18
     524:	0e 94 54 1d 	call	0x3aa8	; 0x3aa8 <__divmodhi4>
     528:	cb 01       	movw	r24, r22
     52a:	90 93 b8 02 	sts	0x02B8, r25	; 0x8002b8 <bms_max_temp+0x1>
     52e:	80 93 b7 02 	sts	0x02B7, r24	; 0x8002b7 <bms_max_temp>
     532:	80 91 55 03 	lds	r24, 0x0355	; 0x800355 <mob_databytes+0x10>
	
	APPS1 = mob_databytes[SHR_DATA][0] | (mob_databytes[SHR_DATA][1] << 8);
     536:	28 2f       	mov	r18, r24
     538:	30 e0       	ldi	r19, 0x00	; 0
     53a:	80 91 56 03 	lds	r24, 0x0356	; 0x800356 <mob_databytes+0x11>
     53e:	88 2f       	mov	r24, r24
     540:	90 e0       	ldi	r25, 0x00	; 0
     542:	98 2f       	mov	r25, r24
     544:	88 27       	eor	r24, r24
     546:	82 2b       	or	r24, r18
     548:	93 2b       	or	r25, r19
     54a:	90 93 bc 02 	sts	0x02BC, r25	; 0x8002bc <APPS1+0x1>
     54e:	80 93 bb 02 	sts	0x02BB, r24	; 0x8002bb <APPS1>
     552:	80 91 57 03 	lds	r24, 0x0357	; 0x800357 <mob_databytes+0x12>
	APPS2 = mob_databytes[SHR_DATA][2] | (mob_databytes[SHR_DATA][3] << 8);
     556:	28 2f       	mov	r18, r24
     558:	30 e0       	ldi	r19, 0x00	; 0
     55a:	80 91 58 03 	lds	r24, 0x0358	; 0x800358 <mob_databytes+0x13>
     55e:	88 2f       	mov	r24, r24
     560:	90 e0       	ldi	r25, 0x00	; 0
     562:	98 2f       	mov	r25, r24
     564:	88 27       	eor	r24, r24
     566:	82 2b       	or	r24, r18
     568:	93 2b       	or	r25, r19
     56a:	90 93 be 02 	sts	0x02BE, r25	; 0x8002be <APPS2+0x1>
     56e:	80 93 bd 02 	sts	0x02BD, r24	; 0x8002bd <APPS2>
     572:	80 91 5d 03 	lds	r24, 0x035D	; 0x80035d <mob_databytes+0x18>
	BPSF = mob_databytes[SHL_DATA][0] | (mob_databytes[SHL_DATA][1] << 8);
     576:	28 2f       	mov	r18, r24
     578:	30 e0       	ldi	r19, 0x00	; 0
     57a:	80 91 5e 03 	lds	r24, 0x035E	; 0x80035e <mob_databytes+0x19>
     57e:	88 2f       	mov	r24, r24
     580:	90 e0       	ldi	r25, 0x00	; 0
     582:	98 2f       	mov	r25, r24
     584:	88 27       	eor	r24, r24
     586:	82 2b       	or	r24, r18
     588:	93 2b       	or	r25, r19
     58a:	90 93 c0 02 	sts	0x02C0, r25	; 0x8002c0 <BPSF+0x1>
     58e:	80 93 bf 02 	sts	0x02BF, r24	; 0x8002bf <BPSF>
     592:	80 91 5f 03 	lds	r24, 0x035F	; 0x80035f <mob_databytes+0x1a>
	BPSR = mob_databytes[SHL_DATA][2] | (mob_databytes[SHL_DATA][3] << 8);
     596:	28 2f       	mov	r18, r24
     598:	30 e0       	ldi	r19, 0x00	; 0
     59a:	80 91 60 03 	lds	r24, 0x0360	; 0x800360 <mob_databytes+0x1b>
     59e:	88 2f       	mov	r24, r24
     5a0:	90 e0       	ldi	r25, 0x00	; 0
     5a2:	98 2f       	mov	r25, r24
     5a4:	88 27       	eor	r24, r24
     5a6:	82 2b       	or	r24, r18
     5a8:	93 2b       	or	r25, r19
     5aa:	90 93 c2 02 	sts	0x02C2, r25	; 0x8002c2 <BPSR+0x1>
     5ae:	80 93 c1 02 	sts	0x02C1, r24	; 0x8002c1 <BPSR>
     5b2:	80 91 7a 03 	lds	r24, 0x037A	; 0x80037a <mob_databytes+0x35>
	
	Akku_fan = ((mob_databytes[FUSEBOX_DATA][5]>>7) & 1);
     5b6:	88 1f       	adc	r24, r24
     5b8:	88 27       	eor	r24, r24
     5ba:	88 1f       	adc	r24, r24
     5bc:	80 93 f8 02 	sts	0x02F8, r24	; 0x8002f8 <Akku_fan>
     5c0:	80 91 a5 03 	lds	r24, 0x03A5	; 0x8003a5 <fusebox_mob>
	//Cooling_fan = ((mob_databytes[FUSEBOX_DATA][5]>>6) & 1);
	
	//Rotary_right = (mob_databytes[SWC_DATA][1]);
	//Rotary_left = (mob_databytes[SWC_DATA][0]);
	
	d_poti_1 = (mob_databytes[SHB_DATA_1][0] | (mob_databytes[SHB_DATA_1][1] << 8));
     5c4:	28 2f       	mov	r18, r24
     5c6:	30 e0       	ldi	r19, 0x00	; 0
     5c8:	80 91 a6 03 	lds	r24, 0x03A6	; 0x8003a6 <fusebox_mob+0x1>
     5cc:	88 2f       	mov	r24, r24
     5ce:	90 e0       	ldi	r25, 0x00	; 0
     5d0:	98 2f       	mov	r25, r24
     5d2:	88 27       	eor	r24, r24
     5d4:	82 2b       	or	r24, r18
     5d6:	93 2b       	or	r25, r19
     5d8:	90 93 c8 02 	sts	0x02C8, r25	; 0x8002c8 <d_poti_1+0x1>
     5dc:	80 93 c7 02 	sts	0x02C7, r24	; 0x8002c7 <d_poti_1>
     5e0:	80 91 a7 03 	lds	r24, 0x03A7	; 0x8003a7 <fusebox_mob+0x2>
	d_poti_2 = mob_databytes[SHB_DATA_1][2] | (mob_databytes[SHB_DATA_1][3] << 8);
     5e4:	28 2f       	mov	r18, r24
     5e6:	30 e0       	ldi	r19, 0x00	; 0
     5e8:	80 91 a8 03 	lds	r24, 0x03A8	; 0x8003a8 <fusebox_mob+0x3>
     5ec:	88 2f       	mov	r24, r24
     5ee:	90 e0       	ldi	r25, 0x00	; 0
     5f0:	98 2f       	mov	r25, r24
     5f2:	88 27       	eor	r24, r24
     5f4:	82 2b       	or	r24, r18
     5f6:	93 2b       	or	r25, r19
     5f8:	90 93 ca 02 	sts	0x02CA, r25	; 0x8002ca <d_poti_2+0x1>
     5fc:	80 93 c9 02 	sts	0x02C9, r24	; 0x8002c9 <d_poti_2>
     600:	80 e2       	ldi	r24, 0x20	; 32
	//cooling_1 = (mob_databytes[SHB_DATA][0] | (mob_databytes[SHB_DATA][1] << 8));
	//cooling_2 = mob_databytes[SHB_DATA][2] | (mob_databytes[SHB_DATA][3] << 8);
	//cooling_temp = (cooling_1 + cooling_2) / 2 ;		//Mittelwert aus cooling 1 und 2
	//cooling_temp_deg =  ((0.128*cooling_1) - (8.137))*10; // NTC Kurve ist linearisiert im Bereich 80°-20°, außerhalb ungenauer
	
	TS_ON = (~PINA & (1 << PA0));
     602:	90 e0       	ldi	r25, 0x00	; 0
     604:	fc 01       	movw	r30, r24
     606:	80 81       	ld	r24, Z
     608:	88 2f       	mov	r24, r24
     60a:	90 e0       	ldi	r25, 0x00	; 0
     60c:	81 70       	andi	r24, 0x01	; 1
     60e:	99 27       	eor	r25, r25
     610:	21 e0       	ldi	r18, 0x01	; 1
     612:	89 2b       	or	r24, r25
     614:	09 f0       	breq	.+2      	; 0x618 <can_put_data+0x1ba>
     616:	20 e0       	ldi	r18, 0x00	; 0
     618:	82 2f       	mov	r24, r18
     61a:	80 93 d6 02 	sts	0x02D6, r24	; 0x8002d6 <TS_ON>
     61e:	10 92 d5 02 	sts	0x02D5, r1	; 0x8002d5 <Ready_2_Drive>
	Ready_2_Drive = 0;
     622:	80 91 c1 02 	lds	r24, 0x02C1	; 0x8002c1 <BPSR>
	/*
	if (BPSR >= 10 && precharge_active){
		Ready_2_Drive = (~PINA >> PA1) & PA1;
	}
	*/
	if (BPSR >= 10){
     626:	90 91 c2 02 	lds	r25, 0x02C2	; 0x8002c2 <BPSR+0x1>
     62a:	0a 97       	sbiw	r24, 0x0a	; 10
     62c:	68 f0       	brcs	.+26     	; 0x648 <can_put_data+0x1ea>
     62e:	80 e2       	ldi	r24, 0x20	; 32
		Ready_2_Drive = (~PINA >> PA1) & PA1;
     630:	90 e0       	ldi	r25, 0x00	; 0
     632:	fc 01       	movw	r30, r24
     634:	80 81       	ld	r24, Z
     636:	88 2f       	mov	r24, r24
     638:	90 e0       	ldi	r25, 0x00	; 0
     63a:	80 95       	com	r24
     63c:	90 95       	com	r25
     63e:	95 95       	asr	r25
     640:	87 95       	ror	r24
     642:	81 70       	andi	r24, 0x01	; 1
     644:	80 93 d5 02 	sts	0x02D5, r24	; 0x8002d5 <Ready_2_Drive>
     648:	80 91 77 03 	lds	r24, 0x0377	; 0x800377 <mob_databytes+0x32>
	}
	
	battery_voltage = mob_databytes[FUSEBOX_DATA][2] | (mob_databytes[FUSEBOX_DATA][3] << 8);
     64c:	28 2f       	mov	r18, r24
     64e:	30 e0       	ldi	r19, 0x00	; 0
     650:	80 91 78 03 	lds	r24, 0x0378	; 0x800378 <mob_databytes+0x33>
     654:	88 2f       	mov	r24, r24
     656:	90 e0       	ldi	r25, 0x00	; 0
     658:	98 2f       	mov	r25, r24
     65a:	88 27       	eor	r24, r24
     65c:	82 2b       	or	r24, r18
     65e:	93 2b       	or	r25, r19
     660:	90 93 d9 02 	sts	0x02D9, r25	; 0x8002d9 <battery_voltage+0x1>
     664:	80 93 d8 02 	sts	0x02D8, r24	; 0x8002d8 <battery_voltage>
     668:	80 91 88 03 	lds	r24, 0x0388	; 0x800388 <mob_databytes+0x43>
	//SDCIFB = mob_databytes[FUSEBOX_DATA][4];
	//fuse_readout = mob_databytes[FUSEBOX_DATA][6] | (mob_databytes[FUSEBOX_DATA][7] << 8);
	
	
	ERPM_0 = (mob_databytes[INV00_DATA][3] | (mob_databytes[INV00_DATA][2] << 8) | (mob_databytes[INV00_DATA][1] << 16) | (mob_databytes[INV00_DATA][0] << 24));
     66c:	28 2f       	mov	r18, r24
     66e:	30 e0       	ldi	r19, 0x00	; 0
     670:	80 91 87 03 	lds	r24, 0x0387	; 0x800387 <mob_databytes+0x42>
     674:	88 2f       	mov	r24, r24
     676:	90 e0       	ldi	r25, 0x00	; 0
     678:	98 2f       	mov	r25, r24
     67a:	88 27       	eor	r24, r24
     67c:	28 2b       	or	r18, r24
     67e:	39 2b       	or	r19, r25
     680:	80 91 86 03 	lds	r24, 0x0386	; 0x800386 <mob_databytes+0x41>
     684:	88 2f       	mov	r24, r24
     686:	90 e0       	ldi	r25, 0x00	; 0
     688:	40 e1       	ldi	r20, 0x10	; 16
     68a:	50 e0       	ldi	r21, 0x00	; 0
     68c:	02 c0       	rjmp	.+4      	; 0x692 <can_put_data+0x234>
     68e:	88 0f       	add	r24, r24
     690:	99 1f       	adc	r25, r25
     692:	4a 95       	dec	r20
     694:	e2 f7       	brpl	.-8      	; 0x68e <can_put_data+0x230>
     696:	28 2b       	or	r18, r24
     698:	39 2b       	or	r19, r25
     69a:	80 91 85 03 	lds	r24, 0x0385	; 0x800385 <mob_databytes+0x40>
     69e:	88 2f       	mov	r24, r24
     6a0:	90 e0       	ldi	r25, 0x00	; 0
     6a2:	48 e1       	ldi	r20, 0x18	; 24
     6a4:	50 e0       	ldi	r21, 0x00	; 0
     6a6:	02 c0       	rjmp	.+4      	; 0x6ac <can_put_data+0x24e>
     6a8:	88 0f       	add	r24, r24
     6aa:	99 1f       	adc	r25, r25
     6ac:	4a 95       	dec	r20
     6ae:	e2 f7       	brpl	.-8      	; 0x6a8 <can_put_data+0x24a>
     6b0:	82 2b       	or	r24, r18
     6b2:	93 2b       	or	r25, r19
     6b4:	09 2e       	mov	r0, r25
     6b6:	00 0c       	add	r0, r0
     6b8:	aa 0b       	sbc	r26, r26
     6ba:	bb 0b       	sbc	r27, r27
     6bc:	80 93 df 02 	sts	0x02DF, r24	; 0x8002df <ERPM_0>
     6c0:	90 93 e0 02 	sts	0x02E0, r25	; 0x8002e0 <ERPM_0+0x1>
     6c4:	a0 93 e1 02 	sts	0x02E1, r26	; 0x8002e1 <ERPM_0+0x2>
     6c8:	b0 93 e2 02 	sts	0x02E2, r27	; 0x8002e2 <ERPM_0+0x3>
     6cc:	80 91 98 03 	lds	r24, 0x0398	; 0x800398 <mob_databytes+0x53>
	ERPM_1 = (mob_databytes[INV10_DATA][3] | (mob_databytes[INV10_DATA][2] << 8) | (mob_databytes[INV10_DATA][1] << 16) | (mob_databytes[INV10_DATA][0] << 24));
     6d0:	28 2f       	mov	r18, r24
     6d2:	30 e0       	ldi	r19, 0x00	; 0
     6d4:	80 91 97 03 	lds	r24, 0x0397	; 0x800397 <mob_databytes+0x52>
     6d8:	88 2f       	mov	r24, r24
     6da:	90 e0       	ldi	r25, 0x00	; 0
     6dc:	98 2f       	mov	r25, r24
     6de:	88 27       	eor	r24, r24
     6e0:	28 2b       	or	r18, r24
     6e2:	39 2b       	or	r19, r25
     6e4:	80 91 96 03 	lds	r24, 0x0396	; 0x800396 <mob_databytes+0x51>
     6e8:	88 2f       	mov	r24, r24
     6ea:	90 e0       	ldi	r25, 0x00	; 0
     6ec:	40 e1       	ldi	r20, 0x10	; 16
     6ee:	50 e0       	ldi	r21, 0x00	; 0
     6f0:	02 c0       	rjmp	.+4      	; 0x6f6 <can_put_data+0x298>
     6f2:	88 0f       	add	r24, r24
     6f4:	99 1f       	adc	r25, r25
     6f6:	4a 95       	dec	r20
     6f8:	e2 f7       	brpl	.-8      	; 0x6f2 <can_put_data+0x294>
     6fa:	28 2b       	or	r18, r24
     6fc:	39 2b       	or	r19, r25
     6fe:	80 91 95 03 	lds	r24, 0x0395	; 0x800395 <mob_databytes+0x50>
     702:	88 2f       	mov	r24, r24
     704:	90 e0       	ldi	r25, 0x00	; 0
     706:	48 e1       	ldi	r20, 0x18	; 24
     708:	50 e0       	ldi	r21, 0x00	; 0
     70a:	02 c0       	rjmp	.+4      	; 0x710 <can_put_data+0x2b2>
     70c:	88 0f       	add	r24, r24
     70e:	99 1f       	adc	r25, r25
     710:	4a 95       	dec	r20
     712:	e2 f7       	brpl	.-8      	; 0x70c <can_put_data+0x2ae>
     714:	82 2b       	or	r24, r18
     716:	93 2b       	or	r25, r19
     718:	09 2e       	mov	r0, r25
     71a:	00 0c       	add	r0, r0
     71c:	aa 0b       	sbc	r26, r26
     71e:	bb 0b       	sbc	r27, r27
     720:	80 93 e3 02 	sts	0x02E3, r24	; 0x8002e3 <ERPM_1>
     724:	90 93 e4 02 	sts	0x02E4, r25	; 0x8002e4 <ERPM_1+0x1>
     728:	a0 93 e5 02 	sts	0x02E5, r26	; 0x8002e5 <ERPM_1+0x2>
     72c:	b0 93 e6 02 	sts	0x02E6, r27	; 0x8002e6 <ERPM_1+0x3>
     730:	20 91 df 02 	lds	r18, 0x02DF	; 0x8002df <ERPM_0>
	
	RPM = (ERPM_0 + ERPM_1)/2;
     734:	30 91 e0 02 	lds	r19, 0x02E0	; 0x8002e0 <ERPM_0+0x1>
     738:	40 91 e1 02 	lds	r20, 0x02E1	; 0x8002e1 <ERPM_0+0x2>
     73c:	50 91 e2 02 	lds	r21, 0x02E2	; 0x8002e2 <ERPM_0+0x3>
     740:	80 91 e3 02 	lds	r24, 0x02E3	; 0x8002e3 <ERPM_1>
     744:	90 91 e4 02 	lds	r25, 0x02E4	; 0x8002e4 <ERPM_1+0x1>
     748:	a0 91 e5 02 	lds	r26, 0x02E5	; 0x8002e5 <ERPM_1+0x2>
     74c:	b0 91 e6 02 	lds	r27, 0x02E6	; 0x8002e6 <ERPM_1+0x3>
     750:	82 0f       	add	r24, r18
     752:	93 1f       	adc	r25, r19
     754:	a4 1f       	adc	r26, r20
     756:	b5 1f       	adc	r27, r21
     758:	b6 95       	lsr	r27
     75a:	a7 95       	ror	r26
     75c:	97 95       	ror	r25
     75e:	87 95       	ror	r24
     760:	90 93 ea 02 	sts	0x02EA, r25	; 0x8002ea <RPM+0x1>
     764:	80 93 e9 02 	sts	0x02E9, r24	; 0x8002e9 <RPM>
     768:	80 91 e9 02 	lds	r24, 0x02E9	; 0x8002e9 <RPM>
	LED_RPM = ((RPM/466.66) - 1);
     76c:	90 91 ea 02 	lds	r25, 0x02EA	; 0x8002ea <RPM+0x1>
     770:	cc 01       	movw	r24, r24
     772:	a0 e0       	ldi	r26, 0x00	; 0
     774:	b0 e0       	ldi	r27, 0x00	; 0
     776:	bc 01       	movw	r22, r24
     778:	cd 01       	movw	r24, r26
     77a:	0e 94 b2 1c 	call	0x3964	; 0x3964 <__floatunsisf>
     77e:	dc 01       	movw	r26, r24
     780:	cb 01       	movw	r24, r22
     782:	2b e7       	ldi	r18, 0x7B	; 123
     784:	34 e5       	ldi	r19, 0x54	; 84
     786:	49 ee       	ldi	r20, 0xE9	; 233
     788:	53 e4       	ldi	r21, 0x43	; 67
     78a:	bc 01       	movw	r22, r24
     78c:	cd 01       	movw	r24, r26
     78e:	0e 94 1e 1c 	call	0x383c	; 0x383c <__divsf3>
     792:	dc 01       	movw	r26, r24
     794:	cb 01       	movw	r24, r22
     796:	20 e0       	ldi	r18, 0x00	; 0
     798:	30 e0       	ldi	r19, 0x00	; 0
     79a:	40 e8       	ldi	r20, 0x80	; 128
     79c:	5f e3       	ldi	r21, 0x3F	; 63
     79e:	bc 01       	movw	r22, r24
     7a0:	cd 01       	movw	r24, r26
     7a2:	0e 94 b9 1b 	call	0x3772	; 0x3772 <__subsf3>
     7a6:	dc 01       	movw	r26, r24
     7a8:	cb 01       	movw	r24, r22
     7aa:	bc 01       	movw	r22, r24
     7ac:	cd 01       	movw	r24, r26
     7ae:	0e 94 86 1c 	call	0x390c	; 0x390c <__fixunssfsi>
     7b2:	dc 01       	movw	r26, r24
     7b4:	cb 01       	movw	r24, r22
     7b6:	80 93 eb 02 	sts	0x02EB, r24	; 0x8002eb <LED_RPM>
     7ba:	80 91 5e 03 	lds	r24, 0x035E	; 0x80035e <mob_databytes+0x19>
	//LED_RPM = 8;
	
	
	WHEELSPEED = (mob_databytes[SHL_DATA][1] | (mob_databytes[SHL_DATA][0] << 8));
     7be:	28 2f       	mov	r18, r24
     7c0:	30 e0       	ldi	r19, 0x00	; 0
     7c2:	80 91 5d 03 	lds	r24, 0x035D	; 0x80035d <mob_databytes+0x18>
     7c6:	88 2f       	mov	r24, r24
     7c8:	90 e0       	ldi	r25, 0x00	; 0
     7ca:	98 2f       	mov	r25, r24
     7cc:	88 27       	eor	r24, r24
     7ce:	82 2b       	or	r24, r18
     7d0:	93 2b       	or	r25, r19
     7d2:	90 93 e8 02 	sts	0x02E8, r25	; 0x8002e8 <WHEELSPEED+0x1>
     7d6:	80 93 e7 02 	sts	0x02E7, r24	; 0x8002e7 <WHEELSPEED>
     7da:	80 91 90 03 	lds	r24, 0x0390	; 0x800390 <mob_databytes+0x4b>
	
	
	
	
	motor_temp_1 = (mob_databytes[INV01_DATA][3] | (mob_databytes[INV01_DATA][2] << 8));
     7de:	28 2f       	mov	r18, r24
     7e0:	30 e0       	ldi	r19, 0x00	; 0
     7e2:	80 91 8f 03 	lds	r24, 0x038F	; 0x80038f <mob_databytes+0x4a>
     7e6:	88 2f       	mov	r24, r24
     7e8:	90 e0       	ldi	r25, 0x00	; 0
     7ea:	98 2f       	mov	r25, r24
     7ec:	88 27       	eor	r24, r24
     7ee:	82 2b       	or	r24, r18
     7f0:	93 2b       	or	r25, r19
     7f2:	90 93 f4 02 	sts	0x02F4, r25	; 0x8002f4 <motor_temp_1+0x1>
     7f6:	80 93 f3 02 	sts	0x02F3, r24	; 0x8002f3 <motor_temp_1>
     7fa:	80 91 a0 03 	lds	r24, 0x03A0	; 0x8003a0 <mob_databytes+0x5b>
	motor_temp_0 = (mob_databytes[INV11_DATA][3] | (mob_databytes[INV11_DATA][2] << 8));
     7fe:	28 2f       	mov	r18, r24
     800:	30 e0       	ldi	r19, 0x00	; 0
     802:	80 91 9f 03 	lds	r24, 0x039F	; 0x80039f <mob_databytes+0x5a>
     806:	88 2f       	mov	r24, r24
     808:	90 e0       	ldi	r25, 0x00	; 0
     80a:	98 2f       	mov	r25, r24
     80c:	88 27       	eor	r24, r24
     80e:	82 2b       	or	r24, r18
     810:	93 2b       	or	r25, r19
     812:	90 93 ef 02 	sts	0x02EF, r25	; 0x8002ef <motor_temp_0+0x1>
     816:	80 93 ee 02 	sts	0x02EE, r24	; 0x8002ee <motor_temp_0>
     81a:	20 91 f3 02 	lds	r18, 0x02F3	; 0x8002f3 <motor_temp_1>
	
	if (motor_temp_1>motor_temp_0)
     81e:	30 91 f4 02 	lds	r19, 0x02F4	; 0x8002f4 <motor_temp_1+0x1>
     822:	80 91 ee 02 	lds	r24, 0x02EE	; 0x8002ee <motor_temp_0>
     826:	90 91 ef 02 	lds	r25, 0x02EF	; 0x8002ef <motor_temp_0+0x1>
     82a:	82 17       	cp	r24, r18
     82c:	93 07       	cpc	r25, r19
     82e:	48 f4       	brcc	.+18     	; 0x842 <can_put_data+0x3e4>
     830:	80 91 f3 02 	lds	r24, 0x02F3	; 0x8002f3 <motor_temp_1>
	{
		motor_temp = motor_temp_1;
     834:	90 91 f4 02 	lds	r25, 0x02F4	; 0x8002f4 <motor_temp_1+0x1>
     838:	90 93 d2 02 	sts	0x02D2, r25	; 0x8002d2 <motor_temp+0x1>
     83c:	80 93 d1 02 	sts	0x02D1, r24	; 0x8002d1 <motor_temp>
     840:	08 c0       	rjmp	.+16     	; 0x852 <can_put_data+0x3f4>
     842:	80 91 ee 02 	lds	r24, 0x02EE	; 0x8002ee <motor_temp_0>
	} 
	else
	{
		motor_temp = motor_temp_0;
     846:	90 91 ef 02 	lds	r25, 0x02EF	; 0x8002ef <motor_temp_0+0x1>
     84a:	90 93 d2 02 	sts	0x02D2, r25	; 0x8002d2 <motor_temp+0x1>
     84e:	80 93 d1 02 	sts	0x02D1, r24	; 0x8002d1 <motor_temp>
     852:	80 91 8e 03 	lds	r24, 0x038E	; 0x80038e <mob_databytes+0x49>
	}
	
	mcu_temp_0 = (mob_databytes[INV01_DATA][1] | (mob_databytes[INV01_DATA][0] << 8));
     856:	28 2f       	mov	r18, r24
     858:	30 e0       	ldi	r19, 0x00	; 0
     85a:	80 91 8d 03 	lds	r24, 0x038D	; 0x80038d <mob_databytes+0x48>
     85e:	88 2f       	mov	r24, r24
     860:	90 e0       	ldi	r25, 0x00	; 0
     862:	98 2f       	mov	r25, r24
     864:	88 27       	eor	r24, r24
     866:	82 2b       	or	r24, r18
     868:	93 2b       	or	r25, r19
     86a:	90 93 ed 02 	sts	0x02ED, r25	; 0x8002ed <mcu_temp_0+0x1>
     86e:	80 93 ec 02 	sts	0x02EC, r24	; 0x8002ec <mcu_temp_0>
     872:	80 91 9e 03 	lds	r24, 0x039E	; 0x80039e <mob_databytes+0x59>
	mcu_temp_1 = (mob_databytes[INV11_DATA][1] | (mob_databytes[INV11_DATA][0] << 8));
     876:	28 2f       	mov	r18, r24
     878:	30 e0       	ldi	r19, 0x00	; 0
     87a:	80 91 9d 03 	lds	r24, 0x039D	; 0x80039d <mob_databytes+0x58>
     87e:	88 2f       	mov	r24, r24
     880:	90 e0       	ldi	r25, 0x00	; 0
     882:	98 2f       	mov	r25, r24
     884:	88 27       	eor	r24, r24
     886:	82 2b       	or	r24, r18
     888:	93 2b       	or	r25, r19
     88a:	90 93 f2 02 	sts	0x02F2, r25	; 0x8002f2 <mcu_temp_1+0x1>
     88e:	80 93 f1 02 	sts	0x02F1, r24	; 0x8002f1 <mcu_temp_1>
     892:	20 91 f1 02 	lds	r18, 0x02F1	; 0x8002f1 <mcu_temp_1>
	
	if (mcu_temp_1>mcu_temp_0)
     896:	30 91 f2 02 	lds	r19, 0x02F2	; 0x8002f2 <mcu_temp_1+0x1>
     89a:	80 91 ec 02 	lds	r24, 0x02EC	; 0x8002ec <mcu_temp_0>
     89e:	90 91 ed 02 	lds	r25, 0x02ED	; 0x8002ed <mcu_temp_0+0x1>
     8a2:	82 17       	cp	r24, r18
     8a4:	93 07       	cpc	r25, r19
     8a6:	48 f4       	brcc	.+18     	; 0x8ba <can_put_data+0x45c>
     8a8:	80 91 f1 02 	lds	r24, 0x02F1	; 0x8002f1 <mcu_temp_1>
	{
		mcu_temp = mcu_temp_1;
     8ac:	90 91 f2 02 	lds	r25, 0x02F2	; 0x8002f2 <mcu_temp_1+0x1>
     8b0:	90 93 d4 02 	sts	0x02D4, r25	; 0x8002d4 <mcu_temp+0x1>
     8b4:	80 93 d3 02 	sts	0x02D3, r24	; 0x8002d3 <mcu_temp>
     8b8:	08 c0       	rjmp	.+16     	; 0x8ca <can_put_data+0x46c>
     8ba:	80 91 ec 02 	lds	r24, 0x02EC	; 0x8002ec <mcu_temp_0>
	}
	else
	{
		mcu_temp = mcu_temp_0;
     8be:	90 91 ed 02 	lds	r25, 0x02ED	; 0x8002ed <mcu_temp_0+0x1>
     8c2:	90 93 d4 02 	sts	0x02D4, r25	; 0x8002d4 <mcu_temp+0x1>
     8c6:	80 93 d3 02 	sts	0x02D3, r24	; 0x8002d3 <mcu_temp>
     8ca:	80 91 d6 02 	lds	r24, 0x02D6	; 0x8002d6 <TS_ON>
	}
	mob_databytes[DIC_DATA][0] = TS_ON;
     8ce:	80 93 6d 03 	sts	0x036D, r24	; 0x80036d <mob_databytes+0x28>
     8d2:	80 91 d5 02 	lds	r24, 0x02D5	; 0x8002d5 <Ready_2_Drive>
	mob_databytes[DIC_DATA][1] = Ready_2_Drive;
     8d6:	80 93 6e 03 	sts	0x036E, r24	; 0x80036e <mob_databytes+0x29>
     8da:	80 91 d7 02 	lds	r24, 0x02D7	; 0x8002d7 <SDCIDIC>
	mob_databytes[DIC_DATA][2] = SDCIDIC;
     8de:	80 93 6f 03 	sts	0x036F, r24	; 0x80036f <mob_databytes+0x2a>
     8e2:	00 00       	nop
	
	
	
	
}
     8e4:	df 91       	pop	r29
     8e6:	cf 91       	pop	r28
     8e8:	08 95       	ret

000008ea <can_check_free>:
     8ea:	cf 93       	push	r28
     8ec:	df 93       	push	r29
     8ee:	00 d0       	rcall	.+0      	; 0x8f0 <can_check_free+0x6>
     8f0:	cd b7       	in	r28, 0x3d	; 61
     8f2:	de b7       	in	r29, 0x3e	; 62
     8f4:	8a 83       	std	Y+2, r24	; 0x02
     8f6:	19 82       	std	Y+1, r1	; 0x01
     8f8:	8a 81       	ldd	r24, Y+2	; 0x02
     8fa:	88 30       	cpi	r24, 0x08	; 8
     8fc:	c0 f0       	brcs	.+48     	; 0x92e <can_check_free+0x44>
     8fe:	8d ed       	ldi	r24, 0xDD	; 221
     900:	90 e0       	ldi	r25, 0x00	; 0
     902:	fc 01       	movw	r30, r24
     904:	80 81       	ld	r24, Z
     906:	88 2f       	mov	r24, r24
     908:	90 e0       	ldi	r25, 0x00	; 0
     90a:	2a 81       	ldd	r18, Y+2	; 0x02
     90c:	22 2f       	mov	r18, r18
     90e:	30 e0       	ldi	r19, 0x00	; 0
     910:	28 50       	subi	r18, 0x08	; 8
     912:	31 09       	sbc	r19, r1
     914:	02 c0       	rjmp	.+4      	; 0x91a <can_check_free+0x30>
     916:	95 95       	asr	r25
     918:	87 95       	ror	r24
     91a:	2a 95       	dec	r18
     91c:	e2 f7       	brpl	.-8      	; 0x916 <can_check_free+0x2c>
     91e:	81 70       	andi	r24, 0x01	; 1
     920:	99 27       	eor	r25, r25
     922:	21 e0       	ldi	r18, 0x01	; 1
     924:	89 2b       	or	r24, r25
     926:	09 f0       	breq	.+2      	; 0x92a <can_check_free+0x40>
     928:	20 e0       	ldi	r18, 0x00	; 0
     92a:	29 83       	std	Y+1, r18	; 0x01
     92c:	15 c0       	rjmp	.+42     	; 0x958 <can_check_free+0x6e>
     92e:	8c ed       	ldi	r24, 0xDC	; 220
     930:	90 e0       	ldi	r25, 0x00	; 0
     932:	fc 01       	movw	r30, r24
     934:	80 81       	ld	r24, Z
     936:	88 2f       	mov	r24, r24
     938:	90 e0       	ldi	r25, 0x00	; 0
     93a:	2a 81       	ldd	r18, Y+2	; 0x02
     93c:	22 2f       	mov	r18, r18
     93e:	30 e0       	ldi	r19, 0x00	; 0
     940:	02 c0       	rjmp	.+4      	; 0x946 <can_check_free+0x5c>
     942:	95 95       	asr	r25
     944:	87 95       	ror	r24
     946:	2a 95       	dec	r18
     948:	e2 f7       	brpl	.-8      	; 0x942 <can_check_free+0x58>
     94a:	81 70       	andi	r24, 0x01	; 1
     94c:	99 27       	eor	r25, r25
     94e:	21 e0       	ldi	r18, 0x01	; 1
     950:	89 2b       	or	r24, r25
     952:	09 f0       	breq	.+2      	; 0x956 <can_check_free+0x6c>
     954:	20 e0       	ldi	r18, 0x00	; 0
     956:	29 83       	std	Y+1, r18	; 0x01
     958:	89 81       	ldd	r24, Y+1	; 0x01
     95a:	0f 90       	pop	r0
     95c:	0f 90       	pop	r0
     95e:	df 91       	pop	r29
     960:	cf 91       	pop	r28
     962:	08 95       	ret

00000964 <can_cfg>:
     964:	cf 93       	push	r28
     966:	df 93       	push	r29
     968:	00 d0       	rcall	.+0      	; 0x96a <can_cfg+0x6>
     96a:	cd b7       	in	r28, 0x3d	; 61
     96c:	de b7       	in	r29, 0x3e	; 62
     96e:	88 ed       	ldi	r24, 0xD8	; 216
     970:	90 e0       	ldi	r25, 0x00	; 0
     972:	fc 01       	movw	r30, r24
     974:	10 82       	st	Z, r1
     976:	19 82       	std	Y+1, r1	; 0x01
     978:	56 c0       	rjmp	.+172    	; 0xa26 <can_cfg+0xc2>
     97a:	8d ee       	ldi	r24, 0xED	; 237
     97c:	90 e0       	ldi	r25, 0x00	; 0
     97e:	29 81       	ldd	r18, Y+1	; 0x01
     980:	22 2f       	mov	r18, r18
     982:	30 e0       	ldi	r19, 0x00	; 0
     984:	22 95       	swap	r18
     986:	32 95       	swap	r19
     988:	30 7f       	andi	r19, 0xF0	; 240
     98a:	32 27       	eor	r19, r18
     98c:	20 7f       	andi	r18, 0xF0	; 240
     98e:	32 27       	eor	r19, r18
     990:	28 60       	ori	r18, 0x08	; 8
     992:	fc 01       	movw	r30, r24
     994:	20 83       	st	Z, r18
     996:	8e ee       	ldi	r24, 0xEE	; 238
     998:	90 e0       	ldi	r25, 0x00	; 0
     99a:	fc 01       	movw	r30, r24
     99c:	10 82       	st	Z, r1
     99e:	8f ee       	ldi	r24, 0xEF	; 239
     9a0:	90 e0       	ldi	r25, 0x00	; 0
     9a2:	fc 01       	movw	r30, r24
     9a4:	10 82       	st	Z, r1
     9a6:	80 ef       	ldi	r24, 0xF0	; 240
     9a8:	90 e0       	ldi	r25, 0x00	; 0
     9aa:	fc 01       	movw	r30, r24
     9ac:	10 82       	st	Z, r1
     9ae:	81 ef       	ldi	r24, 0xF1	; 241
     9b0:	90 e0       	ldi	r25, 0x00	; 0
     9b2:	fc 01       	movw	r30, r24
     9b4:	10 82       	st	Z, r1
     9b6:	82 ef       	ldi	r24, 0xF2	; 242
     9b8:	90 e0       	ldi	r25, 0x00	; 0
     9ba:	fc 01       	movw	r30, r24
     9bc:	10 82       	st	Z, r1
     9be:	83 ef       	ldi	r24, 0xF3	; 243
     9c0:	90 e0       	ldi	r25, 0x00	; 0
     9c2:	fc 01       	movw	r30, r24
     9c4:	10 82       	st	Z, r1
     9c6:	84 ef       	ldi	r24, 0xF4	; 244
     9c8:	90 e0       	ldi	r25, 0x00	; 0
     9ca:	fc 01       	movw	r30, r24
     9cc:	10 82       	st	Z, r1
     9ce:	85 ef       	ldi	r24, 0xF5	; 245
     9d0:	90 e0       	ldi	r25, 0x00	; 0
     9d2:	fc 01       	movw	r30, r24
     9d4:	10 82       	st	Z, r1
     9d6:	86 ef       	ldi	r24, 0xF6	; 246
     9d8:	90 e0       	ldi	r25, 0x00	; 0
     9da:	fc 01       	movw	r30, r24
     9dc:	10 82       	st	Z, r1
     9de:	87 ef       	ldi	r24, 0xF7	; 247
     9e0:	90 e0       	ldi	r25, 0x00	; 0
     9e2:	fc 01       	movw	r30, r24
     9e4:	10 82       	st	Z, r1
     9e6:	1a 82       	std	Y+2, r1	; 0x02
     9e8:	18 c0       	rjmp	.+48     	; 0xa1a <can_cfg+0xb6>
     9ea:	8d ee       	ldi	r24, 0xED	; 237
     9ec:	90 e0       	ldi	r25, 0x00	; 0
     9ee:	29 81       	ldd	r18, Y+1	; 0x01
     9f0:	22 2f       	mov	r18, r18
     9f2:	30 e0       	ldi	r19, 0x00	; 0
     9f4:	22 95       	swap	r18
     9f6:	32 95       	swap	r19
     9f8:	30 7f       	andi	r19, 0xF0	; 240
     9fa:	32 27       	eor	r19, r18
     9fc:	20 7f       	andi	r18, 0xF0	; 240
     9fe:	32 27       	eor	r19, r18
     a00:	32 2f       	mov	r19, r18
     a02:	2a 81       	ldd	r18, Y+2	; 0x02
     a04:	23 2b       	or	r18, r19
     a06:	28 60       	ori	r18, 0x08	; 8
     a08:	fc 01       	movw	r30, r24
     a0a:	20 83       	st	Z, r18
     a0c:	8a ef       	ldi	r24, 0xFA	; 250
     a0e:	90 e0       	ldi	r25, 0x00	; 0
     a10:	fc 01       	movw	r30, r24
     a12:	10 82       	st	Z, r1
     a14:	8a 81       	ldd	r24, Y+2	; 0x02
     a16:	8f 5f       	subi	r24, 0xFF	; 255
     a18:	8a 83       	std	Y+2, r24	; 0x02
     a1a:	8a 81       	ldd	r24, Y+2	; 0x02
     a1c:	88 30       	cpi	r24, 0x08	; 8
     a1e:	28 f3       	brcs	.-54     	; 0x9ea <can_cfg+0x86>
     a20:	89 81       	ldd	r24, Y+1	; 0x01
     a22:	8f 5f       	subi	r24, 0xFF	; 255
     a24:	89 83       	std	Y+1, r24	; 0x01
     a26:	89 81       	ldd	r24, Y+1	; 0x01
     a28:	8f 30       	cpi	r24, 0x0F	; 15
     a2a:	08 f4       	brcc	.+2      	; 0xa2e <can_cfg+0xca>
     a2c:	a6 cf       	rjmp	.-180    	; 0x97a <can_cfg+0x16>
     a2e:	82 ee       	ldi	r24, 0xE2	; 226
     a30:	90 e0       	ldi	r25, 0x00	; 0
     a32:	22 e0       	ldi	r18, 0x02	; 2
     a34:	fc 01       	movw	r30, r24
     a36:	20 83       	st	Z, r18
     a38:	83 ee       	ldi	r24, 0xE3	; 227
     a3a:	90 e0       	ldi	r25, 0x00	; 0
     a3c:	2c e0       	ldi	r18, 0x0C	; 12
     a3e:	fc 01       	movw	r30, r24
     a40:	20 83       	st	Z, r18
     a42:	84 ee       	ldi	r24, 0xE4	; 228
     a44:	90 e0       	ldi	r25, 0x00	; 0
     a46:	27 e3       	ldi	r18, 0x37	; 55
     a48:	fc 01       	movw	r30, r24
     a4a:	20 83       	st	Z, r18
     a4c:	8b ed       	ldi	r24, 0xDB	; 219
     a4e:	90 e0       	ldi	r25, 0x00	; 0
     a50:	fc 01       	movw	r30, r24
     a52:	10 82       	st	Z, r1
     a54:	88 ed       	ldi	r24, 0xD8	; 216
     a56:	90 e0       	ldi	r25, 0x00	; 0
     a58:	28 ed       	ldi	r18, 0xD8	; 216
     a5a:	30 e0       	ldi	r19, 0x00	; 0
     a5c:	f9 01       	movw	r30, r18
     a5e:	20 81       	ld	r18, Z
     a60:	22 60       	ori	r18, 0x02	; 2
     a62:	fc 01       	movw	r30, r24
     a64:	20 83       	st	Z, r18
     a66:	00 00       	nop
     a68:	0f 90       	pop	r0
     a6a:	0f 90       	pop	r0
     a6c:	df 91       	pop	r29
     a6e:	cf 91       	pop	r28
     a70:	08 95       	ret

00000a72 <can_rx>:
     a72:	cf 93       	push	r28
     a74:	df 93       	push	r29
     a76:	00 d0       	rcall	.+0      	; 0xa78 <can_rx+0x6>
     a78:	00 d0       	rcall	.+0      	; 0xa7a <can_rx+0x8>
     a7a:	1f 92       	push	r1
     a7c:	cd b7       	in	r28, 0x3d	; 61
     a7e:	de b7       	in	r29, 0x3e	; 62
     a80:	9b 83       	std	Y+3, r25	; 0x03
     a82:	8a 83       	std	Y+2, r24	; 0x02
     a84:	7d 83       	std	Y+5, r23	; 0x05
     a86:	6c 83       	std	Y+4, r22	; 0x04
     a88:	8d ee       	ldi	r24, 0xED	; 237
     a8a:	90 e0       	ldi	r25, 0x00	; 0
     a8c:	2a 81       	ldd	r18, Y+2	; 0x02
     a8e:	3b 81       	ldd	r19, Y+3	; 0x03
     a90:	f9 01       	movw	r30, r18
     a92:	24 81       	ldd	r18, Z+4	; 0x04
     a94:	35 81       	ldd	r19, Z+5	; 0x05
     a96:	22 95       	swap	r18
     a98:	20 7f       	andi	r18, 0xF0	; 240
     a9a:	fc 01       	movw	r30, r24
     a9c:	20 83       	st	Z, r18
     a9e:	8a 81       	ldd	r24, Y+2	; 0x02
     aa0:	9b 81       	ldd	r25, Y+3	; 0x03
     aa2:	fc 01       	movw	r30, r24
     aa4:	84 81       	ldd	r24, Z+4	; 0x04
     aa6:	95 81       	ldd	r25, Z+5	; 0x05
     aa8:	20 df       	rcall	.-448    	; 0x8ea <can_check_free>
     aaa:	88 23       	and	r24, r24
     aac:	09 f4       	brne	.+2      	; 0xab0 <can_rx+0x3e>
     aae:	50 c0       	rjmp	.+160    	; 0xb50 <can_rx+0xde>
     ab0:	83 ef       	ldi	r24, 0xF3	; 243
     ab2:	90 e0       	ldi	r25, 0x00	; 0
     ab4:	2a 81       	ldd	r18, Y+2	; 0x02
     ab6:	3b 81       	ldd	r19, Y+3	; 0x03
     ab8:	f9 01       	movw	r30, r18
     aba:	20 81       	ld	r18, Z
     abc:	31 81       	ldd	r19, Z+1	; 0x01
     abe:	36 95       	lsr	r19
     ac0:	27 95       	ror	r18
     ac2:	36 95       	lsr	r19
     ac4:	27 95       	ror	r18
     ac6:	36 95       	lsr	r19
     ac8:	27 95       	ror	r18
     aca:	fc 01       	movw	r30, r24
     acc:	20 83       	st	Z, r18
     ace:	82 ef       	ldi	r24, 0xF2	; 242
     ad0:	90 e0       	ldi	r25, 0x00	; 0
     ad2:	2a 81       	ldd	r18, Y+2	; 0x02
     ad4:	3b 81       	ldd	r19, Y+3	; 0x03
     ad6:	f9 01       	movw	r30, r18
     ad8:	20 81       	ld	r18, Z
     ada:	31 81       	ldd	r19, Z+1	; 0x01
     adc:	22 95       	swap	r18
     ade:	22 0f       	add	r18, r18
     ae0:	20 7e       	andi	r18, 0xE0	; 224
     ae2:	fc 01       	movw	r30, r24
     ae4:	20 83       	st	Z, r18
     ae6:	81 ef       	ldi	r24, 0xF1	; 241
     ae8:	90 e0       	ldi	r25, 0x00	; 0
     aea:	fc 01       	movw	r30, r24
     aec:	10 82       	st	Z, r1
     aee:	80 ef       	ldi	r24, 0xF0	; 240
     af0:	90 e0       	ldi	r25, 0x00	; 0
     af2:	24 e0       	ldi	r18, 0x04	; 4
     af4:	fc 01       	movw	r30, r24
     af6:	20 83       	st	Z, r18
     af8:	87 ef       	ldi	r24, 0xF7	; 247
     afa:	90 e0       	ldi	r25, 0x00	; 0
     afc:	2a 81       	ldd	r18, Y+2	; 0x02
     afe:	3b 81       	ldd	r19, Y+3	; 0x03
     b00:	f9 01       	movw	r30, r18
     b02:	22 81       	ldd	r18, Z+2	; 0x02
     b04:	33 81       	ldd	r19, Z+3	; 0x03
     b06:	36 95       	lsr	r19
     b08:	27 95       	ror	r18
     b0a:	36 95       	lsr	r19
     b0c:	27 95       	ror	r18
     b0e:	36 95       	lsr	r19
     b10:	27 95       	ror	r18
     b12:	fc 01       	movw	r30, r24
     b14:	20 83       	st	Z, r18
     b16:	86 ef       	ldi	r24, 0xF6	; 246
     b18:	90 e0       	ldi	r25, 0x00	; 0
     b1a:	2a 81       	ldd	r18, Y+2	; 0x02
     b1c:	3b 81       	ldd	r19, Y+3	; 0x03
     b1e:	f9 01       	movw	r30, r18
     b20:	22 81       	ldd	r18, Z+2	; 0x02
     b22:	33 81       	ldd	r19, Z+3	; 0x03
     b24:	22 95       	swap	r18
     b26:	22 0f       	add	r18, r18
     b28:	20 7e       	andi	r18, 0xE0	; 224
     b2a:	fc 01       	movw	r30, r24
     b2c:	20 83       	st	Z, r18
     b2e:	85 ef       	ldi	r24, 0xF5	; 245
     b30:	90 e0       	ldi	r25, 0x00	; 0
     b32:	fc 01       	movw	r30, r24
     b34:	10 82       	st	Z, r1
     b36:	84 ef       	ldi	r24, 0xF4	; 244
     b38:	90 e0       	ldi	r25, 0x00	; 0
     b3a:	fc 01       	movw	r30, r24
     b3c:	10 82       	st	Z, r1
     b3e:	8f ee       	ldi	r24, 0xEF	; 239
     b40:	90 e0       	ldi	r25, 0x00	; 0
     b42:	28 ec       	ldi	r18, 0xC8	; 200
     b44:	fc 01       	movw	r30, r24
     b46:	20 83       	st	Z, r18
     b48:	8e ee       	ldi	r24, 0xEE	; 238
     b4a:	90 e0       	ldi	r25, 0x00	; 0
     b4c:	fc 01       	movw	r30, r24
     b4e:	10 82       	st	Z, r1
     b50:	19 82       	std	Y+1, r1	; 0x01
     b52:	1f c0       	rjmp	.+62     	; 0xb92 <can_rx+0x120>
     b54:	8d ee       	ldi	r24, 0xED	; 237
     b56:	90 e0       	ldi	r25, 0x00	; 0
     b58:	2a 81       	ldd	r18, Y+2	; 0x02
     b5a:	3b 81       	ldd	r19, Y+3	; 0x03
     b5c:	f9 01       	movw	r30, r18
     b5e:	24 81       	ldd	r18, Z+4	; 0x04
     b60:	35 81       	ldd	r19, Z+5	; 0x05
     b62:	32 2f       	mov	r19, r18
     b64:	32 95       	swap	r19
     b66:	30 7f       	andi	r19, 0xF0	; 240
     b68:	29 81       	ldd	r18, Y+1	; 0x01
     b6a:	23 2b       	or	r18, r19
     b6c:	28 60       	ori	r18, 0x08	; 8
     b6e:	fc 01       	movw	r30, r24
     b70:	20 83       	st	Z, r18
     b72:	89 81       	ldd	r24, Y+1	; 0x01
     b74:	88 2f       	mov	r24, r24
     b76:	90 e0       	ldi	r25, 0x00	; 0
     b78:	2c 81       	ldd	r18, Y+4	; 0x04
     b7a:	3d 81       	ldd	r19, Y+5	; 0x05
     b7c:	82 0f       	add	r24, r18
     b7e:	93 1f       	adc	r25, r19
     b80:	2a ef       	ldi	r18, 0xFA	; 250
     b82:	30 e0       	ldi	r19, 0x00	; 0
     b84:	f9 01       	movw	r30, r18
     b86:	20 81       	ld	r18, Z
     b88:	fc 01       	movw	r30, r24
     b8a:	20 83       	st	Z, r18
     b8c:	89 81       	ldd	r24, Y+1	; 0x01
     b8e:	8f 5f       	subi	r24, 0xFF	; 255
     b90:	89 83       	std	Y+1, r24	; 0x01
     b92:	89 81       	ldd	r24, Y+1	; 0x01
     b94:	88 30       	cpi	r24, 0x08	; 8
     b96:	f0 f2       	brcs	.-68     	; 0xb54 <can_rx+0xe2>
     b98:	00 00       	nop
     b9a:	0f 90       	pop	r0
     b9c:	0f 90       	pop	r0
     b9e:	0f 90       	pop	r0
     ba0:	0f 90       	pop	r0
     ba2:	0f 90       	pop	r0
     ba4:	df 91       	pop	r29
     ba6:	cf 91       	pop	r28
     ba8:	08 95       	ret

00000baa <can_tx>:
     baa:	cf 93       	push	r28
     bac:	df 93       	push	r29
     bae:	00 d0       	rcall	.+0      	; 0xbb0 <can_tx+0x6>
     bb0:	00 d0       	rcall	.+0      	; 0xbb2 <can_tx+0x8>
     bb2:	1f 92       	push	r1
     bb4:	cd b7       	in	r28, 0x3d	; 61
     bb6:	de b7       	in	r29, 0x3e	; 62
     bb8:	9b 83       	std	Y+3, r25	; 0x03
     bba:	8a 83       	std	Y+2, r24	; 0x02
     bbc:	7d 83       	std	Y+5, r23	; 0x05
     bbe:	6c 83       	std	Y+4, r22	; 0x04
     bc0:	19 82       	std	Y+1, r1	; 0x01
     bc2:	1f c0       	rjmp	.+62     	; 0xc02 <can_tx+0x58>
     bc4:	8d ee       	ldi	r24, 0xED	; 237
     bc6:	90 e0       	ldi	r25, 0x00	; 0
     bc8:	2a 81       	ldd	r18, Y+2	; 0x02
     bca:	3b 81       	ldd	r19, Y+3	; 0x03
     bcc:	f9 01       	movw	r30, r18
     bce:	24 81       	ldd	r18, Z+4	; 0x04
     bd0:	35 81       	ldd	r19, Z+5	; 0x05
     bd2:	32 2f       	mov	r19, r18
     bd4:	32 95       	swap	r19
     bd6:	30 7f       	andi	r19, 0xF0	; 240
     bd8:	29 81       	ldd	r18, Y+1	; 0x01
     bda:	23 2b       	or	r18, r19
     bdc:	28 60       	ori	r18, 0x08	; 8
     bde:	fc 01       	movw	r30, r24
     be0:	20 83       	st	Z, r18
     be2:	8a ef       	ldi	r24, 0xFA	; 250
     be4:	90 e0       	ldi	r25, 0x00	; 0
     be6:	29 81       	ldd	r18, Y+1	; 0x01
     be8:	22 2f       	mov	r18, r18
     bea:	30 e0       	ldi	r19, 0x00	; 0
     bec:	4c 81       	ldd	r20, Y+4	; 0x04
     bee:	5d 81       	ldd	r21, Y+5	; 0x05
     bf0:	24 0f       	add	r18, r20
     bf2:	35 1f       	adc	r19, r21
     bf4:	f9 01       	movw	r30, r18
     bf6:	20 81       	ld	r18, Z
     bf8:	fc 01       	movw	r30, r24
     bfa:	20 83       	st	Z, r18
     bfc:	89 81       	ldd	r24, Y+1	; 0x01
     bfe:	8f 5f       	subi	r24, 0xFF	; 255
     c00:	89 83       	std	Y+1, r24	; 0x01
     c02:	89 81       	ldd	r24, Y+1	; 0x01
     c04:	88 30       	cpi	r24, 0x08	; 8
     c06:	f0 f2       	brcs	.-68     	; 0xbc4 <can_tx+0x1a>
     c08:	8d ee       	ldi	r24, 0xED	; 237
     c0a:	90 e0       	ldi	r25, 0x00	; 0
     c0c:	2a 81       	ldd	r18, Y+2	; 0x02
     c0e:	3b 81       	ldd	r19, Y+3	; 0x03
     c10:	f9 01       	movw	r30, r18
     c12:	24 81       	ldd	r18, Z+4	; 0x04
     c14:	35 81       	ldd	r19, Z+5	; 0x05
     c16:	22 95       	swap	r18
     c18:	20 7f       	andi	r18, 0xF0	; 240
     c1a:	fc 01       	movw	r30, r24
     c1c:	20 83       	st	Z, r18
     c1e:	8a 81       	ldd	r24, Y+2	; 0x02
     c20:	9b 81       	ldd	r25, Y+3	; 0x03
     c22:	fc 01       	movw	r30, r24
     c24:	84 81       	ldd	r24, Z+4	; 0x04
     c26:	95 81       	ldd	r25, Z+5	; 0x05
     c28:	60 de       	rcall	.-832    	; 0x8ea <can_check_free>
     c2a:	88 23       	and	r24, r24
     c2c:	09 f4       	brne	.+2      	; 0xc30 <can_tx+0x86>
     c2e:	44 c0       	rjmp	.+136    	; 0xcb8 <can_tx+0x10e>
     c30:	8e ee       	ldi	r24, 0xEE	; 238
     c32:	90 e0       	ldi	r25, 0x00	; 0
     c34:	fc 01       	movw	r30, r24
     c36:	10 82       	st	Z, r1
     c38:	83 ef       	ldi	r24, 0xF3	; 243
     c3a:	90 e0       	ldi	r25, 0x00	; 0
     c3c:	2a 81       	ldd	r18, Y+2	; 0x02
     c3e:	3b 81       	ldd	r19, Y+3	; 0x03
     c40:	f9 01       	movw	r30, r18
     c42:	20 81       	ld	r18, Z
     c44:	31 81       	ldd	r19, Z+1	; 0x01
     c46:	36 95       	lsr	r19
     c48:	27 95       	ror	r18
     c4a:	36 95       	lsr	r19
     c4c:	27 95       	ror	r18
     c4e:	36 95       	lsr	r19
     c50:	27 95       	ror	r18
     c52:	fc 01       	movw	r30, r24
     c54:	20 83       	st	Z, r18
     c56:	82 ef       	ldi	r24, 0xF2	; 242
     c58:	90 e0       	ldi	r25, 0x00	; 0
     c5a:	2a 81       	ldd	r18, Y+2	; 0x02
     c5c:	3b 81       	ldd	r19, Y+3	; 0x03
     c5e:	f9 01       	movw	r30, r18
     c60:	20 81       	ld	r18, Z
     c62:	31 81       	ldd	r19, Z+1	; 0x01
     c64:	22 95       	swap	r18
     c66:	22 0f       	add	r18, r18
     c68:	20 7e       	andi	r18, 0xE0	; 224
     c6a:	fc 01       	movw	r30, r24
     c6c:	20 83       	st	Z, r18
     c6e:	81 ef       	ldi	r24, 0xF1	; 241
     c70:	90 e0       	ldi	r25, 0x00	; 0
     c72:	fc 01       	movw	r30, r24
     c74:	10 82       	st	Z, r1
     c76:	80 ef       	ldi	r24, 0xF0	; 240
     c78:	90 e0       	ldi	r25, 0x00	; 0
     c7a:	fc 01       	movw	r30, r24
     c7c:	10 82       	st	Z, r1
     c7e:	87 ef       	ldi	r24, 0xF7	; 247
     c80:	90 e0       	ldi	r25, 0x00	; 0
     c82:	fc 01       	movw	r30, r24
     c84:	10 82       	st	Z, r1
     c86:	86 ef       	ldi	r24, 0xF6	; 246
     c88:	90 e0       	ldi	r25, 0x00	; 0
     c8a:	fc 01       	movw	r30, r24
     c8c:	10 82       	st	Z, r1
     c8e:	85 ef       	ldi	r24, 0xF5	; 245
     c90:	90 e0       	ldi	r25, 0x00	; 0
     c92:	fc 01       	movw	r30, r24
     c94:	10 82       	st	Z, r1
     c96:	84 ef       	ldi	r24, 0xF4	; 244
     c98:	90 e0       	ldi	r25, 0x00	; 0
     c9a:	fc 01       	movw	r30, r24
     c9c:	10 82       	st	Z, r1
     c9e:	8e ee       	ldi	r24, 0xEE	; 238
     ca0:	90 e0       	ldi	r25, 0x00	; 0
     ca2:	fc 01       	movw	r30, r24
     ca4:	10 82       	st	Z, r1
     ca6:	8f ee       	ldi	r24, 0xEF	; 239
     ca8:	90 e0       	ldi	r25, 0x00	; 0
     caa:	28 e4       	ldi	r18, 0x48	; 72
     cac:	fc 01       	movw	r30, r24
     cae:	20 83       	st	Z, r18
     cb0:	8e ee       	ldi	r24, 0xEE	; 238
     cb2:	90 e0       	ldi	r25, 0x00	; 0
     cb4:	fc 01       	movw	r30, r24
     cb6:	10 82       	st	Z, r1
     cb8:	00 00       	nop
     cba:	0f 90       	pop	r0
     cbc:	0f 90       	pop	r0
     cbe:	0f 90       	pop	r0
     cc0:	0f 90       	pop	r0
     cc2:	0f 90       	pop	r0
     cc4:	df 91       	pop	r29
     cc6:	cf 91       	pop	r28
     cc8:	08 95       	ret

00000cca <draw_char>:
	0x94, //row 2
	0xD4, //row 3
	0x80, //row 1
};

void draw_char(struct DISPLAY_PAGE *display,struct DISPLAY_STATE *display_state){
     cca:	cf 93       	push	r28
     ccc:	df 93       	push	r29
     cce:	00 d0       	rcall	.+0      	; 0xcd0 <draw_char+0x6>
     cd0:	00 d0       	rcall	.+0      	; 0xcd2 <draw_char+0x8>
     cd2:	cd b7       	in	r28, 0x3d	; 61
     cd4:	de b7       	in	r29, 0x3e	; 62
     cd6:	9a 83       	std	Y+2, r25	; 0x02
     cd8:	89 83       	std	Y+1, r24	; 0x01
     cda:	7c 83       	std	Y+4, r23	; 0x04
     cdc:	6b 83       	std	Y+3, r22	; 0x03
	
	if (display_state->column == 20){
     cde:	8b 81       	ldd	r24, Y+3	; 0x03
     ce0:	9c 81       	ldd	r25, Y+4	; 0x04
     ce2:	fc 01       	movw	r30, r24
     ce4:	81 81       	ldd	r24, Z+1	; 0x01
     ce6:	84 31       	cpi	r24, 0x14	; 20
     ce8:	d1 f4       	brne	.+52     	; 0xd1e <draw_char+0x54>
		display_write_data(dsp_row[display_state->row],0);
     cea:	8b 81       	ldd	r24, Y+3	; 0x03
     cec:	9c 81       	ldd	r25, Y+4	; 0x04
     cee:	fc 01       	movw	r30, r24
     cf0:	80 81       	ld	r24, Z
     cf2:	88 2f       	mov	r24, r24
     cf4:	90 e0       	ldi	r25, 0x00	; 0
     cf6:	89 5f       	subi	r24, 0xF9	; 249
     cf8:	9e 4f       	sbci	r25, 0xFE	; 254
     cfa:	fc 01       	movw	r30, r24
     cfc:	80 81       	ld	r24, Z
     cfe:	60 e0       	ldi	r22, 0x00	; 0
     d00:	aa d0       	rcall	.+340    	; 0xe56 <display_write_data>
		display_state->column = 0;
     d02:	8b 81       	ldd	r24, Y+3	; 0x03
     d04:	9c 81       	ldd	r25, Y+4	; 0x04
     d06:	fc 01       	movw	r30, r24
     d08:	11 82       	std	Z+1, r1	; 0x01
		display_state->row += 1;
     d0a:	8b 81       	ldd	r24, Y+3	; 0x03
     d0c:	9c 81       	ldd	r25, Y+4	; 0x04
     d0e:	fc 01       	movw	r30, r24
     d10:	80 81       	ld	r24, Z
     d12:	21 e0       	ldi	r18, 0x01	; 1
     d14:	28 0f       	add	r18, r24
     d16:	8b 81       	ldd	r24, Y+3	; 0x03
     d18:	9c 81       	ldd	r25, Y+4	; 0x04
     d1a:	fc 01       	movw	r30, r24
     d1c:	20 83       	st	Z, r18
	}
	if (display_state->row == 4){
     d1e:	8b 81       	ldd	r24, Y+3	; 0x03
     d20:	9c 81       	ldd	r25, Y+4	; 0x04
     d22:	fc 01       	movw	r30, r24
     d24:	80 81       	ld	r24, Z
     d26:	84 30       	cpi	r24, 0x04	; 4
     d28:	21 f4       	brne	.+8      	; 0xd32 <draw_char+0x68>
		display_state->row = 0;
     d2a:	8b 81       	ldd	r24, Y+3	; 0x03
     d2c:	9c 81       	ldd	r25, Y+4	; 0x04
     d2e:	fc 01       	movw	r30, r24
     d30:	10 82       	st	Z, r1
	}
	display_write_data(display->data[display_state->row][display_state->column],1);
     d32:	8b 81       	ldd	r24, Y+3	; 0x03
     d34:	9c 81       	ldd	r25, Y+4	; 0x04
     d36:	fc 01       	movw	r30, r24
     d38:	80 81       	ld	r24, Z
     d3a:	68 2f       	mov	r22, r24
     d3c:	70 e0       	ldi	r23, 0x00	; 0
     d3e:	8b 81       	ldd	r24, Y+3	; 0x03
     d40:	9c 81       	ldd	r25, Y+4	; 0x04
     d42:	fc 01       	movw	r30, r24
     d44:	81 81       	ldd	r24, Z+1	; 0x01
     d46:	88 2f       	mov	r24, r24
     d48:	90 e0       	ldi	r25, 0x00	; 0
     d4a:	49 81       	ldd	r20, Y+1	; 0x01
     d4c:	5a 81       	ldd	r21, Y+2	; 0x02
     d4e:	e4 e1       	ldi	r30, 0x14	; 20
     d50:	e6 9f       	mul	r30, r22
     d52:	90 01       	movw	r18, r0
     d54:	e7 9f       	mul	r30, r23
     d56:	30 0d       	add	r19, r0
     d58:	11 24       	eor	r1, r1
     d5a:	24 0f       	add	r18, r20
     d5c:	35 1f       	adc	r19, r21
     d5e:	82 0f       	add	r24, r18
     d60:	93 1f       	adc	r25, r19
     d62:	fc 01       	movw	r30, r24
     d64:	80 81       	ld	r24, Z
     d66:	61 e0       	ldi	r22, 0x01	; 1
     d68:	76 d0       	rcall	.+236    	; 0xe56 <display_write_data>
	display_state->column++;
     d6a:	8b 81       	ldd	r24, Y+3	; 0x03
     d6c:	9c 81       	ldd	r25, Y+4	; 0x04
     d6e:	fc 01       	movw	r30, r24
     d70:	81 81       	ldd	r24, Z+1	; 0x01
     d72:	21 e0       	ldi	r18, 0x01	; 1
     d74:	28 0f       	add	r18, r24
     d76:	8b 81       	ldd	r24, Y+3	; 0x03
     d78:	9c 81       	ldd	r25, Y+4	; 0x04
     d7a:	fc 01       	movw	r30, r24
     d7c:	21 83       	std	Z+1, r18	; 0x01
}
     d7e:	00 00       	nop
     d80:	0f 90       	pop	r0
     d82:	0f 90       	pop	r0
     d84:	0f 90       	pop	r0
     d86:	0f 90       	pop	r0
     d88:	df 91       	pop	r29
     d8a:	cf 91       	pop	r28
     d8c:	08 95       	ret

00000d8e <get_empty_state>:
struct DISPLAY_STATE get_empty_state(){
     d8e:	cf 93       	push	r28
     d90:	df 93       	push	r29
     d92:	00 d0       	rcall	.+0      	; 0xd94 <get_empty_state+0x6>
     d94:	cd b7       	in	r28, 0x3d	; 61
     d96:	de b7       	in	r29, 0x3e	; 62
	struct DISPLAY_STATE display_state;
	display_state.row = 0;
     d98:	19 82       	std	Y+1, r1	; 0x01
	display_state.column = 0;
     d9a:	1a 82       	std	Y+2, r1	; 0x02
	
	return display_state;
     d9c:	89 81       	ldd	r24, Y+1	; 0x01
     d9e:	9a 81       	ldd	r25, Y+2	; 0x02
}
     da0:	0f 90       	pop	r0
     da2:	0f 90       	pop	r0
     da4:	df 91       	pop	r29
     da6:	cf 91       	pop	r28
     da8:	08 95       	ret

00000daa <get_empty_display>:
struct DISPLAY_PAGE get_empty_display(){
     daa:	cf 93       	push	r28
     dac:	df 93       	push	r29
     dae:	cd b7       	in	r28, 0x3d	; 61
     db0:	de b7       	in	r29, 0x3e	; 62
     db2:	c4 55       	subi	r28, 0x54	; 84
     db4:	d1 09       	sbc	r29, r1
     db6:	0f b6       	in	r0, 0x3f	; 63
     db8:	f8 94       	cli
     dba:	de bf       	out	0x3e, r29	; 62
     dbc:	0f be       	out	0x3f, r0	; 63
     dbe:	cd bf       	out	0x3d, r28	; 61
     dc0:	9e 01       	movw	r18, r28
     dc2:	2d 5a       	subi	r18, 0xAD	; 173
     dc4:	3f 4f       	sbci	r19, 0xFF	; 255
     dc6:	f9 01       	movw	r30, r18
     dc8:	91 83       	std	Z+1, r25	; 0x01
     dca:	80 83       	st	Z, r24
	
	struct DISPLAY_PAGE display_data;
	
	for(uint8_t row = 0; row < 4; row++){
     dcc:	19 82       	std	Y+1, r1	; 0x01
     dce:	22 c0       	rjmp	.+68     	; 0xe14 <get_empty_display+0x6a>
		for (uint8_t column = 0; column < 20; column++){
     dd0:	1a 82       	std	Y+2, r1	; 0x02
     dd2:	1a c0       	rjmp	.+52     	; 0xe08 <get_empty_display+0x5e>
			display_data.data[row][column] = 0x10;
     dd4:	89 81       	ldd	r24, Y+1	; 0x01
     dd6:	48 2f       	mov	r20, r24
     dd8:	50 e0       	ldi	r21, 0x00	; 0
     dda:	8a 81       	ldd	r24, Y+2	; 0x02
     ddc:	88 2f       	mov	r24, r24
     dde:	90 e0       	ldi	r25, 0x00	; 0
     de0:	64 e1       	ldi	r22, 0x14	; 20
     de2:	64 9f       	mul	r22, r20
     de4:	90 01       	movw	r18, r0
     de6:	65 9f       	mul	r22, r21
     de8:	30 0d       	add	r19, r0
     dea:	11 24       	eor	r1, r1
     dec:	ae 01       	movw	r20, r28
     dee:	4f 5f       	subi	r20, 0xFF	; 255
     df0:	5f 4f       	sbci	r21, 0xFF	; 255
     df2:	24 0f       	add	r18, r20
     df4:	35 1f       	adc	r19, r21
     df6:	82 0f       	add	r24, r18
     df8:	93 1f       	adc	r25, r19
     dfa:	02 96       	adiw	r24, 0x02	; 2
     dfc:	20 e1       	ldi	r18, 0x10	; 16
     dfe:	fc 01       	movw	r30, r24
     e00:	20 83       	st	Z, r18
struct DISPLAY_PAGE get_empty_display(){
	
	struct DISPLAY_PAGE display_data;
	
	for(uint8_t row = 0; row < 4; row++){
		for (uint8_t column = 0; column < 20; column++){
     e02:	8a 81       	ldd	r24, Y+2	; 0x02
     e04:	8f 5f       	subi	r24, 0xFF	; 255
     e06:	8a 83       	std	Y+2, r24	; 0x02
     e08:	8a 81       	ldd	r24, Y+2	; 0x02
     e0a:	84 31       	cpi	r24, 0x14	; 20
     e0c:	18 f3       	brcs	.-58     	; 0xdd4 <get_empty_display+0x2a>
}
struct DISPLAY_PAGE get_empty_display(){
	
	struct DISPLAY_PAGE display_data;
	
	for(uint8_t row = 0; row < 4; row++){
     e0e:	89 81       	ldd	r24, Y+1	; 0x01
     e10:	8f 5f       	subi	r24, 0xFF	; 255
     e12:	89 83       	std	Y+1, r24	; 0x01
     e14:	89 81       	ldd	r24, Y+1	; 0x01
     e16:	84 30       	cpi	r24, 0x04	; 4
     e18:	d8 f2       	brcs	.-74     	; 0xdd0 <get_empty_display+0x26>
		for (uint8_t column = 0; column < 20; column++){
			display_data.data[row][column] = 0x10;
		}	 
	}
	return display_data;
     e1a:	ce 01       	movw	r24, r28
     e1c:	8d 5a       	subi	r24, 0xAD	; 173
     e1e:	9f 4f       	sbci	r25, 0xFF	; 255
     e20:	fc 01       	movw	r30, r24
     e22:	80 81       	ld	r24, Z
     e24:	91 81       	ldd	r25, Z+1	; 0x01
     e26:	20 e5       	ldi	r18, 0x50	; 80
     e28:	fe 01       	movw	r30, r28
     e2a:	33 96       	adiw	r30, 0x03	; 3
     e2c:	dc 01       	movw	r26, r24
     e2e:	01 90       	ld	r0, Z+
     e30:	0d 92       	st	X+, r0
     e32:	2a 95       	dec	r18
     e34:	e1 f7       	brne	.-8      	; 0xe2e <get_empty_display+0x84>
}
     e36:	ce 01       	movw	r24, r28
     e38:	8d 5a       	subi	r24, 0xAD	; 173
     e3a:	9f 4f       	sbci	r25, 0xFF	; 255
     e3c:	fc 01       	movw	r30, r24
     e3e:	80 81       	ld	r24, Z
     e40:	91 81       	ldd	r25, Z+1	; 0x01
     e42:	cc 5a       	subi	r28, 0xAC	; 172
     e44:	df 4f       	sbci	r29, 0xFF	; 255
     e46:	0f b6       	in	r0, 0x3f	; 63
     e48:	f8 94       	cli
     e4a:	de bf       	out	0x3e, r29	; 62
     e4c:	0f be       	out	0x3f, r0	; 63
     e4e:	cd bf       	out	0x3d, r28	; 61
     e50:	df 91       	pop	r29
     e52:	cf 91       	pop	r28
     e54:	08 95       	ret

00000e56 <display_write_data>:

void display_write_data(uint8_t data,uint8_t rs){
     e56:	0f 93       	push	r16
     e58:	1f 93       	push	r17
     e5a:	cf 93       	push	r28
     e5c:	df 93       	push	r29
     e5e:	00 d0       	rcall	.+0      	; 0xe60 <display_write_data+0xa>
     e60:	00 d0       	rcall	.+0      	; 0xe62 <display_write_data+0xc>
     e62:	cd b7       	in	r28, 0x3d	; 61
     e64:	de b7       	in	r29, 0x3e	; 62
     e66:	8b 83       	std	Y+3, r24	; 0x03
     e68:	6c 83       	std	Y+4, r22	; 0x04
	
	DISPLAY_DATA = invert_binary_number(data);
     e6a:	0e e2       	ldi	r16, 0x2E	; 46
     e6c:	10 e0       	ldi	r17, 0x00	; 0
     e6e:	8b 81       	ldd	r24, Y+3	; 0x03
     e70:	0e 94 52 14 	call	0x28a4	; 0x28a4 <invert_binary_number>
     e74:	f8 01       	movw	r30, r16
     e76:	80 83       	st	Z, r24
	
	if (rs==1){
     e78:	8c 81       	ldd	r24, Y+4	; 0x04
     e7a:	81 30       	cpi	r24, 0x01	; 1
     e7c:	51 f4       	brne	.+20     	; 0xe92 <display_write_data+0x3c>
		SET_RS_PIN
     e7e:	85 e2       	ldi	r24, 0x25	; 37
     e80:	90 e0       	ldi	r25, 0x00	; 0
     e82:	25 e2       	ldi	r18, 0x25	; 37
     e84:	30 e0       	ldi	r19, 0x00	; 0
     e86:	f9 01       	movw	r30, r18
     e88:	20 81       	ld	r18, Z
     e8a:	20 64       	ori	r18, 0x40	; 64
     e8c:	fc 01       	movw	r30, r24
     e8e:	20 83       	st	Z, r18
     e90:	09 c0       	rjmp	.+18     	; 0xea4 <display_write_data+0x4e>
		} else {
		UNSET_RS_PIN
     e92:	85 e2       	ldi	r24, 0x25	; 37
     e94:	90 e0       	ldi	r25, 0x00	; 0
     e96:	25 e2       	ldi	r18, 0x25	; 37
     e98:	30 e0       	ldi	r19, 0x00	; 0
     e9a:	f9 01       	movw	r30, r18
     e9c:	20 81       	ld	r18, Z
     e9e:	2f 7b       	andi	r18, 0xBF	; 191
     ea0:	fc 01       	movw	r30, r24
     ea2:	20 83       	st	Z, r18
	}
	
	//Sets enable high
	SET_ENABLE_PIN
     ea4:	85 e2       	ldi	r24, 0x25	; 37
     ea6:	90 e0       	ldi	r25, 0x00	; 0
     ea8:	25 e2       	ldi	r18, 0x25	; 37
     eaa:	30 e0       	ldi	r19, 0x00	; 0
     eac:	f9 01       	movw	r30, r18
     eae:	20 81       	ld	r18, Z
     eb0:	20 61       	ori	r18, 0x10	; 16
     eb2:	fc 01       	movw	r30, r24
     eb4:	20 83       	st	Z, r18
	//Sets enable low
	for(int wait = 0; wait<50; wait++){
     eb6:	1a 82       	std	Y+2, r1	; 0x02
     eb8:	19 82       	std	Y+1, r1	; 0x01
     eba:	0e c0       	rjmp	.+28     	; 0xed8 <display_write_data+0x82>
		UNSET_ENABLE_PIN
     ebc:	85 e2       	ldi	r24, 0x25	; 37
     ebe:	90 e0       	ldi	r25, 0x00	; 0
     ec0:	25 e2       	ldi	r18, 0x25	; 37
     ec2:	30 e0       	ldi	r19, 0x00	; 0
     ec4:	f9 01       	movw	r30, r18
     ec6:	20 81       	ld	r18, Z
     ec8:	2f 7e       	andi	r18, 0xEF	; 239
     eca:	fc 01       	movw	r30, r24
     ecc:	20 83       	st	Z, r18
	}
	
	//Sets enable high
	SET_ENABLE_PIN
	//Sets enable low
	for(int wait = 0; wait<50; wait++){
     ece:	89 81       	ldd	r24, Y+1	; 0x01
     ed0:	9a 81       	ldd	r25, Y+2	; 0x02
     ed2:	01 96       	adiw	r24, 0x01	; 1
     ed4:	9a 83       	std	Y+2, r25	; 0x02
     ed6:	89 83       	std	Y+1, r24	; 0x01
     ed8:	89 81       	ldd	r24, Y+1	; 0x01
     eda:	9a 81       	ldd	r25, Y+2	; 0x02
     edc:	c2 97       	sbiw	r24, 0x32	; 50
     ede:	74 f3       	brlt	.-36     	; 0xebc <display_write_data+0x66>
		UNSET_ENABLE_PIN
	}
	
	
}
     ee0:	00 00       	nop
     ee2:	0f 90       	pop	r0
     ee4:	0f 90       	pop	r0
     ee6:	0f 90       	pop	r0
     ee8:	0f 90       	pop	r0
     eea:	df 91       	pop	r29
     eec:	cf 91       	pop	r28
     eee:	1f 91       	pop	r17
     ef0:	0f 91       	pop	r16
     ef2:	08 95       	ret

00000ef4 <display_definechars>:


//num_to_3digit this function not only converts the raw data to a 3Digit number which can be displayed onto the display, it also sets the Page and Position of the Number on the Display


void display_definechars(){
     ef4:	8f 92       	push	r8
     ef6:	af 92       	push	r10
     ef8:	cf 92       	push	r12
     efa:	ef 92       	push	r14
     efc:	0f 93       	push	r16
     efe:	cf 93       	push	r28
     f00:	df 93       	push	r29
     f02:	cd b7       	in	r28, 0x3d	; 61
     f04:	de b7       	in	r29, 0x3e	; 62
	//definition of needed custom chars
	display_customchar(1,0x1F,0x1F,0,0,0,0,0,0);
     f06:	81 2c       	mov	r8, r1
     f08:	a1 2c       	mov	r10, r1
     f0a:	c1 2c       	mov	r12, r1
     f0c:	e1 2c       	mov	r14, r1
     f0e:	00 e0       	ldi	r16, 0x00	; 0
     f10:	20 e0       	ldi	r18, 0x00	; 0
     f12:	4f e1       	ldi	r20, 0x1F	; 31
     f14:	6f e1       	ldi	r22, 0x1F	; 31
     f16:	81 e0       	ldi	r24, 0x01	; 1
     f18:	7a d0       	rcall	.+244    	; 0x100e <display_customchar>
	display_customchar(2,0xEF,0xEF,0xEF,0xEF,0xEF,0xEF,0xEF,0xEF);
     f1a:	0f 2e       	mov	r0, r31
     f1c:	ff ee       	ldi	r31, 0xEF	; 239
     f1e:	8f 2e       	mov	r8, r31
     f20:	f0 2d       	mov	r31, r0
     f22:	0f 2e       	mov	r0, r31
     f24:	ff ee       	ldi	r31, 0xEF	; 239
     f26:	af 2e       	mov	r10, r31
     f28:	f0 2d       	mov	r31, r0
     f2a:	0f 2e       	mov	r0, r31
     f2c:	ff ee       	ldi	r31, 0xEF	; 239
     f2e:	cf 2e       	mov	r12, r31
     f30:	f0 2d       	mov	r31, r0
     f32:	0f 2e       	mov	r0, r31
     f34:	ff ee       	ldi	r31, 0xEF	; 239
     f36:	ef 2e       	mov	r14, r31
     f38:	f0 2d       	mov	r31, r0
     f3a:	0f ee       	ldi	r16, 0xEF	; 239
     f3c:	2f ee       	ldi	r18, 0xEF	; 239
     f3e:	4f ee       	ldi	r20, 0xEF	; 239
     f40:	6f ee       	ldi	r22, 0xEF	; 239
     f42:	82 e0       	ldi	r24, 0x02	; 2
     f44:	64 d0       	rcall	.+200    	; 0x100e <display_customchar>
	display_customchar(3,0x1E,0x1E,0x1E,0x1E,0x1E,0x1E,0x1E,0x1E);
     f46:	0f 2e       	mov	r0, r31
     f48:	fe e1       	ldi	r31, 0x1E	; 30
     f4a:	8f 2e       	mov	r8, r31
     f4c:	f0 2d       	mov	r31, r0
     f4e:	0f 2e       	mov	r0, r31
     f50:	fe e1       	ldi	r31, 0x1E	; 30
     f52:	af 2e       	mov	r10, r31
     f54:	f0 2d       	mov	r31, r0
     f56:	0f 2e       	mov	r0, r31
     f58:	fe e1       	ldi	r31, 0x1E	; 30
     f5a:	cf 2e       	mov	r12, r31
     f5c:	f0 2d       	mov	r31, r0
     f5e:	0f 2e       	mov	r0, r31
     f60:	fe e1       	ldi	r31, 0x1E	; 30
     f62:	ef 2e       	mov	r14, r31
     f64:	f0 2d       	mov	r31, r0
     f66:	0e e1       	ldi	r16, 0x1E	; 30
     f68:	2e e1       	ldi	r18, 0x1E	; 30
     f6a:	4e e1       	ldi	r20, 0x1E	; 30
     f6c:	6e e1       	ldi	r22, 0x1E	; 30
     f6e:	83 e0       	ldi	r24, 0x03	; 3
     f70:	4e d0       	rcall	.+156    	; 0x100e <display_customchar>
	display_customchar(4,0xFF,0xFF,0xFF,0xFF,0,0,0,0);
     f72:	81 2c       	mov	r8, r1
     f74:	a1 2c       	mov	r10, r1
     f76:	c1 2c       	mov	r12, r1
     f78:	e1 2c       	mov	r14, r1
     f7a:	0f ef       	ldi	r16, 0xFF	; 255
     f7c:	2f ef       	ldi	r18, 0xFF	; 255
     f7e:	4f ef       	ldi	r20, 0xFF	; 255
     f80:	6f ef       	ldi	r22, 0xFF	; 255
     f82:	84 e0       	ldi	r24, 0x04	; 4
     f84:	44 d0       	rcall	.+136    	; 0x100e <display_customchar>
	display_customchar(5,0xFF,0xFF,0xFF,0xFF,0xEF,0xEF,0xEF,0xEF);
     f86:	0f 2e       	mov	r0, r31
     f88:	ff ee       	ldi	r31, 0xEF	; 239
     f8a:	8f 2e       	mov	r8, r31
     f8c:	f0 2d       	mov	r31, r0
     f8e:	0f 2e       	mov	r0, r31
     f90:	ff ee       	ldi	r31, 0xEF	; 239
     f92:	af 2e       	mov	r10, r31
     f94:	f0 2d       	mov	r31, r0
     f96:	0f 2e       	mov	r0, r31
     f98:	ff ee       	ldi	r31, 0xEF	; 239
     f9a:	cf 2e       	mov	r12, r31
     f9c:	f0 2d       	mov	r31, r0
     f9e:	0f 2e       	mov	r0, r31
     fa0:	ff ee       	ldi	r31, 0xEF	; 239
     fa2:	ef 2e       	mov	r14, r31
     fa4:	f0 2d       	mov	r31, r0
     fa6:	0f ef       	ldi	r16, 0xFF	; 255
     fa8:	2f ef       	ldi	r18, 0xFF	; 255
     faa:	4f ef       	ldi	r20, 0xFF	; 255
     fac:	6f ef       	ldi	r22, 0xFF	; 255
     fae:	85 e0       	ldi	r24, 0x05	; 5
     fb0:	2e d0       	rcall	.+92     	; 0x100e <display_customchar>
	display_customchar(6,0x08,0x15,0x0A,0x04,0x0A,0x15,0x02,0x00);
     fb2:	81 2c       	mov	r8, r1
     fb4:	68 94       	set
     fb6:	aa 24       	eor	r10, r10
     fb8:	a1 f8       	bld	r10, 1
     fba:	0f 2e       	mov	r0, r31
     fbc:	f5 e1       	ldi	r31, 0x15	; 21
     fbe:	cf 2e       	mov	r12, r31
     fc0:	f0 2d       	mov	r31, r0
     fc2:	0f 2e       	mov	r0, r31
     fc4:	fa e0       	ldi	r31, 0x0A	; 10
     fc6:	ef 2e       	mov	r14, r31
     fc8:	f0 2d       	mov	r31, r0
     fca:	04 e0       	ldi	r16, 0x04	; 4
     fcc:	2a e0       	ldi	r18, 0x0A	; 10
     fce:	45 e1       	ldi	r20, 0x15	; 21
     fd0:	68 e0       	ldi	r22, 0x08	; 8
     fd2:	86 e0       	ldi	r24, 0x06	; 6
     fd4:	1c d0       	rcall	.+56     	; 0x100e <display_customchar>
	display_customchar(7,0,0,0,0,0,0x1F,0x1F,0x1F);
     fd6:	0f 2e       	mov	r0, r31
     fd8:	ff e1       	ldi	r31, 0x1F	; 31
     fda:	8f 2e       	mov	r8, r31
     fdc:	f0 2d       	mov	r31, r0
     fde:	0f 2e       	mov	r0, r31
     fe0:	ff e1       	ldi	r31, 0x1F	; 31
     fe2:	af 2e       	mov	r10, r31
     fe4:	f0 2d       	mov	r31, r0
     fe6:	0f 2e       	mov	r0, r31
     fe8:	ff e1       	ldi	r31, 0x1F	; 31
     fea:	cf 2e       	mov	r12, r31
     fec:	f0 2d       	mov	r31, r0
     fee:	e1 2c       	mov	r14, r1
     ff0:	00 e0       	ldi	r16, 0x00	; 0
     ff2:	20 e0       	ldi	r18, 0x00	; 0
     ff4:	40 e0       	ldi	r20, 0x00	; 0
     ff6:	60 e0       	ldi	r22, 0x00	; 0
     ff8:	87 e0       	ldi	r24, 0x07	; 7
     ffa:	09 d0       	rcall	.+18     	; 0x100e <display_customchar>
	
}
     ffc:	00 00       	nop
     ffe:	df 91       	pop	r29
    1000:	cf 91       	pop	r28
    1002:	0f 91       	pop	r16
    1004:	ef 90       	pop	r14
    1006:	cf 90       	pop	r12
    1008:	af 90       	pop	r10
    100a:	8f 90       	pop	r8
    100c:	08 95       	ret

0000100e <display_customchar>:

void display_customchar(uint8_t charpos, uint8_t line1, uint8_t line2, uint8_t line3, uint8_t line4, uint8_t line5, uint8_t line6, uint8_t line7, uint8_t line8){
    100e:	8f 92       	push	r8
    1010:	af 92       	push	r10
    1012:	cf 92       	push	r12
    1014:	ef 92       	push	r14
    1016:	0f 93       	push	r16
    1018:	cf 93       	push	r28
    101a:	df 93       	push	r29
    101c:	cd b7       	in	r28, 0x3d	; 61
    101e:	de b7       	in	r29, 0x3e	; 62
    1020:	29 97       	sbiw	r28, 0x09	; 9
    1022:	0f b6       	in	r0, 0x3f	; 63
    1024:	f8 94       	cli
    1026:	de bf       	out	0x3e, r29	; 62
    1028:	0f be       	out	0x3f, r0	; 63
    102a:	cd bf       	out	0x3d, r28	; 61
    102c:	89 83       	std	Y+1, r24	; 0x01
    102e:	6a 83       	std	Y+2, r22	; 0x02
    1030:	4b 83       	std	Y+3, r20	; 0x03
    1032:	2c 83       	std	Y+4, r18	; 0x04
    1034:	0d 83       	std	Y+5, r16	; 0x05
    1036:	ee 82       	std	Y+6, r14	; 0x06
    1038:	cf 82       	std	Y+7, r12	; 0x07
    103a:	a8 86       	std	Y+8, r10	; 0x08
	
	//where to write in cgram
	display_write_data(0x40+8*charpos,0);
    103c:	89 86       	std	Y+9, r8	; 0x09
    103e:	89 81       	ldd	r24, Y+1	; 0x01
    1040:	88 2f       	mov	r24, r24
    1042:	90 e0       	ldi	r25, 0x00	; 0
    1044:	08 96       	adiw	r24, 0x08	; 8
    1046:	88 0f       	add	r24, r24
    1048:	88 0f       	add	r24, r24
    104a:	88 0f       	add	r24, r24

	//write each line
	display_write_data(line1,1);
    104c:	60 e0       	ldi	r22, 0x00	; 0
    104e:	03 df       	rcall	.-506    	; 0xe56 <display_write_data>
    1050:	61 e0       	ldi	r22, 0x01	; 1
	display_write_data(line2,1);
    1052:	8a 81       	ldd	r24, Y+2	; 0x02
    1054:	00 df       	rcall	.-512    	; 0xe56 <display_write_data>
    1056:	61 e0       	ldi	r22, 0x01	; 1
	display_write_data(line3,1);
    1058:	8b 81       	ldd	r24, Y+3	; 0x03
    105a:	fd de       	rcall	.-518    	; 0xe56 <display_write_data>
    105c:	61 e0       	ldi	r22, 0x01	; 1
	display_write_data(line4,1);
    105e:	8c 81       	ldd	r24, Y+4	; 0x04
    1060:	fa de       	rcall	.-524    	; 0xe56 <display_write_data>
    1062:	61 e0       	ldi	r22, 0x01	; 1
	display_write_data(line5,1);
    1064:	8d 81       	ldd	r24, Y+5	; 0x05
    1066:	f7 de       	rcall	.-530    	; 0xe56 <display_write_data>
    1068:	61 e0       	ldi	r22, 0x01	; 1
	display_write_data(line6,1);
    106a:	8e 81       	ldd	r24, Y+6	; 0x06
    106c:	f4 de       	rcall	.-536    	; 0xe56 <display_write_data>
    106e:	61 e0       	ldi	r22, 0x01	; 1
    1070:	8f 81       	ldd	r24, Y+7	; 0x07
	display_write_data(line7,1);
    1072:	f1 de       	rcall	.-542    	; 0xe56 <display_write_data>
    1074:	61 e0       	ldi	r22, 0x01	; 1
    1076:	88 85       	ldd	r24, Y+8	; 0x08
    1078:	ee de       	rcall	.-548    	; 0xe56 <display_write_data>
	display_write_data(line8,1);
    107a:	61 e0       	ldi	r22, 0x01	; 1
    107c:	89 85       	ldd	r24, Y+9	; 0x09
    107e:	eb de       	rcall	.-554    	; 0xe56 <display_write_data>
    1080:	60 e0       	ldi	r22, 0x00	; 0

	//display return home
	display_write_data(0x02,0);
    1082:	82 e0       	ldi	r24, 0x02	; 2
    1084:	e8 de       	rcall	.-560    	; 0xe56 <display_write_data>
    1086:	00 00       	nop
    1088:	29 96       	adiw	r28, 0x09	; 9
}
    108a:	0f b6       	in	r0, 0x3f	; 63
    108c:	f8 94       	cli
    108e:	de bf       	out	0x3e, r29	; 62
    1090:	0f be       	out	0x3f, r0	; 63
    1092:	cd bf       	out	0x3d, r28	; 61
    1094:	df 91       	pop	r29
    1096:	cf 91       	pop	r28
    1098:	0f 91       	pop	r16
    109a:	ef 90       	pop	r14
    109c:	cf 90       	pop	r12
    109e:	af 90       	pop	r10
    10a0:	8f 90       	pop	r8
    10a2:	08 95       	ret

000010a4 <display_write_str>:
    10a4:	cf 93       	push	r28
    10a6:	df 93       	push	r29

void display_write_str(struct DISPLAY_PAGE *display, char data[], uint8_t row, uint8_t column)
{
    10a8:	cd b7       	in	r28, 0x3d	; 61
    10aa:	de b7       	in	r29, 0x3e	; 62
    10ac:	27 97       	sbiw	r28, 0x07	; 7
    10ae:	0f b6       	in	r0, 0x3f	; 63
    10b0:	f8 94       	cli
    10b2:	de bf       	out	0x3e, r29	; 62
    10b4:	0f be       	out	0x3f, r0	; 63
    10b6:	cd bf       	out	0x3d, r28	; 61
    10b8:	9b 83       	std	Y+3, r25	; 0x03
    10ba:	8a 83       	std	Y+2, r24	; 0x02
    10bc:	7d 83       	std	Y+5, r23	; 0x05
    10be:	6c 83       	std	Y+4, r22	; 0x04
    10c0:	4e 83       	std	Y+6, r20	; 0x06
    10c2:	2f 83       	std	Y+7, r18	; 0x07
    10c4:	19 82       	std	Y+1, r1	; 0x01
    10c6:	25 c0       	rjmp	.+74     	; 0x1112 <__stack+0x13>
	//Schreiben
	//Notiz < length is wichtig da so das 0 byte ignoriert wird
	//mit dem Zeichenketten terminiert werden
	uint8_t i = 0;
    10c8:	8e 81       	ldd	r24, Y+6	; 0x06
	while(data[i]!= 0 && (column+i)<20){
    10ca:	68 2f       	mov	r22, r24
		display->data[row][i+column] = data[i];
    10cc:	70 e0       	ldi	r23, 0x00	; 0
    10ce:	89 81       	ldd	r24, Y+1	; 0x01
    10d0:	28 2f       	mov	r18, r24
    10d2:	30 e0       	ldi	r19, 0x00	; 0
    10d4:	8f 81       	ldd	r24, Y+7	; 0x07
    10d6:	88 2f       	mov	r24, r24
    10d8:	90 e0       	ldi	r25, 0x00	; 0
    10da:	82 0f       	add	r24, r18
    10dc:	93 1f       	adc	r25, r19
    10de:	29 81       	ldd	r18, Y+1	; 0x01
    10e0:	22 2f       	mov	r18, r18
    10e2:	30 e0       	ldi	r19, 0x00	; 0
    10e4:	4c 81       	ldd	r20, Y+4	; 0x04
    10e6:	5d 81       	ldd	r21, Y+5	; 0x05
    10e8:	24 0f       	add	r18, r20
    10ea:	35 1f       	adc	r19, r21
    10ec:	d9 01       	movw	r26, r18
    10ee:	ec 91       	ld	r30, X
    10f0:	4a 81       	ldd	r20, Y+2	; 0x02
    10f2:	5b 81       	ldd	r21, Y+3	; 0x03
    10f4:	f4 e1       	ldi	r31, 0x14	; 20
    10f6:	f6 9f       	mul	r31, r22
    10f8:	90 01       	movw	r18, r0
    10fa:	f7 9f       	mul	r31, r23
    10fc:	30 0d       	add	r19, r0
    10fe:	11 24       	eor	r1, r1
    1100:	24 0f       	add	r18, r20
    1102:	35 1f       	adc	r19, r21
    1104:	82 0f       	add	r24, r18
    1106:	93 1f       	adc	r25, r19
    1108:	dc 01       	movw	r26, r24
    110a:	ec 93       	st	X, r30
    110c:	89 81       	ldd	r24, Y+1	; 0x01
    110e:	8f 5f       	subi	r24, 0xFF	; 255
		i++;
    1110:	89 83       	std	Y+1, r24	; 0x01
    1112:	89 81       	ldd	r24, Y+1	; 0x01
    1114:	88 2f       	mov	r24, r24
{
	//Schreiben
	//Notiz < length is wichtig da so das 0 byte ignoriert wird
	//mit dem Zeichenketten terminiert werden
	uint8_t i = 0;
	while(data[i]!= 0 && (column+i)<20){
    1116:	90 e0       	ldi	r25, 0x00	; 0
    1118:	2c 81       	ldd	r18, Y+4	; 0x04
    111a:	3d 81       	ldd	r19, Y+5	; 0x05
    111c:	82 0f       	add	r24, r18
    111e:	93 1f       	adc	r25, r19
    1120:	fc 01       	movw	r30, r24
    1122:	80 81       	ld	r24, Z
    1124:	88 23       	and	r24, r24
    1126:	51 f0       	breq	.+20     	; 0x113c <__stack+0x3d>
    1128:	8f 81       	ldd	r24, Y+7	; 0x07
    112a:	28 2f       	mov	r18, r24
    112c:	30 e0       	ldi	r19, 0x00	; 0
    112e:	89 81       	ldd	r24, Y+1	; 0x01
    1130:	88 2f       	mov	r24, r24
    1132:	90 e0       	ldi	r25, 0x00	; 0
    1134:	82 0f       	add	r24, r18
    1136:	93 1f       	adc	r25, r19
    1138:	44 97       	sbiw	r24, 0x14	; 20
    113a:	34 f2       	brlt	.-116    	; 0x10c8 <display_write_str+0x24>
    113c:	00 00       	nop
    113e:	27 96       	adiw	r28, 0x07	; 7
		display->data[row][i+column] = data[i];
		i++;
	}
}
    1140:	0f b6       	in	r0, 0x3f	; 63
    1142:	f8 94       	cli
    1144:	de bf       	out	0x3e, r29	; 62
    1146:	0f be       	out	0x3f, r0	; 63
    1148:	cd bf       	out	0x3d, r28	; 61
    114a:	df 91       	pop	r29
    114c:	cf 91       	pop	r28
    114e:	08 95       	ret

00001150 <init_display>:
    1150:	cf 93       	push	r28

void init_display(){
    1152:	df 93       	push	r29
    1154:	00 d0       	rcall	.+0      	; 0x1156 <init_display+0x6>
    1156:	cd b7       	in	r28, 0x3d	; 61
    1158:	de b7       	in	r29, 0x3e	; 62
    115a:	1a 82       	std	Y+2, r1	; 0x02
	
	//init the display with commands in dsp_command array
	for (int i=0; i<7; i++){
    115c:	19 82       	std	Y+1, r1	; 0x01
    115e:	0d c0       	rjmp	.+26     	; 0x117a <init_display+0x2a>
    1160:	89 81       	ldd	r24, Y+1	; 0x01
		display_write_data(dsp_command[i],0);
    1162:	9a 81       	ldd	r25, Y+2	; 0x02
    1164:	80 50       	subi	r24, 0x00	; 0
    1166:	9f 4f       	sbci	r25, 0xFF	; 255
    1168:	fc 01       	movw	r30, r24
    116a:	80 81       	ld	r24, Z
    116c:	60 e0       	ldi	r22, 0x00	; 0
    116e:	73 de       	rcall	.-794    	; 0xe56 <display_write_data>
    1170:	89 81       	ldd	r24, Y+1	; 0x01
    1172:	9a 81       	ldd	r25, Y+2	; 0x02
}

void init_display(){
	
	//init the display with commands in dsp_command array
	for (int i=0; i<7; i++){
    1174:	01 96       	adiw	r24, 0x01	; 1
    1176:	9a 83       	std	Y+2, r25	; 0x02
    1178:	89 83       	std	Y+1, r24	; 0x01
    117a:	89 81       	ldd	r24, Y+1	; 0x01
    117c:	9a 81       	ldd	r25, Y+2	; 0x02
    117e:	07 97       	sbiw	r24, 0x07	; 7
    1180:	7c f3       	brlt	.-34     	; 0x1160 <init_display+0x10>
    1182:	00 00       	nop
    1184:	0f 90       	pop	r0
		display_write_data(dsp_command[i],0);
	}	
}
    1186:	0f 90       	pop	r0
    1188:	df 91       	pop	r29
    118a:	cf 91       	pop	r28
    118c:	08 95       	ret

0000118e <display_main>:
    118e:	cf 93       	push	r28
    1190:	df 93       	push	r29

void display_main(struct DISPLAY_PAGE *display)
{
    1192:	00 d0       	rcall	.+0      	; 0x1194 <display_main+0x6>
    1194:	00 d0       	rcall	.+0      	; 0x1196 <display_main+0x8>
    1196:	cd b7       	in	r28, 0x3d	; 61
    1198:	de b7       	in	r29, 0x3e	; 62
    119a:	9c 83       	std	Y+4, r25	; 0x04
    119c:	8b 83       	std	Y+3, r24	; 0x03
    119e:	19 82       	std	Y+1, r1	; 0x01
    11a0:	1a 82       	std	Y+2, r1	; 0x02
	uint8_t TS_ON = 0;
    11a2:	80 e2       	ldi	r24, 0x20	; 32
	uint8_t Ready_2_Drive = 0;
    11a4:	90 e0       	ldi	r25, 0x00	; 0
	
	TS_ON = (~PINA & (1 << PA0));
    11a6:	fc 01       	movw	r30, r24
    11a8:	80 81       	ld	r24, Z
    11aa:	88 2f       	mov	r24, r24
    11ac:	90 e0       	ldi	r25, 0x00	; 0
    11ae:	81 70       	andi	r24, 0x01	; 1
    11b0:	99 27       	eor	r25, r25
    11b2:	21 e0       	ldi	r18, 0x01	; 1
    11b4:	89 2b       	or	r24, r25
    11b6:	09 f0       	breq	.+2      	; 0x11ba <display_main+0x2c>
    11b8:	20 e0       	ldi	r18, 0x00	; 0
    11ba:	29 83       	std	Y+1, r18	; 0x01
    11bc:	80 e2       	ldi	r24, 0x20	; 32
	Ready_2_Drive = ((~PINA & (1 << PA1)) >> PA1);
    11be:	90 e0       	ldi	r25, 0x00	; 0
    11c0:	fc 01       	movw	r30, r24
    11c2:	80 81       	ld	r24, Z
    11c4:	88 2f       	mov	r24, r24
    11c6:	90 e0       	ldi	r25, 0x00	; 0
    11c8:	80 95       	com	r24
    11ca:	90 95       	com	r25
    11cc:	82 70       	andi	r24, 0x02	; 2
    11ce:	99 27       	eor	r25, r25
    11d0:	95 95       	asr	r25
    11d2:	87 95       	ror	r24
    11d4:	8a 83       	std	Y+2, r24	; 0x02
	display_write_str(display,"INV:  . C MTR:   . C", 0, 0);
    11d6:	8b 81       	ldd	r24, Y+3	; 0x03
    11d8:	9c 81       	ldd	r25, Y+4	; 0x04
    11da:	20 e0       	ldi	r18, 0x00	; 0
    11dc:	40 e0       	ldi	r20, 0x00	; 0
    11de:	6c e0       	ldi	r22, 0x0C	; 12
    11e0:	71 e0       	ldi	r23, 0x01	; 1
    11e2:	60 df       	rcall	.-320    	; 0x10a4 <display_write_str>
	display_write_str(display,"TSV:   V  ACCU:  . C", 1, 0);
    11e4:	8b 81       	ldd	r24, Y+3	; 0x03
    11e6:	9c 81       	ldd	r25, Y+4	; 0x04
    11e8:	20 e0       	ldi	r18, 0x00	; 0
    11ea:	41 e0       	ldi	r20, 0x01	; 1
    11ec:	61 e2       	ldi	r22, 0x21	; 33
    11ee:	71 e0       	ldi	r23, 0x01	; 1
    11f0:	59 df       	rcall	.-334    	; 0x10a4 <display_write_str>
    11f2:	8b 81       	ldd	r24, Y+3	; 0x03
	display_write_str(display,"LVV:  . V COOL:25.0C", 2, 0);
    11f4:	9c 81       	ldd	r25, Y+4	; 0x04
    11f6:	20 e0       	ldi	r18, 0x00	; 0
    11f8:	42 e0       	ldi	r20, 0x02	; 2
    11fa:	66 e3       	ldi	r22, 0x36	; 54
    11fc:	71 e0       	ldi	r23, 0x01	; 1
    11fe:	52 df       	rcall	.-348    	; 0x10a4 <display_write_str>
    1200:	8b 81       	ldd	r24, Y+3	; 0x03
    1202:	9c 81       	ldd	r25, Y+4	; 0x04
	display_write_str(display,"APPS:               ", 3, 0);
    1204:	20 e0       	ldi	r18, 0x00	; 0
    1206:	43 e0       	ldi	r20, 0x03	; 3
    1208:	6b e4       	ldi	r22, 0x4B	; 75
    120a:	71 e0       	ldi	r23, 0x01	; 1
    120c:	4b df       	rcall	.-362    	; 0x10a4 <display_write_str>
    120e:	40 91 d1 02 	lds	r20, 0x02D1	; 0x8002d1 <motor_temp>
    1212:	50 91 d2 02 	lds	r21, 0x02D2	; 0x8002d2 <motor_temp+0x1>
	
	display_small_number(display,18, 0, motor_temp%10) ;
    1216:	9a 01       	movw	r18, r20
    1218:	ad ec       	ldi	r26, 0xCD	; 205
    121a:	bc ec       	ldi	r27, 0xCC	; 204
    121c:	0e 94 70 1d 	call	0x3ae0	; 0x3ae0 <__umulhisi3>
    1220:	96 95       	lsr	r25
    1222:	87 95       	ror	r24
    1224:	96 95       	lsr	r25
    1226:	87 95       	ror	r24
    1228:	96 95       	lsr	r25
    122a:	87 95       	ror	r24
    122c:	88 0f       	add	r24, r24
    122e:	99 1f       	adc	r25, r25
    1230:	9c 01       	movw	r18, r24
    1232:	22 0f       	add	r18, r18
    1234:	33 1f       	adc	r19, r19
    1236:	22 0f       	add	r18, r18
    1238:	33 1f       	adc	r19, r19
    123a:	82 0f       	add	r24, r18
    123c:	93 1f       	adc	r25, r19
    123e:	9a 01       	movw	r18, r20
    1240:	28 1b       	sub	r18, r24
    1242:	39 0b       	sbc	r19, r25
    1244:	c9 01       	movw	r24, r18
    1246:	28 2f       	mov	r18, r24
    1248:	8b 81       	ldd	r24, Y+3	; 0x03
    124a:	9c 81       	ldd	r25, Y+4	; 0x04
    124c:	40 e0       	ldi	r20, 0x00	; 0
    124e:	62 e1       	ldi	r22, 0x12	; 18
    1250:	0e 94 c4 13 	call	0x2788	; 0x2788 <display_small_number>
    1254:	80 91 d1 02 	lds	r24, 0x02D1	; 0x8002d1 <motor_temp>
    1258:	90 91 d2 02 	lds	r25, 0x02D2	; 0x8002d2 <motor_temp+0x1>
	display_small_number(display,16, 0, (motor_temp/10)%10);
    125c:	9c 01       	movw	r18, r24
    125e:	ad ec       	ldi	r26, 0xCD	; 205
    1260:	bc ec       	ldi	r27, 0xCC	; 204
    1262:	0e 94 70 1d 	call	0x3ae0	; 0x3ae0 <__umulhisi3>
    1266:	ac 01       	movw	r20, r24
    1268:	56 95       	lsr	r21
    126a:	47 95       	ror	r20
    126c:	56 95       	lsr	r21
    126e:	47 95       	ror	r20
    1270:	56 95       	lsr	r21
    1272:	47 95       	ror	r20
    1274:	9a 01       	movw	r18, r20
    1276:	ad ec       	ldi	r26, 0xCD	; 205
    1278:	bc ec       	ldi	r27, 0xCC	; 204
    127a:	0e 94 70 1d 	call	0x3ae0	; 0x3ae0 <__umulhisi3>
    127e:	96 95       	lsr	r25
    1280:	87 95       	ror	r24
    1282:	96 95       	lsr	r25
    1284:	87 95       	ror	r24
    1286:	96 95       	lsr	r25
    1288:	87 95       	ror	r24
    128a:	88 0f       	add	r24, r24
    128c:	99 1f       	adc	r25, r25
    128e:	9c 01       	movw	r18, r24
    1290:	22 0f       	add	r18, r18
    1292:	33 1f       	adc	r19, r19
    1294:	22 0f       	add	r18, r18
    1296:	33 1f       	adc	r19, r19
    1298:	82 0f       	add	r24, r18
    129a:	93 1f       	adc	r25, r19
    129c:	fa 01       	movw	r30, r20
    129e:	e8 1b       	sub	r30, r24
    12a0:	f9 0b       	sbc	r31, r25
    12a2:	cf 01       	movw	r24, r30
    12a4:	28 2f       	mov	r18, r24
    12a6:	8b 81       	ldd	r24, Y+3	; 0x03
    12a8:	9c 81       	ldd	r25, Y+4	; 0x04
    12aa:	40 e0       	ldi	r20, 0x00	; 0
    12ac:	60 e1       	ldi	r22, 0x10	; 16
    12ae:	0e 94 c4 13 	call	0x2788	; 0x2788 <display_small_number>
    12b2:	80 91 d1 02 	lds	r24, 0x02D1	; 0x8002d1 <motor_temp>
    12b6:	90 91 d2 02 	lds	r25, 0x02D2	; 0x8002d2 <motor_temp+0x1>
	display_small_number(display,15, 0, (motor_temp/100)%10);
    12ba:	96 95       	lsr	r25
    12bc:	87 95       	ror	r24
    12be:	96 95       	lsr	r25
    12c0:	87 95       	ror	r24
    12c2:	9c 01       	movw	r18, r24
    12c4:	ab e7       	ldi	r26, 0x7B	; 123
    12c6:	b4 e1       	ldi	r27, 0x14	; 20
    12c8:	0e 94 70 1d 	call	0x3ae0	; 0x3ae0 <__umulhisi3>
    12cc:	ac 01       	movw	r20, r24
    12ce:	56 95       	lsr	r21
    12d0:	47 95       	ror	r20
    12d2:	9a 01       	movw	r18, r20
    12d4:	ad ec       	ldi	r26, 0xCD	; 205
    12d6:	bc ec       	ldi	r27, 0xCC	; 204
    12d8:	0e 94 70 1d 	call	0x3ae0	; 0x3ae0 <__umulhisi3>
    12dc:	96 95       	lsr	r25
    12de:	87 95       	ror	r24
    12e0:	96 95       	lsr	r25
    12e2:	87 95       	ror	r24
    12e4:	96 95       	lsr	r25
    12e6:	87 95       	ror	r24
    12e8:	88 0f       	add	r24, r24
    12ea:	99 1f       	adc	r25, r25
    12ec:	9c 01       	movw	r18, r24
    12ee:	22 0f       	add	r18, r18
    12f0:	33 1f       	adc	r19, r19
    12f2:	22 0f       	add	r18, r18
    12f4:	33 1f       	adc	r19, r19
    12f6:	82 0f       	add	r24, r18
    12f8:	93 1f       	adc	r25, r19
    12fa:	9a 01       	movw	r18, r20
    12fc:	28 1b       	sub	r18, r24
    12fe:	39 0b       	sbc	r19, r25
    1300:	c9 01       	movw	r24, r18
    1302:	28 2f       	mov	r18, r24
    1304:	8b 81       	ldd	r24, Y+3	; 0x03
    1306:	9c 81       	ldd	r25, Y+4	; 0x04
    1308:	40 e0       	ldi	r20, 0x00	; 0
    130a:	6f e0       	ldi	r22, 0x0F	; 15
    130c:	0e 94 c4 13 	call	0x2788	; 0x2788 <display_small_number>
    1310:	40 91 d3 02 	lds	r20, 0x02D3	; 0x8002d3 <mcu_temp>
    1314:	50 91 d4 02 	lds	r21, 0x02D4	; 0x8002d4 <mcu_temp+0x1>
		
	display_small_number(display,7, 0, mcu_temp%10);
    1318:	9a 01       	movw	r18, r20
    131a:	ad ec       	ldi	r26, 0xCD	; 205
    131c:	bc ec       	ldi	r27, 0xCC	; 204
    131e:	0e 94 70 1d 	call	0x3ae0	; 0x3ae0 <__umulhisi3>
    1322:	96 95       	lsr	r25
    1324:	87 95       	ror	r24
    1326:	96 95       	lsr	r25
    1328:	87 95       	ror	r24
    132a:	96 95       	lsr	r25
    132c:	87 95       	ror	r24
    132e:	88 0f       	add	r24, r24
    1330:	99 1f       	adc	r25, r25
    1332:	9c 01       	movw	r18, r24
    1334:	22 0f       	add	r18, r18
    1336:	33 1f       	adc	r19, r19
    1338:	22 0f       	add	r18, r18
    133a:	33 1f       	adc	r19, r19
    133c:	82 0f       	add	r24, r18
    133e:	93 1f       	adc	r25, r19
    1340:	fa 01       	movw	r30, r20
    1342:	e8 1b       	sub	r30, r24
    1344:	f9 0b       	sbc	r31, r25
    1346:	cf 01       	movw	r24, r30
    1348:	28 2f       	mov	r18, r24
    134a:	8b 81       	ldd	r24, Y+3	; 0x03
    134c:	9c 81       	ldd	r25, Y+4	; 0x04
    134e:	40 e0       	ldi	r20, 0x00	; 0
    1350:	67 e0       	ldi	r22, 0x07	; 7
    1352:	0e 94 c4 13 	call	0x2788	; 0x2788 <display_small_number>
    1356:	80 91 d3 02 	lds	r24, 0x02D3	; 0x8002d3 <mcu_temp>
    135a:	90 91 d4 02 	lds	r25, 0x02D4	; 0x8002d4 <mcu_temp+0x1>
	display_small_number(display,5, 0, (mcu_temp/10)%10);
    135e:	9c 01       	movw	r18, r24
    1360:	ad ec       	ldi	r26, 0xCD	; 205
    1362:	bc ec       	ldi	r27, 0xCC	; 204
    1364:	0e 94 70 1d 	call	0x3ae0	; 0x3ae0 <__umulhisi3>
    1368:	ac 01       	movw	r20, r24
    136a:	56 95       	lsr	r21
    136c:	47 95       	ror	r20
    136e:	56 95       	lsr	r21
    1370:	47 95       	ror	r20
    1372:	56 95       	lsr	r21
    1374:	47 95       	ror	r20
    1376:	9a 01       	movw	r18, r20
    1378:	ad ec       	ldi	r26, 0xCD	; 205
    137a:	bc ec       	ldi	r27, 0xCC	; 204
    137c:	0e 94 70 1d 	call	0x3ae0	; 0x3ae0 <__umulhisi3>
    1380:	96 95       	lsr	r25
    1382:	87 95       	ror	r24
    1384:	96 95       	lsr	r25
    1386:	87 95       	ror	r24
    1388:	96 95       	lsr	r25
    138a:	87 95       	ror	r24
    138c:	88 0f       	add	r24, r24
    138e:	99 1f       	adc	r25, r25
    1390:	9c 01       	movw	r18, r24
    1392:	22 0f       	add	r18, r18
    1394:	33 1f       	adc	r19, r19
    1396:	22 0f       	add	r18, r18
    1398:	33 1f       	adc	r19, r19
    139a:	82 0f       	add	r24, r18
    139c:	93 1f       	adc	r25, r19
    139e:	9a 01       	movw	r18, r20
    13a0:	28 1b       	sub	r18, r24
    13a2:	39 0b       	sbc	r19, r25
    13a4:	c9 01       	movw	r24, r18
    13a6:	28 2f       	mov	r18, r24
    13a8:	8b 81       	ldd	r24, Y+3	; 0x03
    13aa:	9c 81       	ldd	r25, Y+4	; 0x04
    13ac:	40 e0       	ldi	r20, 0x00	; 0
    13ae:	65 e0       	ldi	r22, 0x05	; 5
    13b0:	0e 94 c4 13 	call	0x2788	; 0x2788 <display_small_number>
    13b4:	80 91 d3 02 	lds	r24, 0x02D3	; 0x8002d3 <mcu_temp>
    13b8:	90 91 d4 02 	lds	r25, 0x02D4	; 0x8002d4 <mcu_temp+0x1>
	display_small_number(display,4, 0, (mcu_temp/100)%10);
    13bc:	96 95       	lsr	r25
    13be:	87 95       	ror	r24
    13c0:	96 95       	lsr	r25
    13c2:	87 95       	ror	r24
    13c4:	9c 01       	movw	r18, r24
    13c6:	ab e7       	ldi	r26, 0x7B	; 123
    13c8:	b4 e1       	ldi	r27, 0x14	; 20
    13ca:	0e 94 70 1d 	call	0x3ae0	; 0x3ae0 <__umulhisi3>
    13ce:	ac 01       	movw	r20, r24
    13d0:	56 95       	lsr	r21
    13d2:	47 95       	ror	r20
    13d4:	9a 01       	movw	r18, r20
    13d6:	ad ec       	ldi	r26, 0xCD	; 205
    13d8:	bc ec       	ldi	r27, 0xCC	; 204
    13da:	0e 94 70 1d 	call	0x3ae0	; 0x3ae0 <__umulhisi3>
    13de:	96 95       	lsr	r25
    13e0:	87 95       	ror	r24
    13e2:	96 95       	lsr	r25
    13e4:	87 95       	ror	r24
    13e6:	96 95       	lsr	r25
    13e8:	87 95       	ror	r24
    13ea:	88 0f       	add	r24, r24
    13ec:	99 1f       	adc	r25, r25
    13ee:	9c 01       	movw	r18, r24
    13f0:	22 0f       	add	r18, r18
    13f2:	33 1f       	adc	r19, r19
    13f4:	22 0f       	add	r18, r18
    13f6:	33 1f       	adc	r19, r19
    13f8:	82 0f       	add	r24, r18
    13fa:	93 1f       	adc	r25, r19
    13fc:	fa 01       	movw	r30, r20
    13fe:	e8 1b       	sub	r30, r24
    1400:	f9 0b       	sbc	r31, r25
    1402:	cf 01       	movw	r24, r30
    1404:	28 2f       	mov	r18, r24
    1406:	8b 81       	ldd	r24, Y+3	; 0x03
    1408:	9c 81       	ldd	r25, Y+4	; 0x04
    140a:	40 e0       	ldi	r20, 0x00	; 0
    140c:	64 e0       	ldi	r22, 0x04	; 4
    140e:	0e 94 c4 13 	call	0x2788	; 0x2788 <display_small_number>
    1412:	40 91 a8 02 	lds	r20, 0x02A8	; 0x8002a8 <__data_end>
    1416:	50 91 a9 02 	lds	r21, 0x02A9	; 0x8002a9 <__data_end+0x1>
	
	display_small_number(display,6, 1,ts_voltage%10);
    141a:	9a 01       	movw	r18, r20
    141c:	ad ec       	ldi	r26, 0xCD	; 205
    141e:	bc ec       	ldi	r27, 0xCC	; 204
    1420:	0e 94 70 1d 	call	0x3ae0	; 0x3ae0 <__umulhisi3>
    1424:	96 95       	lsr	r25
    1426:	87 95       	ror	r24
    1428:	96 95       	lsr	r25
    142a:	87 95       	ror	r24
    142c:	96 95       	lsr	r25
    142e:	87 95       	ror	r24
    1430:	88 0f       	add	r24, r24
    1432:	99 1f       	adc	r25, r25
    1434:	9c 01       	movw	r18, r24
    1436:	22 0f       	add	r18, r18
    1438:	33 1f       	adc	r19, r19
    143a:	22 0f       	add	r18, r18
    143c:	33 1f       	adc	r19, r19
    143e:	82 0f       	add	r24, r18
    1440:	93 1f       	adc	r25, r19
    1442:	9a 01       	movw	r18, r20
    1444:	28 1b       	sub	r18, r24
    1446:	39 0b       	sbc	r19, r25
    1448:	c9 01       	movw	r24, r18
    144a:	28 2f       	mov	r18, r24
    144c:	8b 81       	ldd	r24, Y+3	; 0x03
    144e:	9c 81       	ldd	r25, Y+4	; 0x04
    1450:	41 e0       	ldi	r20, 0x01	; 1
    1452:	66 e0       	ldi	r22, 0x06	; 6
    1454:	0e 94 c4 13 	call	0x2788	; 0x2788 <display_small_number>
    1458:	80 91 a8 02 	lds	r24, 0x02A8	; 0x8002a8 <__data_end>
    145c:	90 91 a9 02 	lds	r25, 0x02A9	; 0x8002a9 <__data_end+0x1>
	display_small_number(display,5, 1, (ts_voltage/10)%10);
    1460:	9c 01       	movw	r18, r24
    1462:	ad ec       	ldi	r26, 0xCD	; 205
    1464:	bc ec       	ldi	r27, 0xCC	; 204
    1466:	0e 94 70 1d 	call	0x3ae0	; 0x3ae0 <__umulhisi3>
    146a:	ac 01       	movw	r20, r24
    146c:	56 95       	lsr	r21
    146e:	47 95       	ror	r20
    1470:	56 95       	lsr	r21
    1472:	47 95       	ror	r20
    1474:	56 95       	lsr	r21
    1476:	47 95       	ror	r20
    1478:	9a 01       	movw	r18, r20
    147a:	ad ec       	ldi	r26, 0xCD	; 205
    147c:	bc ec       	ldi	r27, 0xCC	; 204
    147e:	0e 94 70 1d 	call	0x3ae0	; 0x3ae0 <__umulhisi3>
    1482:	96 95       	lsr	r25
    1484:	87 95       	ror	r24
    1486:	96 95       	lsr	r25
    1488:	87 95       	ror	r24
    148a:	96 95       	lsr	r25
    148c:	87 95       	ror	r24
    148e:	88 0f       	add	r24, r24
    1490:	99 1f       	adc	r25, r25
    1492:	9c 01       	movw	r18, r24
    1494:	22 0f       	add	r18, r18
    1496:	33 1f       	adc	r19, r19
    1498:	22 0f       	add	r18, r18
    149a:	33 1f       	adc	r19, r19
    149c:	82 0f       	add	r24, r18
    149e:	93 1f       	adc	r25, r19
    14a0:	fa 01       	movw	r30, r20
    14a2:	e8 1b       	sub	r30, r24
    14a4:	f9 0b       	sbc	r31, r25
    14a6:	cf 01       	movw	r24, r30
    14a8:	28 2f       	mov	r18, r24
    14aa:	8b 81       	ldd	r24, Y+3	; 0x03
    14ac:	9c 81       	ldd	r25, Y+4	; 0x04
    14ae:	41 e0       	ldi	r20, 0x01	; 1
    14b0:	65 e0       	ldi	r22, 0x05	; 5
    14b2:	0e 94 c4 13 	call	0x2788	; 0x2788 <display_small_number>
    14b6:	80 91 a8 02 	lds	r24, 0x02A8	; 0x8002a8 <__data_end>
    14ba:	90 91 a9 02 	lds	r25, 0x02A9	; 0x8002a9 <__data_end+0x1>
	display_small_number(display,4, 1, (ts_voltage/100)%10);
    14be:	96 95       	lsr	r25
    14c0:	87 95       	ror	r24
    14c2:	96 95       	lsr	r25
    14c4:	87 95       	ror	r24
    14c6:	9c 01       	movw	r18, r24
    14c8:	ab e7       	ldi	r26, 0x7B	; 123
    14ca:	b4 e1       	ldi	r27, 0x14	; 20
    14cc:	0e 94 70 1d 	call	0x3ae0	; 0x3ae0 <__umulhisi3>
    14d0:	ac 01       	movw	r20, r24
    14d2:	56 95       	lsr	r21
    14d4:	47 95       	ror	r20
    14d6:	9a 01       	movw	r18, r20
    14d8:	ad ec       	ldi	r26, 0xCD	; 205
    14da:	bc ec       	ldi	r27, 0xCC	; 204
    14dc:	0e 94 70 1d 	call	0x3ae0	; 0x3ae0 <__umulhisi3>
    14e0:	96 95       	lsr	r25
    14e2:	87 95       	ror	r24
    14e4:	96 95       	lsr	r25
    14e6:	87 95       	ror	r24
    14e8:	96 95       	lsr	r25
    14ea:	87 95       	ror	r24
    14ec:	88 0f       	add	r24, r24
    14ee:	99 1f       	adc	r25, r25
    14f0:	9c 01       	movw	r18, r24
    14f2:	22 0f       	add	r18, r18
    14f4:	33 1f       	adc	r19, r19
    14f6:	22 0f       	add	r18, r18
    14f8:	33 1f       	adc	r19, r19
    14fa:	82 0f       	add	r24, r18
    14fc:	93 1f       	adc	r25, r19
    14fe:	9a 01       	movw	r18, r20
    1500:	28 1b       	sub	r18, r24
    1502:	39 0b       	sbc	r19, r25
    1504:	c9 01       	movw	r24, r18
    1506:	28 2f       	mov	r18, r24
    1508:	8b 81       	ldd	r24, Y+3	; 0x03
    150a:	9c 81       	ldd	r25, Y+4	; 0x04
    150c:	41 e0       	ldi	r20, 0x01	; 1
    150e:	64 e0       	ldi	r22, 0x04	; 4
    1510:	0e 94 c4 13 	call	0x2788	; 0x2788 <display_small_number>
    1514:	40 91 b7 02 	lds	r20, 0x02B7	; 0x8002b7 <bms_max_temp>
    1518:	50 91 b8 02 	lds	r21, 0x02B8	; 0x8002b8 <bms_max_temp+0x1>
	
	display_small_number(display,18, 1,bms_max_temp%10);
    151c:	9a 01       	movw	r18, r20
    151e:	ad ec       	ldi	r26, 0xCD	; 205
    1520:	bc ec       	ldi	r27, 0xCC	; 204
    1522:	0e 94 70 1d 	call	0x3ae0	; 0x3ae0 <__umulhisi3>
    1526:	96 95       	lsr	r25
    1528:	87 95       	ror	r24
    152a:	96 95       	lsr	r25
    152c:	87 95       	ror	r24
    152e:	96 95       	lsr	r25
    1530:	87 95       	ror	r24
    1532:	88 0f       	add	r24, r24
    1534:	99 1f       	adc	r25, r25
    1536:	9c 01       	movw	r18, r24
    1538:	22 0f       	add	r18, r18
    153a:	33 1f       	adc	r19, r19
    153c:	22 0f       	add	r18, r18
    153e:	33 1f       	adc	r19, r19
    1540:	82 0f       	add	r24, r18
    1542:	93 1f       	adc	r25, r19
    1544:	fa 01       	movw	r30, r20
    1546:	e8 1b       	sub	r30, r24
    1548:	f9 0b       	sbc	r31, r25
    154a:	cf 01       	movw	r24, r30
    154c:	28 2f       	mov	r18, r24
    154e:	8b 81       	ldd	r24, Y+3	; 0x03
    1550:	9c 81       	ldd	r25, Y+4	; 0x04
    1552:	41 e0       	ldi	r20, 0x01	; 1
    1554:	62 e1       	ldi	r22, 0x12	; 18
    1556:	0e 94 c4 13 	call	0x2788	; 0x2788 <display_small_number>
    155a:	80 91 b7 02 	lds	r24, 0x02B7	; 0x8002b7 <bms_max_temp>
    155e:	90 91 b8 02 	lds	r25, 0x02B8	; 0x8002b8 <bms_max_temp+0x1>
	display_small_number(display,16, 1, (bms_max_temp/10)%10);
    1562:	9c 01       	movw	r18, r24
    1564:	ad ec       	ldi	r26, 0xCD	; 205
    1566:	bc ec       	ldi	r27, 0xCC	; 204
    1568:	0e 94 70 1d 	call	0x3ae0	; 0x3ae0 <__umulhisi3>
    156c:	ac 01       	movw	r20, r24
    156e:	56 95       	lsr	r21
    1570:	47 95       	ror	r20
    1572:	56 95       	lsr	r21
    1574:	47 95       	ror	r20
    1576:	56 95       	lsr	r21
    1578:	47 95       	ror	r20
    157a:	9a 01       	movw	r18, r20
    157c:	ad ec       	ldi	r26, 0xCD	; 205
    157e:	bc ec       	ldi	r27, 0xCC	; 204
    1580:	0e 94 70 1d 	call	0x3ae0	; 0x3ae0 <__umulhisi3>
    1584:	96 95       	lsr	r25
    1586:	87 95       	ror	r24
    1588:	96 95       	lsr	r25
    158a:	87 95       	ror	r24
    158c:	96 95       	lsr	r25
    158e:	87 95       	ror	r24
    1590:	88 0f       	add	r24, r24
    1592:	99 1f       	adc	r25, r25
    1594:	9c 01       	movw	r18, r24
    1596:	22 0f       	add	r18, r18
    1598:	33 1f       	adc	r19, r19
    159a:	22 0f       	add	r18, r18
    159c:	33 1f       	adc	r19, r19
    159e:	82 0f       	add	r24, r18
    15a0:	93 1f       	adc	r25, r19
    15a2:	9a 01       	movw	r18, r20
    15a4:	28 1b       	sub	r18, r24
    15a6:	39 0b       	sbc	r19, r25
    15a8:	c9 01       	movw	r24, r18
    15aa:	28 2f       	mov	r18, r24
    15ac:	8b 81       	ldd	r24, Y+3	; 0x03
    15ae:	9c 81       	ldd	r25, Y+4	; 0x04
    15b0:	41 e0       	ldi	r20, 0x01	; 1
    15b2:	60 e1       	ldi	r22, 0x10	; 16
    15b4:	0e 94 c4 13 	call	0x2788	; 0x2788 <display_small_number>
    15b8:	80 91 b7 02 	lds	r24, 0x02B7	; 0x8002b7 <bms_max_temp>
    15bc:	90 91 b8 02 	lds	r25, 0x02B8	; 0x8002b8 <bms_max_temp+0x1>
	display_small_number(display,15, 1, (bms_max_temp/100)%10);
    15c0:	96 95       	lsr	r25
    15c2:	87 95       	ror	r24
    15c4:	96 95       	lsr	r25
    15c6:	87 95       	ror	r24
    15c8:	9c 01       	movw	r18, r24
    15ca:	ab e7       	ldi	r26, 0x7B	; 123
    15cc:	b4 e1       	ldi	r27, 0x14	; 20
    15ce:	0e 94 70 1d 	call	0x3ae0	; 0x3ae0 <__umulhisi3>
    15d2:	ac 01       	movw	r20, r24
    15d4:	56 95       	lsr	r21
    15d6:	47 95       	ror	r20
    15d8:	9a 01       	movw	r18, r20
    15da:	ad ec       	ldi	r26, 0xCD	; 205
    15dc:	bc ec       	ldi	r27, 0xCC	; 204
    15de:	0e 94 70 1d 	call	0x3ae0	; 0x3ae0 <__umulhisi3>
    15e2:	96 95       	lsr	r25
    15e4:	87 95       	ror	r24
    15e6:	96 95       	lsr	r25
    15e8:	87 95       	ror	r24
    15ea:	96 95       	lsr	r25
    15ec:	87 95       	ror	r24
    15ee:	88 0f       	add	r24, r24
    15f0:	99 1f       	adc	r25, r25
    15f2:	9c 01       	movw	r18, r24
    15f4:	22 0f       	add	r18, r18
    15f6:	33 1f       	adc	r19, r19
    15f8:	22 0f       	add	r18, r18
    15fa:	33 1f       	adc	r19, r19
    15fc:	82 0f       	add	r24, r18
    15fe:	93 1f       	adc	r25, r19
    1600:	fa 01       	movw	r30, r20
    1602:	e8 1b       	sub	r30, r24
    1604:	f9 0b       	sbc	r31, r25
    1606:	cf 01       	movw	r24, r30
    1608:	28 2f       	mov	r18, r24
    160a:	8b 81       	ldd	r24, Y+3	; 0x03
    160c:	9c 81       	ldd	r25, Y+4	; 0x04
    160e:	41 e0       	ldi	r20, 0x01	; 1
    1610:	6f e0       	ldi	r22, 0x0F	; 15
    1612:	0e 94 c4 13 	call	0x2788	; 0x2788 <display_small_number>
    1616:	40 91 d8 02 	lds	r20, 0x02D8	; 0x8002d8 <battery_voltage>
    161a:	50 91 d9 02 	lds	r21, 0x02D9	; 0x8002d9 <battery_voltage+0x1>
	
	display_small_number(display,7, 2,battery_voltage%10) ;
    161e:	9a 01       	movw	r18, r20
    1620:	ad ec       	ldi	r26, 0xCD	; 205
    1622:	bc ec       	ldi	r27, 0xCC	; 204
    1624:	0e 94 70 1d 	call	0x3ae0	; 0x3ae0 <__umulhisi3>
    1628:	96 95       	lsr	r25
    162a:	87 95       	ror	r24
    162c:	96 95       	lsr	r25
    162e:	87 95       	ror	r24
    1630:	96 95       	lsr	r25
    1632:	87 95       	ror	r24
    1634:	88 0f       	add	r24, r24
    1636:	99 1f       	adc	r25, r25
    1638:	9c 01       	movw	r18, r24
    163a:	22 0f       	add	r18, r18
    163c:	33 1f       	adc	r19, r19
    163e:	22 0f       	add	r18, r18
    1640:	33 1f       	adc	r19, r19
    1642:	82 0f       	add	r24, r18
    1644:	93 1f       	adc	r25, r19
    1646:	9a 01       	movw	r18, r20
    1648:	28 1b       	sub	r18, r24
    164a:	39 0b       	sbc	r19, r25
    164c:	c9 01       	movw	r24, r18
    164e:	28 2f       	mov	r18, r24
    1650:	8b 81       	ldd	r24, Y+3	; 0x03
    1652:	9c 81       	ldd	r25, Y+4	; 0x04
    1654:	42 e0       	ldi	r20, 0x02	; 2
    1656:	67 e0       	ldi	r22, 0x07	; 7
    1658:	0e 94 c4 13 	call	0x2788	; 0x2788 <display_small_number>
    165c:	80 91 d8 02 	lds	r24, 0x02D8	; 0x8002d8 <battery_voltage>
    1660:	90 91 d9 02 	lds	r25, 0x02D9	; 0x8002d9 <battery_voltage+0x1>
	display_small_number(display,5, 2, (battery_voltage/10)%10);
    1664:	9c 01       	movw	r18, r24
    1666:	ad ec       	ldi	r26, 0xCD	; 205
    1668:	bc ec       	ldi	r27, 0xCC	; 204
    166a:	0e 94 70 1d 	call	0x3ae0	; 0x3ae0 <__umulhisi3>
    166e:	ac 01       	movw	r20, r24
    1670:	56 95       	lsr	r21
    1672:	47 95       	ror	r20
    1674:	56 95       	lsr	r21
    1676:	47 95       	ror	r20
    1678:	56 95       	lsr	r21
    167a:	47 95       	ror	r20
    167c:	9a 01       	movw	r18, r20
    167e:	ad ec       	ldi	r26, 0xCD	; 205
    1680:	bc ec       	ldi	r27, 0xCC	; 204
    1682:	0e 94 70 1d 	call	0x3ae0	; 0x3ae0 <__umulhisi3>
    1686:	96 95       	lsr	r25
    1688:	87 95       	ror	r24
    168a:	96 95       	lsr	r25
    168c:	87 95       	ror	r24
    168e:	96 95       	lsr	r25
    1690:	87 95       	ror	r24
    1692:	88 0f       	add	r24, r24
    1694:	99 1f       	adc	r25, r25
    1696:	9c 01       	movw	r18, r24
    1698:	22 0f       	add	r18, r18
    169a:	33 1f       	adc	r19, r19
    169c:	22 0f       	add	r18, r18
    169e:	33 1f       	adc	r19, r19
    16a0:	82 0f       	add	r24, r18
    16a2:	93 1f       	adc	r25, r19
    16a4:	fa 01       	movw	r30, r20
    16a6:	e8 1b       	sub	r30, r24
    16a8:	f9 0b       	sbc	r31, r25
    16aa:	cf 01       	movw	r24, r30
    16ac:	28 2f       	mov	r18, r24
    16ae:	8b 81       	ldd	r24, Y+3	; 0x03
    16b0:	9c 81       	ldd	r25, Y+4	; 0x04
    16b2:	42 e0       	ldi	r20, 0x02	; 2
    16b4:	65 e0       	ldi	r22, 0x05	; 5
    16b6:	0e 94 c4 13 	call	0x2788	; 0x2788 <display_small_number>
    16ba:	80 91 d8 02 	lds	r24, 0x02D8	; 0x8002d8 <battery_voltage>
    16be:	90 91 d9 02 	lds	r25, 0x02D9	; 0x8002d9 <battery_voltage+0x1>
	display_small_number(display,4, 2, (battery_voltage/100)%10);
    16c2:	96 95       	lsr	r25
    16c4:	87 95       	ror	r24
    16c6:	96 95       	lsr	r25
    16c8:	87 95       	ror	r24
    16ca:	9c 01       	movw	r18, r24
    16cc:	ab e7       	ldi	r26, 0x7B	; 123
    16ce:	b4 e1       	ldi	r27, 0x14	; 20
    16d0:	0e 94 70 1d 	call	0x3ae0	; 0x3ae0 <__umulhisi3>
    16d4:	ac 01       	movw	r20, r24
    16d6:	56 95       	lsr	r21
    16d8:	47 95       	ror	r20
    16da:	9a 01       	movw	r18, r20
    16dc:	ad ec       	ldi	r26, 0xCD	; 205
    16de:	bc ec       	ldi	r27, 0xCC	; 204
    16e0:	0e 94 70 1d 	call	0x3ae0	; 0x3ae0 <__umulhisi3>
    16e4:	96 95       	lsr	r25
    16e6:	87 95       	ror	r24
    16e8:	96 95       	lsr	r25
    16ea:	87 95       	ror	r24
    16ec:	96 95       	lsr	r25
    16ee:	87 95       	ror	r24
    16f0:	88 0f       	add	r24, r24
    16f2:	99 1f       	adc	r25, r25
    16f4:	9c 01       	movw	r18, r24
    16f6:	22 0f       	add	r18, r18
    16f8:	33 1f       	adc	r19, r19
    16fa:	22 0f       	add	r18, r18
    16fc:	33 1f       	adc	r19, r19
    16fe:	82 0f       	add	r24, r18
    1700:	93 1f       	adc	r25, r19
    1702:	9a 01       	movw	r18, r20
    1704:	28 1b       	sub	r18, r24
    1706:	39 0b       	sbc	r19, r25
    1708:	c9 01       	movw	r24, r18
    170a:	28 2f       	mov	r18, r24
    170c:	8b 81       	ldd	r24, Y+3	; 0x03
    170e:	9c 81       	ldd	r25, Y+4	; 0x04
    1710:	42 e0       	ldi	r20, 0x02	; 2
    1712:	64 e0       	ldi	r22, 0x04	; 4
    1714:	0e 94 c4 13 	call	0x2788	; 0x2788 <display_small_number>
    1718:	40 91 bd 02 	lds	r20, 0x02BD	; 0x8002bd <APPS2>
    171c:	50 91 be 02 	lds	r21, 0x02BE	; 0x8002be <APPS2+0x1>
	
	display_small_number(display,6, 3,APPS2%10) ;
    1720:	9a 01       	movw	r18, r20
    1722:	ad ec       	ldi	r26, 0xCD	; 205
    1724:	bc ec       	ldi	r27, 0xCC	; 204
    1726:	0e 94 70 1d 	call	0x3ae0	; 0x3ae0 <__umulhisi3>
    172a:	96 95       	lsr	r25
    172c:	87 95       	ror	r24
    172e:	96 95       	lsr	r25
    1730:	87 95       	ror	r24
    1732:	96 95       	lsr	r25
    1734:	87 95       	ror	r24
    1736:	88 0f       	add	r24, r24
    1738:	99 1f       	adc	r25, r25
    173a:	9c 01       	movw	r18, r24
    173c:	22 0f       	add	r18, r18
    173e:	33 1f       	adc	r19, r19
    1740:	22 0f       	add	r18, r18
    1742:	33 1f       	adc	r19, r19
    1744:	82 0f       	add	r24, r18
    1746:	93 1f       	adc	r25, r19
    1748:	fa 01       	movw	r30, r20
    174a:	e8 1b       	sub	r30, r24
    174c:	f9 0b       	sbc	r31, r25
    174e:	cf 01       	movw	r24, r30
    1750:	28 2f       	mov	r18, r24
    1752:	8b 81       	ldd	r24, Y+3	; 0x03
    1754:	9c 81       	ldd	r25, Y+4	; 0x04
    1756:	43 e0       	ldi	r20, 0x03	; 3
    1758:	66 e0       	ldi	r22, 0x06	; 6
    175a:	0e 94 c4 13 	call	0x2788	; 0x2788 <display_small_number>
    175e:	80 91 bd 02 	lds	r24, 0x02BD	; 0x8002bd <APPS2>
    1762:	90 91 be 02 	lds	r25, 0x02BE	; 0x8002be <APPS2+0x1>
	display_small_number(display,5, 3, (APPS2/10)%10);
    1766:	9c 01       	movw	r18, r24
    1768:	ad ec       	ldi	r26, 0xCD	; 205
    176a:	bc ec       	ldi	r27, 0xCC	; 204
    176c:	0e 94 70 1d 	call	0x3ae0	; 0x3ae0 <__umulhisi3>
    1770:	ac 01       	movw	r20, r24
    1772:	56 95       	lsr	r21
    1774:	47 95       	ror	r20
    1776:	56 95       	lsr	r21
    1778:	47 95       	ror	r20
    177a:	56 95       	lsr	r21
    177c:	47 95       	ror	r20
    177e:	9a 01       	movw	r18, r20
    1780:	ad ec       	ldi	r26, 0xCD	; 205
    1782:	bc ec       	ldi	r27, 0xCC	; 204
    1784:	0e 94 70 1d 	call	0x3ae0	; 0x3ae0 <__umulhisi3>
    1788:	96 95       	lsr	r25
    178a:	87 95       	ror	r24
    178c:	96 95       	lsr	r25
    178e:	87 95       	ror	r24
    1790:	96 95       	lsr	r25
    1792:	87 95       	ror	r24
    1794:	88 0f       	add	r24, r24
    1796:	99 1f       	adc	r25, r25
    1798:	9c 01       	movw	r18, r24
    179a:	22 0f       	add	r18, r18
    179c:	33 1f       	adc	r19, r19
    179e:	22 0f       	add	r18, r18
    17a0:	33 1f       	adc	r19, r19
    17a2:	82 0f       	add	r24, r18
    17a4:	93 1f       	adc	r25, r19
    17a6:	9a 01       	movw	r18, r20
    17a8:	28 1b       	sub	r18, r24
    17aa:	39 0b       	sbc	r19, r25
    17ac:	c9 01       	movw	r24, r18
    17ae:	28 2f       	mov	r18, r24
    17b0:	8b 81       	ldd	r24, Y+3	; 0x03
    17b2:	9c 81       	ldd	r25, Y+4	; 0x04
    17b4:	43 e0       	ldi	r20, 0x03	; 3
    17b6:	65 e0       	ldi	r22, 0x05	; 5
    17b8:	e7 d7       	rcall	.+4046   	; 0x2788 <display_small_number>
    17ba:	00 00       	nop
    17bc:	0f 90       	pop	r0
    17be:	0f 90       	pop	r0
	
	//display_small_number(display,18, 2, cooling_1%10) ;
	//display_small_number(display,16, 2, (cooling_1/10)%10);
	//display_small_number(display,15, 2, (cooling_1/100)%10);
	
}
    17c0:	0f 90       	pop	r0
    17c2:	0f 90       	pop	r0
    17c4:	df 91       	pop	r29
    17c6:	cf 91       	pop	r28
    17c8:	08 95       	ret

000017ca <display_debug>:
    17ca:	cf 93       	push	r28
    17cc:	df 93       	push	r29
    17ce:	00 d0       	rcall	.+0      	; 0x17d0 <display_debug+0x6>
void display_debug(struct DISPLAY_PAGE *display)
{
    17d0:	00 d0       	rcall	.+0      	; 0x17d2 <display_debug+0x8>
    17d2:	cd b7       	in	r28, 0x3d	; 61
    17d4:	de b7       	in	r29, 0x3e	; 62
    17d6:	9c 83       	std	Y+4, r25	; 0x04
    17d8:	8b 83       	std	Y+3, r24	; 0x03
    17da:	19 82       	std	Y+1, r1	; 0x01
    17dc:	1a 82       	std	Y+2, r1	; 0x02
    17de:	80 e2       	ldi	r24, 0x20	; 32
	uint8_t TS_ON = 0;
    17e0:	90 e0       	ldi	r25, 0x00	; 0
	uint8_t Ready_2_Drive = 0;
    17e2:	fc 01       	movw	r30, r24
	
	TS_ON = (~PINA & (1 << PA0));
    17e4:	80 81       	ld	r24, Z
    17e6:	88 2f       	mov	r24, r24
    17e8:	90 e0       	ldi	r25, 0x00	; 0
    17ea:	81 70       	andi	r24, 0x01	; 1
    17ec:	99 27       	eor	r25, r25
    17ee:	21 e0       	ldi	r18, 0x01	; 1
    17f0:	89 2b       	or	r24, r25
    17f2:	09 f0       	breq	.+2      	; 0x17f6 <display_debug+0x2c>
    17f4:	20 e0       	ldi	r18, 0x00	; 0
    17f6:	29 83       	std	Y+1, r18	; 0x01
    17f8:	80 e2       	ldi	r24, 0x20	; 32
    17fa:	90 e0       	ldi	r25, 0x00	; 0
	Ready_2_Drive = ((~PINA & (1 << PA1)) >> PA1);
    17fc:	fc 01       	movw	r30, r24
    17fe:	80 81       	ld	r24, Z
    1800:	88 2f       	mov	r24, r24
    1802:	90 e0       	ldi	r25, 0x00	; 0
    1804:	80 95       	com	r24
    1806:	90 95       	com	r25
    1808:	82 70       	andi	r24, 0x02	; 2
    180a:	99 27       	eor	r25, r25
    180c:	95 95       	asr	r25
    180e:	87 95       	ror	r24
    1810:	8a 83       	std	Y+2, r24	; 0x02
	display_write_str(display,"TSV:   V  ACCU:  . C", 0, 0);
    1812:	8b 81       	ldd	r24, Y+3	; 0x03
    1814:	9c 81       	ldd	r25, Y+4	; 0x04
    1816:	20 e0       	ldi	r18, 0x00	; 0
    1818:	40 e0       	ldi	r20, 0x00	; 0
    181a:	61 e2       	ldi	r22, 0x21	; 33
    181c:	71 e0       	ldi	r23, 0x01	; 1
    181e:	42 dc       	rcall	.-1916   	; 0x10a4 <display_write_str>
	display_write_str(display,"LVV:  . V COOL:  . C", 1, 0);
    1820:	8b 81       	ldd	r24, Y+3	; 0x03
    1822:	9c 81       	ldd	r25, Y+4	; 0x04
    1824:	20 e0       	ldi	r18, 0x00	; 0
    1826:	41 e0       	ldi	r20, 0x01	; 1
    1828:	60 e6       	ldi	r22, 0x60	; 96
    182a:	71 e0       	ldi	r23, 0x01	; 1
    182c:	3b dc       	rcall	.-1930   	; 0x10a4 <display_write_str>
    182e:	8b 81       	ldd	r24, Y+3	; 0x03
	display_write_str(display,"APPS1:  %  APPS2:  %", 2, 0);
    1830:	9c 81       	ldd	r25, Y+4	; 0x04
    1832:	20 e0       	ldi	r18, 0x00	; 0
    1834:	42 e0       	ldi	r20, 0x02	; 2
    1836:	65 e7       	ldi	r22, 0x75	; 117
    1838:	71 e0       	ldi	r23, 0x01	; 1
    183a:	34 dc       	rcall	.-1944   	; 0x10a4 <display_write_str>
    183c:	8b 81       	ldd	r24, Y+3	; 0x03
    183e:	9c 81       	ldd	r25, Y+4	; 0x04
	display_write_str(display,"BPF:  BPR:          ", 3, 0);
    1840:	20 e0       	ldi	r18, 0x00	; 0
    1842:	43 e0       	ldi	r20, 0x03	; 3
    1844:	6a e8       	ldi	r22, 0x8A	; 138
    1846:	71 e0       	ldi	r23, 0x01	; 1
    1848:	2d dc       	rcall	.-1958   	; 0x10a4 <display_write_str>
    184a:	40 91 a8 02 	lds	r20, 0x02A8	; 0x8002a8 <__data_end>
    184e:	50 91 a9 02 	lds	r21, 0x02A9	; 0x8002a9 <__data_end+0x1>
	
	display_small_number(display,6, 0,ts_voltage%10) ;
    1852:	9a 01       	movw	r18, r20
    1854:	ad ec       	ldi	r26, 0xCD	; 205
    1856:	bc ec       	ldi	r27, 0xCC	; 204
    1858:	0e 94 70 1d 	call	0x3ae0	; 0x3ae0 <__umulhisi3>
    185c:	96 95       	lsr	r25
    185e:	87 95       	ror	r24
    1860:	96 95       	lsr	r25
    1862:	87 95       	ror	r24
    1864:	96 95       	lsr	r25
    1866:	87 95       	ror	r24
    1868:	88 0f       	add	r24, r24
    186a:	99 1f       	adc	r25, r25
    186c:	9c 01       	movw	r18, r24
    186e:	22 0f       	add	r18, r18
    1870:	33 1f       	adc	r19, r19
    1872:	22 0f       	add	r18, r18
    1874:	33 1f       	adc	r19, r19
    1876:	82 0f       	add	r24, r18
    1878:	93 1f       	adc	r25, r19
    187a:	9a 01       	movw	r18, r20
    187c:	28 1b       	sub	r18, r24
    187e:	39 0b       	sbc	r19, r25
    1880:	c9 01       	movw	r24, r18
    1882:	28 2f       	mov	r18, r24
    1884:	8b 81       	ldd	r24, Y+3	; 0x03
    1886:	9c 81       	ldd	r25, Y+4	; 0x04
    1888:	40 e0       	ldi	r20, 0x00	; 0
    188a:	66 e0       	ldi	r22, 0x06	; 6
    188c:	7d d7       	rcall	.+3834   	; 0x2788 <display_small_number>
    188e:	80 91 a8 02 	lds	r24, 0x02A8	; 0x8002a8 <__data_end>
    1892:	90 91 a9 02 	lds	r25, 0x02A9	; 0x8002a9 <__data_end+0x1>
	display_small_number(display,5, 0, (ts_voltage/10)%10);
    1896:	9c 01       	movw	r18, r24
    1898:	ad ec       	ldi	r26, 0xCD	; 205
    189a:	bc ec       	ldi	r27, 0xCC	; 204
    189c:	0e 94 70 1d 	call	0x3ae0	; 0x3ae0 <__umulhisi3>
    18a0:	ac 01       	movw	r20, r24
    18a2:	56 95       	lsr	r21
    18a4:	47 95       	ror	r20
    18a6:	56 95       	lsr	r21
    18a8:	47 95       	ror	r20
    18aa:	56 95       	lsr	r21
    18ac:	47 95       	ror	r20
    18ae:	9a 01       	movw	r18, r20
    18b0:	ad ec       	ldi	r26, 0xCD	; 205
    18b2:	bc ec       	ldi	r27, 0xCC	; 204
    18b4:	0e 94 70 1d 	call	0x3ae0	; 0x3ae0 <__umulhisi3>
    18b8:	96 95       	lsr	r25
    18ba:	87 95       	ror	r24
    18bc:	96 95       	lsr	r25
    18be:	87 95       	ror	r24
    18c0:	96 95       	lsr	r25
    18c2:	87 95       	ror	r24
    18c4:	88 0f       	add	r24, r24
    18c6:	99 1f       	adc	r25, r25
    18c8:	9c 01       	movw	r18, r24
    18ca:	22 0f       	add	r18, r18
    18cc:	33 1f       	adc	r19, r19
    18ce:	22 0f       	add	r18, r18
    18d0:	33 1f       	adc	r19, r19
    18d2:	82 0f       	add	r24, r18
    18d4:	93 1f       	adc	r25, r19
    18d6:	fa 01       	movw	r30, r20
    18d8:	e8 1b       	sub	r30, r24
    18da:	f9 0b       	sbc	r31, r25
    18dc:	cf 01       	movw	r24, r30
    18de:	28 2f       	mov	r18, r24
    18e0:	8b 81       	ldd	r24, Y+3	; 0x03
    18e2:	9c 81       	ldd	r25, Y+4	; 0x04
    18e4:	40 e0       	ldi	r20, 0x00	; 0
    18e6:	65 e0       	ldi	r22, 0x05	; 5
    18e8:	4f d7       	rcall	.+3742   	; 0x2788 <display_small_number>
    18ea:	80 91 a8 02 	lds	r24, 0x02A8	; 0x8002a8 <__data_end>
    18ee:	90 91 a9 02 	lds	r25, 0x02A9	; 0x8002a9 <__data_end+0x1>
	display_small_number(display,4, 0, (ts_voltage/100)%10);
    18f2:	96 95       	lsr	r25
    18f4:	87 95       	ror	r24
    18f6:	96 95       	lsr	r25
    18f8:	87 95       	ror	r24
    18fa:	9c 01       	movw	r18, r24
    18fc:	ab e7       	ldi	r26, 0x7B	; 123
    18fe:	b4 e1       	ldi	r27, 0x14	; 20
    1900:	0e 94 70 1d 	call	0x3ae0	; 0x3ae0 <__umulhisi3>
    1904:	ac 01       	movw	r20, r24
    1906:	56 95       	lsr	r21
    1908:	47 95       	ror	r20
    190a:	9a 01       	movw	r18, r20
    190c:	ad ec       	ldi	r26, 0xCD	; 205
    190e:	bc ec       	ldi	r27, 0xCC	; 204
    1910:	0e 94 70 1d 	call	0x3ae0	; 0x3ae0 <__umulhisi3>
    1914:	96 95       	lsr	r25
    1916:	87 95       	ror	r24
    1918:	96 95       	lsr	r25
    191a:	87 95       	ror	r24
    191c:	96 95       	lsr	r25
    191e:	87 95       	ror	r24
    1920:	88 0f       	add	r24, r24
    1922:	99 1f       	adc	r25, r25
    1924:	9c 01       	movw	r18, r24
    1926:	22 0f       	add	r18, r18
    1928:	33 1f       	adc	r19, r19
    192a:	22 0f       	add	r18, r18
    192c:	33 1f       	adc	r19, r19
    192e:	82 0f       	add	r24, r18
    1930:	93 1f       	adc	r25, r19
    1932:	9a 01       	movw	r18, r20
    1934:	28 1b       	sub	r18, r24
    1936:	39 0b       	sbc	r19, r25
    1938:	c9 01       	movw	r24, r18
    193a:	28 2f       	mov	r18, r24
    193c:	8b 81       	ldd	r24, Y+3	; 0x03
    193e:	9c 81       	ldd	r25, Y+4	; 0x04
    1940:	40 e0       	ldi	r20, 0x00	; 0
    1942:	64 e0       	ldi	r22, 0x04	; 4
    1944:	21 d7       	rcall	.+3650   	; 0x2788 <display_small_number>
    1946:	40 91 b7 02 	lds	r20, 0x02B7	; 0x8002b7 <bms_max_temp>
    194a:	50 91 b8 02 	lds	r21, 0x02B8	; 0x8002b8 <bms_max_temp+0x1>
	
	display_small_number(display,18, 0,bms_max_temp%10) ;
    194e:	9a 01       	movw	r18, r20
    1950:	ad ec       	ldi	r26, 0xCD	; 205
    1952:	bc ec       	ldi	r27, 0xCC	; 204
    1954:	0e 94 70 1d 	call	0x3ae0	; 0x3ae0 <__umulhisi3>
    1958:	96 95       	lsr	r25
    195a:	87 95       	ror	r24
    195c:	96 95       	lsr	r25
    195e:	87 95       	ror	r24
    1960:	96 95       	lsr	r25
    1962:	87 95       	ror	r24
    1964:	88 0f       	add	r24, r24
    1966:	99 1f       	adc	r25, r25
    1968:	9c 01       	movw	r18, r24
    196a:	22 0f       	add	r18, r18
    196c:	33 1f       	adc	r19, r19
    196e:	22 0f       	add	r18, r18
    1970:	33 1f       	adc	r19, r19
    1972:	82 0f       	add	r24, r18
    1974:	93 1f       	adc	r25, r19
    1976:	fa 01       	movw	r30, r20
    1978:	e8 1b       	sub	r30, r24
    197a:	f9 0b       	sbc	r31, r25
    197c:	cf 01       	movw	r24, r30
    197e:	28 2f       	mov	r18, r24
    1980:	8b 81       	ldd	r24, Y+3	; 0x03
    1982:	9c 81       	ldd	r25, Y+4	; 0x04
    1984:	40 e0       	ldi	r20, 0x00	; 0
    1986:	62 e1       	ldi	r22, 0x12	; 18
    1988:	ff d6       	rcall	.+3582   	; 0x2788 <display_small_number>
    198a:	80 91 b7 02 	lds	r24, 0x02B7	; 0x8002b7 <bms_max_temp>
    198e:	90 91 b8 02 	lds	r25, 0x02B8	; 0x8002b8 <bms_max_temp+0x1>
	display_small_number(display,16, 0, (bms_max_temp/10)%10);
    1992:	9c 01       	movw	r18, r24
    1994:	ad ec       	ldi	r26, 0xCD	; 205
    1996:	bc ec       	ldi	r27, 0xCC	; 204
    1998:	0e 94 70 1d 	call	0x3ae0	; 0x3ae0 <__umulhisi3>
    199c:	ac 01       	movw	r20, r24
    199e:	56 95       	lsr	r21
    19a0:	47 95       	ror	r20
    19a2:	56 95       	lsr	r21
    19a4:	47 95       	ror	r20
    19a6:	56 95       	lsr	r21
    19a8:	47 95       	ror	r20
    19aa:	9a 01       	movw	r18, r20
    19ac:	ad ec       	ldi	r26, 0xCD	; 205
    19ae:	bc ec       	ldi	r27, 0xCC	; 204
    19b0:	0e 94 70 1d 	call	0x3ae0	; 0x3ae0 <__umulhisi3>
    19b4:	96 95       	lsr	r25
    19b6:	87 95       	ror	r24
    19b8:	96 95       	lsr	r25
    19ba:	87 95       	ror	r24
    19bc:	96 95       	lsr	r25
    19be:	87 95       	ror	r24
    19c0:	88 0f       	add	r24, r24
    19c2:	99 1f       	adc	r25, r25
    19c4:	9c 01       	movw	r18, r24
    19c6:	22 0f       	add	r18, r18
    19c8:	33 1f       	adc	r19, r19
    19ca:	22 0f       	add	r18, r18
    19cc:	33 1f       	adc	r19, r19
    19ce:	82 0f       	add	r24, r18
    19d0:	93 1f       	adc	r25, r19
    19d2:	9a 01       	movw	r18, r20
    19d4:	28 1b       	sub	r18, r24
    19d6:	39 0b       	sbc	r19, r25
    19d8:	c9 01       	movw	r24, r18
    19da:	28 2f       	mov	r18, r24
    19dc:	8b 81       	ldd	r24, Y+3	; 0x03
    19de:	9c 81       	ldd	r25, Y+4	; 0x04
    19e0:	40 e0       	ldi	r20, 0x00	; 0
    19e2:	60 e1       	ldi	r22, 0x10	; 16
    19e4:	d1 d6       	rcall	.+3490   	; 0x2788 <display_small_number>
    19e6:	80 91 b7 02 	lds	r24, 0x02B7	; 0x8002b7 <bms_max_temp>
    19ea:	90 91 b8 02 	lds	r25, 0x02B8	; 0x8002b8 <bms_max_temp+0x1>
	display_small_number(display,15, 0, (bms_max_temp/100)%10);
    19ee:	96 95       	lsr	r25
    19f0:	87 95       	ror	r24
    19f2:	96 95       	lsr	r25
    19f4:	87 95       	ror	r24
    19f6:	9c 01       	movw	r18, r24
    19f8:	ab e7       	ldi	r26, 0x7B	; 123
    19fa:	b4 e1       	ldi	r27, 0x14	; 20
    19fc:	0e 94 70 1d 	call	0x3ae0	; 0x3ae0 <__umulhisi3>
    1a00:	ac 01       	movw	r20, r24
    1a02:	56 95       	lsr	r21
    1a04:	47 95       	ror	r20
    1a06:	9a 01       	movw	r18, r20
    1a08:	ad ec       	ldi	r26, 0xCD	; 205
    1a0a:	bc ec       	ldi	r27, 0xCC	; 204
    1a0c:	0e 94 70 1d 	call	0x3ae0	; 0x3ae0 <__umulhisi3>
    1a10:	96 95       	lsr	r25
    1a12:	87 95       	ror	r24
    1a14:	96 95       	lsr	r25
    1a16:	87 95       	ror	r24
    1a18:	96 95       	lsr	r25
    1a1a:	87 95       	ror	r24
    1a1c:	88 0f       	add	r24, r24
    1a1e:	99 1f       	adc	r25, r25
    1a20:	9c 01       	movw	r18, r24
    1a22:	22 0f       	add	r18, r18
    1a24:	33 1f       	adc	r19, r19
    1a26:	22 0f       	add	r18, r18
    1a28:	33 1f       	adc	r19, r19
    1a2a:	82 0f       	add	r24, r18
    1a2c:	93 1f       	adc	r25, r19
    1a2e:	fa 01       	movw	r30, r20
    1a30:	e8 1b       	sub	r30, r24
    1a32:	f9 0b       	sbc	r31, r25
    1a34:	cf 01       	movw	r24, r30
    1a36:	28 2f       	mov	r18, r24
    1a38:	8b 81       	ldd	r24, Y+3	; 0x03
    1a3a:	9c 81       	ldd	r25, Y+4	; 0x04
    1a3c:	40 e0       	ldi	r20, 0x00	; 0
    1a3e:	6f e0       	ldi	r22, 0x0F	; 15
    1a40:	a3 d6       	rcall	.+3398   	; 0x2788 <display_small_number>
    1a42:	40 91 d8 02 	lds	r20, 0x02D8	; 0x8002d8 <battery_voltage>
    1a46:	50 91 d9 02 	lds	r21, 0x02D9	; 0x8002d9 <battery_voltage+0x1>
	
	display_small_number(display,7, 1,battery_voltage%10) ;
    1a4a:	9a 01       	movw	r18, r20
    1a4c:	ad ec       	ldi	r26, 0xCD	; 205
    1a4e:	bc ec       	ldi	r27, 0xCC	; 204
    1a50:	0e 94 70 1d 	call	0x3ae0	; 0x3ae0 <__umulhisi3>
    1a54:	96 95       	lsr	r25
    1a56:	87 95       	ror	r24
    1a58:	96 95       	lsr	r25
    1a5a:	87 95       	ror	r24
    1a5c:	96 95       	lsr	r25
    1a5e:	87 95       	ror	r24
    1a60:	88 0f       	add	r24, r24
    1a62:	99 1f       	adc	r25, r25
    1a64:	9c 01       	movw	r18, r24
    1a66:	22 0f       	add	r18, r18
    1a68:	33 1f       	adc	r19, r19
    1a6a:	22 0f       	add	r18, r18
    1a6c:	33 1f       	adc	r19, r19
    1a6e:	82 0f       	add	r24, r18
    1a70:	93 1f       	adc	r25, r19
    1a72:	9a 01       	movw	r18, r20
    1a74:	28 1b       	sub	r18, r24
    1a76:	39 0b       	sbc	r19, r25
    1a78:	c9 01       	movw	r24, r18
    1a7a:	28 2f       	mov	r18, r24
    1a7c:	8b 81       	ldd	r24, Y+3	; 0x03
    1a7e:	9c 81       	ldd	r25, Y+4	; 0x04
    1a80:	41 e0       	ldi	r20, 0x01	; 1
    1a82:	67 e0       	ldi	r22, 0x07	; 7
    1a84:	81 d6       	rcall	.+3330   	; 0x2788 <display_small_number>
    1a86:	80 91 d8 02 	lds	r24, 0x02D8	; 0x8002d8 <battery_voltage>
    1a8a:	90 91 d9 02 	lds	r25, 0x02D9	; 0x8002d9 <battery_voltage+0x1>
	display_small_number(display,5, 1, (battery_voltage/10)%10);
    1a8e:	9c 01       	movw	r18, r24
    1a90:	ad ec       	ldi	r26, 0xCD	; 205
    1a92:	bc ec       	ldi	r27, 0xCC	; 204
    1a94:	0e 94 70 1d 	call	0x3ae0	; 0x3ae0 <__umulhisi3>
    1a98:	ac 01       	movw	r20, r24
    1a9a:	56 95       	lsr	r21
    1a9c:	47 95       	ror	r20
    1a9e:	56 95       	lsr	r21
    1aa0:	47 95       	ror	r20
    1aa2:	56 95       	lsr	r21
    1aa4:	47 95       	ror	r20
    1aa6:	9a 01       	movw	r18, r20
    1aa8:	ad ec       	ldi	r26, 0xCD	; 205
    1aaa:	bc ec       	ldi	r27, 0xCC	; 204
    1aac:	0e 94 70 1d 	call	0x3ae0	; 0x3ae0 <__umulhisi3>
    1ab0:	96 95       	lsr	r25
    1ab2:	87 95       	ror	r24
    1ab4:	96 95       	lsr	r25
    1ab6:	87 95       	ror	r24
    1ab8:	96 95       	lsr	r25
    1aba:	87 95       	ror	r24
    1abc:	88 0f       	add	r24, r24
    1abe:	99 1f       	adc	r25, r25
    1ac0:	9c 01       	movw	r18, r24
    1ac2:	22 0f       	add	r18, r18
    1ac4:	33 1f       	adc	r19, r19
    1ac6:	22 0f       	add	r18, r18
    1ac8:	33 1f       	adc	r19, r19
    1aca:	82 0f       	add	r24, r18
    1acc:	93 1f       	adc	r25, r19
    1ace:	fa 01       	movw	r30, r20
    1ad0:	e8 1b       	sub	r30, r24
    1ad2:	f9 0b       	sbc	r31, r25
    1ad4:	cf 01       	movw	r24, r30
    1ad6:	28 2f       	mov	r18, r24
    1ad8:	8b 81       	ldd	r24, Y+3	; 0x03
    1ada:	9c 81       	ldd	r25, Y+4	; 0x04
    1adc:	41 e0       	ldi	r20, 0x01	; 1
    1ade:	65 e0       	ldi	r22, 0x05	; 5
    1ae0:	53 d6       	rcall	.+3238   	; 0x2788 <display_small_number>
    1ae2:	80 91 d8 02 	lds	r24, 0x02D8	; 0x8002d8 <battery_voltage>
    1ae6:	90 91 d9 02 	lds	r25, 0x02D9	; 0x8002d9 <battery_voltage+0x1>
	display_small_number(display,4, 1, (battery_voltage/100)%10);
    1aea:	96 95       	lsr	r25
    1aec:	87 95       	ror	r24
    1aee:	96 95       	lsr	r25
    1af0:	87 95       	ror	r24
    1af2:	9c 01       	movw	r18, r24
    1af4:	ab e7       	ldi	r26, 0x7B	; 123
    1af6:	b4 e1       	ldi	r27, 0x14	; 20
    1af8:	0e 94 70 1d 	call	0x3ae0	; 0x3ae0 <__umulhisi3>
    1afc:	ac 01       	movw	r20, r24
    1afe:	56 95       	lsr	r21
    1b00:	47 95       	ror	r20
    1b02:	9a 01       	movw	r18, r20
    1b04:	ad ec       	ldi	r26, 0xCD	; 205
    1b06:	bc ec       	ldi	r27, 0xCC	; 204
    1b08:	0e 94 70 1d 	call	0x3ae0	; 0x3ae0 <__umulhisi3>
    1b0c:	96 95       	lsr	r25
    1b0e:	87 95       	ror	r24
    1b10:	96 95       	lsr	r25
    1b12:	87 95       	ror	r24
    1b14:	96 95       	lsr	r25
    1b16:	87 95       	ror	r24
    1b18:	88 0f       	add	r24, r24
    1b1a:	99 1f       	adc	r25, r25
    1b1c:	9c 01       	movw	r18, r24
    1b1e:	22 0f       	add	r18, r18
    1b20:	33 1f       	adc	r19, r19
    1b22:	22 0f       	add	r18, r18
    1b24:	33 1f       	adc	r19, r19
    1b26:	82 0f       	add	r24, r18
    1b28:	93 1f       	adc	r25, r19
    1b2a:	9a 01       	movw	r18, r20
    1b2c:	28 1b       	sub	r18, r24
    1b2e:	39 0b       	sbc	r19, r25
    1b30:	c9 01       	movw	r24, r18
    1b32:	28 2f       	mov	r18, r24
    1b34:	8b 81       	ldd	r24, Y+3	; 0x03
    1b36:	9c 81       	ldd	r25, Y+4	; 0x04
    1b38:	41 e0       	ldi	r20, 0x01	; 1
    1b3a:	64 e0       	ldi	r22, 0x04	; 4
    1b3c:	25 d6       	rcall	.+3146   	; 0x2788 <display_small_number>
    1b3e:	40 91 c3 02 	lds	r20, 0x02C3	; 0x8002c3 <cooling_1>
    1b42:	50 91 c4 02 	lds	r21, 0x02C4	; 0x8002c4 <cooling_1+0x1>
	
	display_small_number(display,18, 1, cooling_1%10) ;
    1b46:	9a 01       	movw	r18, r20
    1b48:	ad ec       	ldi	r26, 0xCD	; 205
    1b4a:	bc ec       	ldi	r27, 0xCC	; 204
    1b4c:	0e 94 70 1d 	call	0x3ae0	; 0x3ae0 <__umulhisi3>
    1b50:	96 95       	lsr	r25
    1b52:	87 95       	ror	r24
    1b54:	96 95       	lsr	r25
    1b56:	87 95       	ror	r24
    1b58:	96 95       	lsr	r25
    1b5a:	87 95       	ror	r24
    1b5c:	88 0f       	add	r24, r24
    1b5e:	99 1f       	adc	r25, r25
    1b60:	9c 01       	movw	r18, r24
    1b62:	22 0f       	add	r18, r18
    1b64:	33 1f       	adc	r19, r19
    1b66:	22 0f       	add	r18, r18
    1b68:	33 1f       	adc	r19, r19
    1b6a:	82 0f       	add	r24, r18
    1b6c:	93 1f       	adc	r25, r19
    1b6e:	fa 01       	movw	r30, r20
    1b70:	e8 1b       	sub	r30, r24
    1b72:	f9 0b       	sbc	r31, r25
    1b74:	cf 01       	movw	r24, r30
    1b76:	28 2f       	mov	r18, r24
    1b78:	8b 81       	ldd	r24, Y+3	; 0x03
    1b7a:	9c 81       	ldd	r25, Y+4	; 0x04
    1b7c:	41 e0       	ldi	r20, 0x01	; 1
    1b7e:	62 e1       	ldi	r22, 0x12	; 18
    1b80:	03 d6       	rcall	.+3078   	; 0x2788 <display_small_number>
    1b82:	80 91 c3 02 	lds	r24, 0x02C3	; 0x8002c3 <cooling_1>
    1b86:	90 91 c4 02 	lds	r25, 0x02C4	; 0x8002c4 <cooling_1+0x1>
	display_small_number(display,16, 1, (cooling_1/10)%10);
    1b8a:	9c 01       	movw	r18, r24
    1b8c:	ad ec       	ldi	r26, 0xCD	; 205
    1b8e:	bc ec       	ldi	r27, 0xCC	; 204
    1b90:	0e 94 70 1d 	call	0x3ae0	; 0x3ae0 <__umulhisi3>
    1b94:	ac 01       	movw	r20, r24
    1b96:	56 95       	lsr	r21
    1b98:	47 95       	ror	r20
    1b9a:	56 95       	lsr	r21
    1b9c:	47 95       	ror	r20
    1b9e:	56 95       	lsr	r21
    1ba0:	47 95       	ror	r20
    1ba2:	9a 01       	movw	r18, r20
    1ba4:	ad ec       	ldi	r26, 0xCD	; 205
    1ba6:	bc ec       	ldi	r27, 0xCC	; 204
    1ba8:	0e 94 70 1d 	call	0x3ae0	; 0x3ae0 <__umulhisi3>
    1bac:	96 95       	lsr	r25
    1bae:	87 95       	ror	r24
    1bb0:	96 95       	lsr	r25
    1bb2:	87 95       	ror	r24
    1bb4:	96 95       	lsr	r25
    1bb6:	87 95       	ror	r24
    1bb8:	88 0f       	add	r24, r24
    1bba:	99 1f       	adc	r25, r25
    1bbc:	9c 01       	movw	r18, r24
    1bbe:	22 0f       	add	r18, r18
    1bc0:	33 1f       	adc	r19, r19
    1bc2:	22 0f       	add	r18, r18
    1bc4:	33 1f       	adc	r19, r19
    1bc6:	82 0f       	add	r24, r18
    1bc8:	93 1f       	adc	r25, r19
    1bca:	9a 01       	movw	r18, r20
    1bcc:	28 1b       	sub	r18, r24
    1bce:	39 0b       	sbc	r19, r25
    1bd0:	c9 01       	movw	r24, r18
    1bd2:	28 2f       	mov	r18, r24
    1bd4:	8b 81       	ldd	r24, Y+3	; 0x03
    1bd6:	9c 81       	ldd	r25, Y+4	; 0x04
    1bd8:	41 e0       	ldi	r20, 0x01	; 1
    1bda:	60 e1       	ldi	r22, 0x10	; 16
    1bdc:	d5 d5       	rcall	.+2986   	; 0x2788 <display_small_number>
    1bde:	80 91 c3 02 	lds	r24, 0x02C3	; 0x8002c3 <cooling_1>
    1be2:	90 91 c4 02 	lds	r25, 0x02C4	; 0x8002c4 <cooling_1+0x1>
	display_small_number(display,15, 1, (cooling_1/100)%10);
    1be6:	96 95       	lsr	r25
    1be8:	87 95       	ror	r24
    1bea:	96 95       	lsr	r25
    1bec:	87 95       	ror	r24
    1bee:	9c 01       	movw	r18, r24
    1bf0:	ab e7       	ldi	r26, 0x7B	; 123
    1bf2:	b4 e1       	ldi	r27, 0x14	; 20
    1bf4:	0e 94 70 1d 	call	0x3ae0	; 0x3ae0 <__umulhisi3>
    1bf8:	ac 01       	movw	r20, r24
    1bfa:	56 95       	lsr	r21
    1bfc:	47 95       	ror	r20
    1bfe:	9a 01       	movw	r18, r20
    1c00:	ad ec       	ldi	r26, 0xCD	; 205
    1c02:	bc ec       	ldi	r27, 0xCC	; 204
    1c04:	0e 94 70 1d 	call	0x3ae0	; 0x3ae0 <__umulhisi3>
    1c08:	96 95       	lsr	r25
    1c0a:	87 95       	ror	r24
    1c0c:	96 95       	lsr	r25
    1c0e:	87 95       	ror	r24
    1c10:	96 95       	lsr	r25
    1c12:	87 95       	ror	r24
    1c14:	88 0f       	add	r24, r24
    1c16:	99 1f       	adc	r25, r25
    1c18:	9c 01       	movw	r18, r24
    1c1a:	22 0f       	add	r18, r18
    1c1c:	33 1f       	adc	r19, r19
    1c1e:	22 0f       	add	r18, r18
    1c20:	33 1f       	adc	r19, r19
    1c22:	82 0f       	add	r24, r18
    1c24:	93 1f       	adc	r25, r19
    1c26:	fa 01       	movw	r30, r20
    1c28:	e8 1b       	sub	r30, r24
    1c2a:	f9 0b       	sbc	r31, r25
    1c2c:	cf 01       	movw	r24, r30
    1c2e:	28 2f       	mov	r18, r24
    1c30:	8b 81       	ldd	r24, Y+3	; 0x03
    1c32:	9c 81       	ldd	r25, Y+4	; 0x04
    1c34:	41 e0       	ldi	r20, 0x01	; 1
    1c36:	6f e0       	ldi	r22, 0x0F	; 15
    1c38:	a7 d5       	rcall	.+2894   	; 0x2788 <display_small_number>
    1c3a:	40 91 bb 02 	lds	r20, 0x02BB	; 0x8002bb <APPS1>
    1c3e:	50 91 bc 02 	lds	r21, 0x02BC	; 0x8002bc <APPS1+0x1>
	
	display_small_number(display,7, 2, APPS1%10);
    1c42:	9a 01       	movw	r18, r20
    1c44:	ad ec       	ldi	r26, 0xCD	; 205
    1c46:	bc ec       	ldi	r27, 0xCC	; 204
    1c48:	0e 94 70 1d 	call	0x3ae0	; 0x3ae0 <__umulhisi3>
    1c4c:	96 95       	lsr	r25
    1c4e:	87 95       	ror	r24
    1c50:	96 95       	lsr	r25
    1c52:	87 95       	ror	r24
    1c54:	96 95       	lsr	r25
    1c56:	87 95       	ror	r24
    1c58:	88 0f       	add	r24, r24
    1c5a:	99 1f       	adc	r25, r25
    1c5c:	9c 01       	movw	r18, r24
    1c5e:	22 0f       	add	r18, r18
    1c60:	33 1f       	adc	r19, r19
    1c62:	22 0f       	add	r18, r18
    1c64:	33 1f       	adc	r19, r19
    1c66:	82 0f       	add	r24, r18
    1c68:	93 1f       	adc	r25, r19
    1c6a:	9a 01       	movw	r18, r20
    1c6c:	28 1b       	sub	r18, r24
    1c6e:	39 0b       	sbc	r19, r25
    1c70:	c9 01       	movw	r24, r18
    1c72:	28 2f       	mov	r18, r24
    1c74:	8b 81       	ldd	r24, Y+3	; 0x03
    1c76:	9c 81       	ldd	r25, Y+4	; 0x04
    1c78:	42 e0       	ldi	r20, 0x02	; 2
    1c7a:	67 e0       	ldi	r22, 0x07	; 7
    1c7c:	85 d5       	rcall	.+2826   	; 0x2788 <display_small_number>
    1c7e:	80 91 bb 02 	lds	r24, 0x02BB	; 0x8002bb <APPS1>
    1c82:	90 91 bc 02 	lds	r25, 0x02BC	; 0x8002bc <APPS1+0x1>
	display_small_number(display,6, 2, (APPS1/10)%10);
    1c86:	9c 01       	movw	r18, r24
    1c88:	ad ec       	ldi	r26, 0xCD	; 205
    1c8a:	bc ec       	ldi	r27, 0xCC	; 204
    1c8c:	0e 94 70 1d 	call	0x3ae0	; 0x3ae0 <__umulhisi3>
    1c90:	ac 01       	movw	r20, r24
    1c92:	56 95       	lsr	r21
    1c94:	47 95       	ror	r20
    1c96:	56 95       	lsr	r21
    1c98:	47 95       	ror	r20
    1c9a:	56 95       	lsr	r21
    1c9c:	47 95       	ror	r20
    1c9e:	9a 01       	movw	r18, r20
    1ca0:	ad ec       	ldi	r26, 0xCD	; 205
    1ca2:	bc ec       	ldi	r27, 0xCC	; 204
    1ca4:	0e 94 70 1d 	call	0x3ae0	; 0x3ae0 <__umulhisi3>
    1ca8:	96 95       	lsr	r25
    1caa:	87 95       	ror	r24
    1cac:	96 95       	lsr	r25
    1cae:	87 95       	ror	r24
    1cb0:	96 95       	lsr	r25
    1cb2:	87 95       	ror	r24
    1cb4:	88 0f       	add	r24, r24
    1cb6:	99 1f       	adc	r25, r25
    1cb8:	9c 01       	movw	r18, r24
    1cba:	22 0f       	add	r18, r18
    1cbc:	33 1f       	adc	r19, r19
    1cbe:	22 0f       	add	r18, r18
    1cc0:	33 1f       	adc	r19, r19
    1cc2:	82 0f       	add	r24, r18
    1cc4:	93 1f       	adc	r25, r19
    1cc6:	fa 01       	movw	r30, r20
    1cc8:	e8 1b       	sub	r30, r24
    1cca:	f9 0b       	sbc	r31, r25
    1ccc:	cf 01       	movw	r24, r30
    1cce:	28 2f       	mov	r18, r24
    1cd0:	8b 81       	ldd	r24, Y+3	; 0x03
    1cd2:	9c 81       	ldd	r25, Y+4	; 0x04
    1cd4:	42 e0       	ldi	r20, 0x02	; 2
    1cd6:	66 e0       	ldi	r22, 0x06	; 6
    1cd8:	57 d5       	rcall	.+2734   	; 0x2788 <display_small_number>
    1cda:	40 91 bd 02 	lds	r20, 0x02BD	; 0x8002bd <APPS2>
    1cde:	50 91 be 02 	lds	r21, 0x02BE	; 0x8002be <APPS2+0x1>

	display_small_number(display,16, 2, APPS2%10);
    1ce2:	9a 01       	movw	r18, r20
    1ce4:	ad ec       	ldi	r26, 0xCD	; 205
    1ce6:	bc ec       	ldi	r27, 0xCC	; 204
    1ce8:	0e 94 70 1d 	call	0x3ae0	; 0x3ae0 <__umulhisi3>
    1cec:	96 95       	lsr	r25
    1cee:	87 95       	ror	r24
    1cf0:	96 95       	lsr	r25
    1cf2:	87 95       	ror	r24
    1cf4:	96 95       	lsr	r25
    1cf6:	87 95       	ror	r24
    1cf8:	88 0f       	add	r24, r24
    1cfa:	99 1f       	adc	r25, r25
    1cfc:	9c 01       	movw	r18, r24
    1cfe:	22 0f       	add	r18, r18
    1d00:	33 1f       	adc	r19, r19
    1d02:	22 0f       	add	r18, r18
    1d04:	33 1f       	adc	r19, r19
    1d06:	82 0f       	add	r24, r18
    1d08:	93 1f       	adc	r25, r19
    1d0a:	9a 01       	movw	r18, r20
    1d0c:	28 1b       	sub	r18, r24
    1d0e:	39 0b       	sbc	r19, r25
    1d10:	c9 01       	movw	r24, r18
    1d12:	28 2f       	mov	r18, r24
    1d14:	8b 81       	ldd	r24, Y+3	; 0x03
    1d16:	9c 81       	ldd	r25, Y+4	; 0x04
    1d18:	42 e0       	ldi	r20, 0x02	; 2
    1d1a:	60 e1       	ldi	r22, 0x10	; 16
    1d1c:	35 d5       	rcall	.+2666   	; 0x2788 <display_small_number>
    1d1e:	80 91 bd 02 	lds	r24, 0x02BD	; 0x8002bd <APPS2>
    1d22:	90 91 be 02 	lds	r25, 0x02BE	; 0x8002be <APPS2+0x1>
	display_small_number(display,15, 2, (APPS2/10)%10);
    1d26:	9c 01       	movw	r18, r24
    1d28:	ad ec       	ldi	r26, 0xCD	; 205
    1d2a:	bc ec       	ldi	r27, 0xCC	; 204
    1d2c:	0e 94 70 1d 	call	0x3ae0	; 0x3ae0 <__umulhisi3>
    1d30:	ac 01       	movw	r20, r24
    1d32:	56 95       	lsr	r21
    1d34:	47 95       	ror	r20
    1d36:	56 95       	lsr	r21
    1d38:	47 95       	ror	r20
    1d3a:	56 95       	lsr	r21
    1d3c:	47 95       	ror	r20
    1d3e:	9a 01       	movw	r18, r20
    1d40:	ad ec       	ldi	r26, 0xCD	; 205
    1d42:	bc ec       	ldi	r27, 0xCC	; 204
    1d44:	0e 94 70 1d 	call	0x3ae0	; 0x3ae0 <__umulhisi3>
    1d48:	96 95       	lsr	r25
    1d4a:	87 95       	ror	r24
    1d4c:	96 95       	lsr	r25
    1d4e:	87 95       	ror	r24
    1d50:	96 95       	lsr	r25
    1d52:	87 95       	ror	r24
    1d54:	88 0f       	add	r24, r24
    1d56:	99 1f       	adc	r25, r25
    1d58:	9c 01       	movw	r18, r24
    1d5a:	22 0f       	add	r18, r18
    1d5c:	33 1f       	adc	r19, r19
    1d5e:	22 0f       	add	r18, r18
    1d60:	33 1f       	adc	r19, r19
    1d62:	82 0f       	add	r24, r18
    1d64:	93 1f       	adc	r25, r19
    1d66:	fa 01       	movw	r30, r20
    1d68:	e8 1b       	sub	r30, r24
    1d6a:	f9 0b       	sbc	r31, r25
    1d6c:	cf 01       	movw	r24, r30
    1d6e:	28 2f       	mov	r18, r24
    1d70:	8b 81       	ldd	r24, Y+3	; 0x03
    1d72:	9c 81       	ldd	r25, Y+4	; 0x04
    1d74:	42 e0       	ldi	r20, 0x02	; 2
    1d76:	6f e0       	ldi	r22, 0x0F	; 15
    1d78:	07 d5       	rcall	.+2574   	; 0x2788 <display_small_number>
    1d7a:	80 91 bf 02 	lds	r24, 0x02BF	; 0x8002bf <BPSF>
    1d7e:	90 91 c0 02 	lds	r25, 0x02C0	; 0x8002c0 <BPSF+0x1>
	
	
	display_small_number(display,5, 3, (BPSF/10)%10);
    1d82:	9c 01       	movw	r18, r24
    1d84:	ad ec       	ldi	r26, 0xCD	; 205
    1d86:	bc ec       	ldi	r27, 0xCC	; 204
    1d88:	0e 94 70 1d 	call	0x3ae0	; 0x3ae0 <__umulhisi3>
    1d8c:	ac 01       	movw	r20, r24
    1d8e:	56 95       	lsr	r21
    1d90:	47 95       	ror	r20
    1d92:	56 95       	lsr	r21
    1d94:	47 95       	ror	r20
    1d96:	56 95       	lsr	r21
    1d98:	47 95       	ror	r20
    1d9a:	9a 01       	movw	r18, r20
    1d9c:	ad ec       	ldi	r26, 0xCD	; 205
    1d9e:	bc ec       	ldi	r27, 0xCC	; 204
    1da0:	0e 94 70 1d 	call	0x3ae0	; 0x3ae0 <__umulhisi3>
    1da4:	96 95       	lsr	r25
    1da6:	87 95       	ror	r24
    1da8:	96 95       	lsr	r25
    1daa:	87 95       	ror	r24
    1dac:	96 95       	lsr	r25
    1dae:	87 95       	ror	r24
    1db0:	88 0f       	add	r24, r24
    1db2:	99 1f       	adc	r25, r25
    1db4:	9c 01       	movw	r18, r24
    1db6:	22 0f       	add	r18, r18
    1db8:	33 1f       	adc	r19, r19
    1dba:	22 0f       	add	r18, r18
    1dbc:	33 1f       	adc	r19, r19
    1dbe:	82 0f       	add	r24, r18
    1dc0:	93 1f       	adc	r25, r19
    1dc2:	9a 01       	movw	r18, r20
    1dc4:	28 1b       	sub	r18, r24
    1dc6:	39 0b       	sbc	r19, r25
    1dc8:	c9 01       	movw	r24, r18
    1dca:	28 2f       	mov	r18, r24
    1dcc:	8b 81       	ldd	r24, Y+3	; 0x03
    1dce:	9c 81       	ldd	r25, Y+4	; 0x04
    1dd0:	43 e0       	ldi	r20, 0x03	; 3
    1dd2:	65 e0       	ldi	r22, 0x05	; 5
    1dd4:	d9 d4       	rcall	.+2482   	; 0x2788 <display_small_number>
    1dd6:	80 91 bf 02 	lds	r24, 0x02BF	; 0x8002bf <BPSF>
    1dda:	90 91 c0 02 	lds	r25, 0x02C0	; 0x8002c0 <BPSF+0x1>
	display_small_number(display,4, 3, (BPSF/100)%10);
    1dde:	96 95       	lsr	r25
    1de0:	87 95       	ror	r24
    1de2:	96 95       	lsr	r25
    1de4:	87 95       	ror	r24
    1de6:	9c 01       	movw	r18, r24
    1de8:	ab e7       	ldi	r26, 0x7B	; 123
    1dea:	b4 e1       	ldi	r27, 0x14	; 20
    1dec:	0e 94 70 1d 	call	0x3ae0	; 0x3ae0 <__umulhisi3>
    1df0:	ac 01       	movw	r20, r24
    1df2:	56 95       	lsr	r21
    1df4:	47 95       	ror	r20
    1df6:	9a 01       	movw	r18, r20
    1df8:	ad ec       	ldi	r26, 0xCD	; 205
    1dfa:	bc ec       	ldi	r27, 0xCC	; 204
    1dfc:	0e 94 70 1d 	call	0x3ae0	; 0x3ae0 <__umulhisi3>
    1e00:	96 95       	lsr	r25
    1e02:	87 95       	ror	r24
    1e04:	96 95       	lsr	r25
    1e06:	87 95       	ror	r24
    1e08:	96 95       	lsr	r25
    1e0a:	87 95       	ror	r24
    1e0c:	88 0f       	add	r24, r24
    1e0e:	99 1f       	adc	r25, r25
    1e10:	9c 01       	movw	r18, r24
    1e12:	22 0f       	add	r18, r18
    1e14:	33 1f       	adc	r19, r19
    1e16:	22 0f       	add	r18, r18
    1e18:	33 1f       	adc	r19, r19
    1e1a:	82 0f       	add	r24, r18
    1e1c:	93 1f       	adc	r25, r19
    1e1e:	fa 01       	movw	r30, r20
    1e20:	e8 1b       	sub	r30, r24
    1e22:	f9 0b       	sbc	r31, r25
    1e24:	cf 01       	movw	r24, r30
    1e26:	28 2f       	mov	r18, r24
    1e28:	8b 81       	ldd	r24, Y+3	; 0x03
    1e2a:	9c 81       	ldd	r25, Y+4	; 0x04
    1e2c:	43 e0       	ldi	r20, 0x03	; 3
    1e2e:	64 e0       	ldi	r22, 0x04	; 4
    1e30:	ab d4       	rcall	.+2390   	; 0x2788 <display_small_number>
    1e32:	80 91 c1 02 	lds	r24, 0x02C1	; 0x8002c1 <BPSR>
    1e36:	90 91 c2 02 	lds	r25, 0x02C2	; 0x8002c2 <BPSR+0x1>
	
	
	display_small_number(display,11, 3, (BPSR/10)%10);
    1e3a:	9c 01       	movw	r18, r24
    1e3c:	ad ec       	ldi	r26, 0xCD	; 205
    1e3e:	bc ec       	ldi	r27, 0xCC	; 204
    1e40:	0e 94 70 1d 	call	0x3ae0	; 0x3ae0 <__umulhisi3>
    1e44:	ac 01       	movw	r20, r24
    1e46:	56 95       	lsr	r21
    1e48:	47 95       	ror	r20
    1e4a:	56 95       	lsr	r21
    1e4c:	47 95       	ror	r20
    1e4e:	56 95       	lsr	r21
    1e50:	47 95       	ror	r20
    1e52:	9a 01       	movw	r18, r20
    1e54:	ad ec       	ldi	r26, 0xCD	; 205
    1e56:	bc ec       	ldi	r27, 0xCC	; 204
    1e58:	0e 94 70 1d 	call	0x3ae0	; 0x3ae0 <__umulhisi3>
    1e5c:	96 95       	lsr	r25
    1e5e:	87 95       	ror	r24
    1e60:	96 95       	lsr	r25
    1e62:	87 95       	ror	r24
    1e64:	96 95       	lsr	r25
    1e66:	87 95       	ror	r24
    1e68:	88 0f       	add	r24, r24
    1e6a:	99 1f       	adc	r25, r25
    1e6c:	9c 01       	movw	r18, r24
    1e6e:	22 0f       	add	r18, r18
    1e70:	33 1f       	adc	r19, r19
    1e72:	22 0f       	add	r18, r18
    1e74:	33 1f       	adc	r19, r19
    1e76:	82 0f       	add	r24, r18
    1e78:	93 1f       	adc	r25, r19
    1e7a:	9a 01       	movw	r18, r20
    1e7c:	28 1b       	sub	r18, r24
    1e7e:	39 0b       	sbc	r19, r25
    1e80:	c9 01       	movw	r24, r18
    1e82:	28 2f       	mov	r18, r24
    1e84:	8b 81       	ldd	r24, Y+3	; 0x03
    1e86:	9c 81       	ldd	r25, Y+4	; 0x04
    1e88:	43 e0       	ldi	r20, 0x03	; 3
    1e8a:	6b e0       	ldi	r22, 0x0B	; 11
    1e8c:	7d d4       	rcall	.+2298   	; 0x2788 <display_small_number>
    1e8e:	80 91 c1 02 	lds	r24, 0x02C1	; 0x8002c1 <BPSR>
    1e92:	90 91 c2 02 	lds	r25, 0x02C2	; 0x8002c2 <BPSR+0x1>
	display_small_number(display,10, 3, (BPSR/100)%10);
    1e96:	96 95       	lsr	r25
    1e98:	87 95       	ror	r24
    1e9a:	96 95       	lsr	r25
    1e9c:	87 95       	ror	r24
    1e9e:	9c 01       	movw	r18, r24
    1ea0:	ab e7       	ldi	r26, 0x7B	; 123
    1ea2:	b4 e1       	ldi	r27, 0x14	; 20
    1ea4:	0e 94 70 1d 	call	0x3ae0	; 0x3ae0 <__umulhisi3>
    1ea8:	ac 01       	movw	r20, r24
    1eaa:	56 95       	lsr	r21
    1eac:	47 95       	ror	r20
    1eae:	9a 01       	movw	r18, r20
    1eb0:	ad ec       	ldi	r26, 0xCD	; 205
    1eb2:	bc ec       	ldi	r27, 0xCC	; 204
    1eb4:	0e 94 70 1d 	call	0x3ae0	; 0x3ae0 <__umulhisi3>
    1eb8:	96 95       	lsr	r25
    1eba:	87 95       	ror	r24
    1ebc:	96 95       	lsr	r25
    1ebe:	87 95       	ror	r24
    1ec0:	96 95       	lsr	r25
    1ec2:	87 95       	ror	r24
    1ec4:	88 0f       	add	r24, r24
    1ec6:	99 1f       	adc	r25, r25
    1ec8:	9c 01       	movw	r18, r24
    1eca:	22 0f       	add	r18, r18
    1ecc:	33 1f       	adc	r19, r19
    1ece:	22 0f       	add	r18, r18
    1ed0:	33 1f       	adc	r19, r19
    1ed2:	82 0f       	add	r24, r18
    1ed4:	93 1f       	adc	r25, r19
    1ed6:	fa 01       	movw	r30, r20
    1ed8:	e8 1b       	sub	r30, r24
    1eda:	f9 0b       	sbc	r31, r25
    1edc:	cf 01       	movw	r24, r30
    1ede:	28 2f       	mov	r18, r24
    1ee0:	8b 81       	ldd	r24, Y+3	; 0x03
    1ee2:	9c 81       	ldd	r25, Y+4	; 0x04
    1ee4:	43 e0       	ldi	r20, 0x03	; 3
    1ee6:	6a e0       	ldi	r22, 0x0A	; 10
    1ee8:	4f d4       	rcall	.+2206   	; 0x2788 <display_small_number>
    1eea:	00 00       	nop
    1eec:	0f 90       	pop	r0
    1eee:	0f 90       	pop	r0
    1ef0:	0f 90       	pop	r0
    1ef2:	0f 90       	pop	r0

}
    1ef4:	df 91       	pop	r29
    1ef6:	cf 91       	pop	r28
    1ef8:	08 95       	ret

00001efa <display_clear>:
    1efa:	cf 93       	push	r28
    1efc:	df 93       	push	r29
    1efe:	00 d0       	rcall	.+0      	; 0x1f00 <display_clear+0x6>
    1f00:	00 d0       	rcall	.+0      	; 0x1f02 <display_clear+0x8>

void display_clear(struct DISPLAY_PAGE *display)
{
    1f02:	cd b7       	in	r28, 0x3d	; 61
    1f04:	de b7       	in	r29, 0x3e	; 62
    1f06:	9c 83       	std	Y+4, r25	; 0x04
    1f08:	8b 83       	std	Y+3, r24	; 0x03
    1f0a:	19 82       	std	Y+1, r1	; 0x01
    1f0c:	1a 82       	std	Y+2, r1	; 0x02
    1f0e:	80 e2       	ldi	r24, 0x20	; 32
	uint8_t TS_ON = 0;
	uint8_t Ready_2_Drive = 0;
    1f10:	90 e0       	ldi	r25, 0x00	; 0
	
	TS_ON = (~PINA & (1 << PA0));
    1f12:	fc 01       	movw	r30, r24
    1f14:	80 81       	ld	r24, Z
    1f16:	88 2f       	mov	r24, r24
    1f18:	90 e0       	ldi	r25, 0x00	; 0
    1f1a:	81 70       	andi	r24, 0x01	; 1
    1f1c:	99 27       	eor	r25, r25
    1f1e:	21 e0       	ldi	r18, 0x01	; 1
    1f20:	89 2b       	or	r24, r25
    1f22:	09 f0       	breq	.+2      	; 0x1f26 <display_clear+0x2c>
    1f24:	20 e0       	ldi	r18, 0x00	; 0
    1f26:	29 83       	std	Y+1, r18	; 0x01
    1f28:	80 e2       	ldi	r24, 0x20	; 32
	Ready_2_Drive = ((~PINA & (1 << PA1)) >> PA1);
    1f2a:	90 e0       	ldi	r25, 0x00	; 0
    1f2c:	fc 01       	movw	r30, r24
    1f2e:	80 81       	ld	r24, Z
    1f30:	88 2f       	mov	r24, r24
    1f32:	90 e0       	ldi	r25, 0x00	; 0
    1f34:	80 95       	com	r24
    1f36:	90 95       	com	r25
    1f38:	82 70       	andi	r24, 0x02	; 2
    1f3a:	99 27       	eor	r25, r25
    1f3c:	95 95       	asr	r25
    1f3e:	87 95       	ror	r24
    1f40:	8a 83       	std	Y+2, r24	; 0x02
	display_write_str(display,"LED_RPM:           ", 0, 0);
    1f42:	8b 81       	ldd	r24, Y+3	; 0x03
    1f44:	9c 81       	ldd	r25, Y+4	; 0x04
    1f46:	20 e0       	ldi	r18, 0x00	; 0
    1f48:	40 e0       	ldi	r20, 0x00	; 0
    1f4a:	6f e9       	ldi	r22, 0x9F	; 159
    1f4c:	71 e0       	ldi	r23, 0x01	; 1
    1f4e:	aa d8       	rcall	.-3756   	; 0x10a4 <display_write_str>
	display_write_str(display,"WHEELSPEED:        ", 1, 0);
    1f50:	8b 81       	ldd	r24, Y+3	; 0x03
    1f52:	9c 81       	ldd	r25, Y+4	; 0x04
    1f54:	20 e0       	ldi	r18, 0x00	; 0
    1f56:	41 e0       	ldi	r20, 0x01	; 1
    1f58:	63 eb       	ldi	r22, 0xB3	; 179
    1f5a:	71 e0       	ldi	r23, 0x01	; 1
    1f5c:	a3 d8       	rcall	.-3770   	; 0x10a4 <display_write_str>
    1f5e:	8b 81       	ldd	r24, Y+3	; 0x03
	display_write_str(display,"D-Poti:            ", 2, 0);
    1f60:	9c 81       	ldd	r25, Y+4	; 0x04
    1f62:	20 e0       	ldi	r18, 0x00	; 0
    1f64:	42 e0       	ldi	r20, 0x02	; 2
    1f66:	67 ec       	ldi	r22, 0xC7	; 199
    1f68:	71 e0       	ldi	r23, 0x01	; 1
    1f6a:	9c d8       	rcall	.-3784   	; 0x10a4 <display_write_str>
    1f6c:	8b 81       	ldd	r24, Y+3	; 0x03
    1f6e:	9c 81       	ldd	r25, Y+4	; 0x04
	display_write_str(display,"       TY 24       ", 3, 0);
    1f70:	20 e0       	ldi	r18, 0x00	; 0
    1f72:	43 e0       	ldi	r20, 0x03	; 3
    1f74:	6b ed       	ldi	r22, 0xDB	; 219
    1f76:	71 e0       	ldi	r23, 0x01	; 1
    1f78:	95 d8       	rcall	.-3798   	; 0x10a4 <display_write_str>
    1f7a:	20 91 eb 02 	lds	r18, 0x02EB	; 0x8002eb <LED_RPM>
    1f7e:	8b 81       	ldd	r24, Y+3	; 0x03
	
	//display_small_number(display,5, 0,Cooling_fan);
	
	display_small_number(display,8, 0,LED_RPM);
    1f80:	9c 81       	ldd	r25, Y+4	; 0x04
    1f82:	40 e0       	ldi	r20, 0x00	; 0
    1f84:	68 e0       	ldi	r22, 0x08	; 8
    1f86:	00 d4       	rcall	.+2048   	; 0x2788 <display_small_number>
    1f88:	80 91 e7 02 	lds	r24, 0x02E7	; 0x8002e7 <WHEELSPEED>
    1f8c:	90 91 e8 02 	lds	r25, 0x02E8	; 0x8002e8 <WHEELSPEED+0x1>
	
	display_small_number(display,11, 1,WHEELSPEED);
    1f90:	28 2f       	mov	r18, r24
    1f92:	8b 81       	ldd	r24, Y+3	; 0x03
    1f94:	9c 81       	ldd	r25, Y+4	; 0x04
    1f96:	41 e0       	ldi	r20, 0x01	; 1
    1f98:	6b e0       	ldi	r22, 0x0B	; 11
    1f9a:	f6 d3       	rcall	.+2028   	; 0x2788 <display_small_number>
    1f9c:	80 91 c7 02 	lds	r24, 0x02C7	; 0x8002c7 <d_poti_1>
    1fa0:	90 91 c8 02 	lds	r25, 0x02C8	; 0x8002c8 <d_poti_1+0x1>
	
	display_small_number(display,7, 1,d_poti_1);
    1fa4:	28 2f       	mov	r18, r24
    1fa6:	8b 81       	ldd	r24, Y+3	; 0x03
    1fa8:	9c 81       	ldd	r25, Y+4	; 0x04
    1faa:	41 e0       	ldi	r20, 0x01	; 1
    1fac:	67 e0       	ldi	r22, 0x07	; 7
    1fae:	ec d3       	rcall	.+2008   	; 0x2788 <display_small_number>
    1fb0:	00 00       	nop
    1fb2:	0f 90       	pop	r0
    1fb4:	0f 90       	pop	r0
    1fb6:	0f 90       	pop	r0
	
	//display_small_number(display,5, 1,Akku_fan);
	
	//display_small_number(display, ,  ,);
}
    1fb8:	0f 90       	pop	r0
    1fba:	df 91       	pop	r29
    1fbc:	cf 91       	pop	r28
    1fbe:	08 95       	ret

00001fc0 <display_meme>:
    1fc0:	cf 93       	push	r28
    1fc2:	df 93       	push	r29
    1fc4:	00 d0       	rcall	.+0      	; 0x1fc6 <display_meme+0x6>
    1fc6:	cd b7       	in	r28, 0x3d	; 61

void display_meme(struct DISPLAY_PAGE *display)
{
    1fc8:	de b7       	in	r29, 0x3e	; 62
    1fca:	9a 83       	std	Y+2, r25	; 0x02
    1fcc:	89 83       	std	Y+1, r24	; 0x01
    1fce:	0e 94 7a 07 	call	0xef4	; 0xef4 <display_definechars>
    1fd2:	00 00       	nop
    1fd4:	0f 90       	pop	r0
	 display_definechars();
    1fd6:	0f 90       	pop	r0
    1fd8:	df 91       	pop	r29
}
    1fda:	cf 91       	pop	r28
    1fdc:	08 95       	ret

00001fde <display_voltage>:
    1fde:	cf 93       	push	r28
    1fe0:	df 93       	push	r29
    1fe2:	00 d0       	rcall	.+0      	; 0x1fe4 <display_voltage+0x6>

void display_voltage(struct DISPLAY_PAGE *display, uint16_t number){
    1fe4:	00 d0       	rcall	.+0      	; 0x1fe6 <display_voltage+0x8>
    1fe6:	cd b7       	in	r28, 0x3d	; 61
    1fe8:	de b7       	in	r29, 0x3e	; 62
    1fea:	9a 83       	std	Y+2, r25	; 0x02
    1fec:	89 83       	std	Y+1, r24	; 0x01
    1fee:	7c 83       	std	Y+4, r23	; 0x04
    1ff0:	6b 83       	std	Y+3, r22	; 0x03
    1ff2:	89 81       	ldd	r24, Y+1	; 0x01
    1ff4:	9a 81       	ldd	r25, Y+2	; 0x02
    1ff6:	4b e0       	ldi	r20, 0x0B	; 11
	//display_large_number(display, 0, 12);
	//display_write_str(display,"o",1,4);
	//display_write_str(display,"o",2,4);
	display_large_number(display, 14, 11);
    1ff8:	6e e0       	ldi	r22, 0x0E	; 14
    1ffa:	af d1       	rcall	.+862    	; 0x235a <display_large_number>
    1ffc:	89 81       	ldd	r24, Y+1	; 0x01
    1ffe:	9a 81       	ldd	r25, Y+2	; 0x02
    2000:	24 e0       	ldi	r18, 0x04	; 4
    2002:	43 e0       	ldi	r20, 0x03	; 3
	display_write_str(display, "\x07", 3, 4);
    2004:	6f ee       	ldi	r22, 0xEF	; 239
    2006:	71 e0       	ldi	r23, 0x01	; 1
    2008:	4d d8       	rcall	.-3942   	; 0x10a4 <display_write_str>
    200a:	4b 81       	ldd	r20, Y+3	; 0x03
    200c:	5c 81       	ldd	r21, Y+4	; 0x04
    200e:	9a 01       	movw	r18, r20
    2010:	ad ec       	ldi	r26, 0xCD	; 205
    2012:	bc ec       	ldi	r27, 0xCC	; 204
	display_large_number(display, 10, number%10);
    2014:	0e 94 70 1d 	call	0x3ae0	; 0x3ae0 <__umulhisi3>
    2018:	96 95       	lsr	r25
    201a:	87 95       	ror	r24
    201c:	96 95       	lsr	r25
    201e:	87 95       	ror	r24
    2020:	96 95       	lsr	r25
    2022:	87 95       	ror	r24
    2024:	88 0f       	add	r24, r24
    2026:	99 1f       	adc	r25, r25
    2028:	9c 01       	movw	r18, r24
    202a:	22 0f       	add	r18, r18
    202c:	33 1f       	adc	r19, r19
    202e:	22 0f       	add	r18, r18
    2030:	33 1f       	adc	r19, r19
    2032:	82 0f       	add	r24, r18
    2034:	93 1f       	adc	r25, r19
    2036:	9a 01       	movw	r18, r20
    2038:	28 1b       	sub	r18, r24
    203a:	39 0b       	sbc	r19, r25
    203c:	c9 01       	movw	r24, r18
    203e:	28 2f       	mov	r18, r24
    2040:	89 81       	ldd	r24, Y+1	; 0x01
    2042:	9a 81       	ldd	r25, Y+2	; 0x02
    2044:	42 2f       	mov	r20, r18
    2046:	6a e0       	ldi	r22, 0x0A	; 10
    2048:	88 d1       	rcall	.+784    	; 0x235a <display_large_number>
    204a:	8b 81       	ldd	r24, Y+3	; 0x03
    204c:	9c 81       	ldd	r25, Y+4	; 0x04
    204e:	9c 01       	movw	r18, r24
    2050:	ad ec       	ldi	r26, 0xCD	; 205
    2052:	bc ec       	ldi	r27, 0xCC	; 204
	number = number/10;
    2054:	0e 94 70 1d 	call	0x3ae0	; 0x3ae0 <__umulhisi3>
    2058:	96 95       	lsr	r25
    205a:	87 95       	ror	r24
    205c:	96 95       	lsr	r25
    205e:	87 95       	ror	r24
    2060:	96 95       	lsr	r25
    2062:	87 95       	ror	r24
    2064:	9c 83       	std	Y+4, r25	; 0x04
    2066:	8b 83       	std	Y+3, r24	; 0x03
    2068:	4b 81       	ldd	r20, Y+3	; 0x03
    206a:	5c 81       	ldd	r21, Y+4	; 0x04
    206c:	9a 01       	movw	r18, r20
    206e:	ad ec       	ldi	r26, 0xCD	; 205
    2070:	bc ec       	ldi	r27, 0xCC	; 204
	display_large_number(display, 6, number%10);
    2072:	0e 94 70 1d 	call	0x3ae0	; 0x3ae0 <__umulhisi3>
    2076:	96 95       	lsr	r25
    2078:	87 95       	ror	r24
    207a:	96 95       	lsr	r25
    207c:	87 95       	ror	r24
    207e:	96 95       	lsr	r25
    2080:	87 95       	ror	r24
    2082:	88 0f       	add	r24, r24
    2084:	99 1f       	adc	r25, r25
    2086:	9c 01       	movw	r18, r24
    2088:	22 0f       	add	r18, r18
    208a:	33 1f       	adc	r19, r19
    208c:	22 0f       	add	r18, r18
    208e:	33 1f       	adc	r19, r19
    2090:	82 0f       	add	r24, r18
    2092:	93 1f       	adc	r25, r19
    2094:	9a 01       	movw	r18, r20
    2096:	28 1b       	sub	r18, r24
    2098:	39 0b       	sbc	r19, r25
    209a:	c9 01       	movw	r24, r18
    209c:	28 2f       	mov	r18, r24
    209e:	89 81       	ldd	r24, Y+1	; 0x01
    20a0:	9a 81       	ldd	r25, Y+2	; 0x02
    20a2:	42 2f       	mov	r20, r18
    20a4:	66 e0       	ldi	r22, 0x06	; 6
    20a6:	59 d1       	rcall	.+690    	; 0x235a <display_large_number>
    20a8:	8b 81       	ldd	r24, Y+3	; 0x03
    20aa:	9c 81       	ldd	r25, Y+4	; 0x04
    20ac:	9c 01       	movw	r18, r24
    20ae:	ad ec       	ldi	r26, 0xCD	; 205
    20b0:	bc ec       	ldi	r27, 0xCC	; 204
	number = number/10;
    20b2:	0e 94 70 1d 	call	0x3ae0	; 0x3ae0 <__umulhisi3>
    20b6:	96 95       	lsr	r25
    20b8:	87 95       	ror	r24
    20ba:	96 95       	lsr	r25
    20bc:	87 95       	ror	r24
    20be:	96 95       	lsr	r25
    20c0:	87 95       	ror	r24
    20c2:	9c 83       	std	Y+4, r25	; 0x04
    20c4:	8b 83       	std	Y+3, r24	; 0x03
    20c6:	4b 81       	ldd	r20, Y+3	; 0x03
    20c8:	5c 81       	ldd	r21, Y+4	; 0x04
    20ca:	9a 01       	movw	r18, r20
    20cc:	ad ec       	ldi	r26, 0xCD	; 205
	display_large_number(display, 0, number%10);
    20ce:	bc ec       	ldi	r27, 0xCC	; 204
    20d0:	0e 94 70 1d 	call	0x3ae0	; 0x3ae0 <__umulhisi3>
    20d4:	96 95       	lsr	r25
    20d6:	87 95       	ror	r24
    20d8:	96 95       	lsr	r25
    20da:	87 95       	ror	r24
    20dc:	96 95       	lsr	r25
    20de:	87 95       	ror	r24
    20e0:	88 0f       	add	r24, r24
    20e2:	99 1f       	adc	r25, r25
    20e4:	9c 01       	movw	r18, r24
    20e6:	22 0f       	add	r18, r18
    20e8:	33 1f       	adc	r19, r19
    20ea:	22 0f       	add	r18, r18
    20ec:	33 1f       	adc	r19, r19
    20ee:	82 0f       	add	r24, r18
    20f0:	93 1f       	adc	r25, r19
    20f2:	9a 01       	movw	r18, r20
    20f4:	28 1b       	sub	r18, r24
    20f6:	39 0b       	sbc	r19, r25
    20f8:	c9 01       	movw	r24, r18
    20fa:	28 2f       	mov	r18, r24
    20fc:	89 81       	ldd	r24, Y+1	; 0x01
    20fe:	9a 81       	ldd	r25, Y+2	; 0x02
    2100:	42 2f       	mov	r20, r18
    2102:	60 e0       	ldi	r22, 0x00	; 0
    2104:	2a d1       	rcall	.+596    	; 0x235a <display_large_number>
    2106:	00 00       	nop
    2108:	0f 90       	pop	r0
    210a:	0f 90       	pop	r0
    210c:	0f 90       	pop	r0
    210e:	0f 90       	pop	r0
}
    2110:	df 91       	pop	r29
    2112:	cf 91       	pop	r28
    2114:	08 95       	ret

00002116 <display_temp>:
    2116:	cf 93       	push	r28
    2118:	df 93       	push	r29
    211a:	00 d0       	rcall	.+0      	; 0x211c <display_temp+0x6>
    211c:	00 d0       	rcall	.+0      	; 0x211e <display_temp+0x8>
    211e:	cd b7       	in	r28, 0x3d	; 61



void display_temp(struct DISPLAY_PAGE *display, uint16_t number){
    2120:	de b7       	in	r29, 0x3e	; 62
    2122:	9a 83       	std	Y+2, r25	; 0x02
    2124:	89 83       	std	Y+1, r24	; 0x01
    2126:	7c 83       	std	Y+4, r23	; 0x04
    2128:	6b 83       	std	Y+3, r22	; 0x03
    212a:	89 81       	ldd	r24, Y+1	; 0x01
    212c:	9a 81       	ldd	r25, Y+2	; 0x02
    212e:	4d e0       	ldi	r20, 0x0D	; 13
    2130:	60 e1       	ldi	r22, 0x10	; 16
	//display_large_number(display, 0, 12);
	//display_write_str(display,"o",1,4);
	//display_write_str(display,"o",2,4);
	display_large_number(display, 16, 13);
    2132:	13 d1       	rcall	.+550    	; 0x235a <display_large_number>
    2134:	89 81       	ldd	r24, Y+1	; 0x01
    2136:	9a 81       	ldd	r25, Y+2	; 0x02
    2138:	2e e0       	ldi	r18, 0x0E	; 14
    213a:	40 e0       	ldi	r20, 0x00	; 0
    213c:	61 ef       	ldi	r22, 0xF1	; 241
	display_write_str(display,"o", 0, 14);
    213e:	71 e0       	ldi	r23, 0x01	; 1
    2140:	0e 94 52 08 	call	0x10a4	; 0x10a4 <display_write_str>
    2144:	89 81       	ldd	r24, Y+1	; 0x01
    2146:	9a 81       	ldd	r25, Y+2	; 0x02
    2148:	28 e0       	ldi	r18, 0x08	; 8
    214a:	43 e0       	ldi	r20, 0x03	; 3
    214c:	6f ee       	ldi	r22, 0xEF	; 239
	display_write_str(display, "\x07", 3, 8);
    214e:	71 e0       	ldi	r23, 0x01	; 1
    2150:	0e 94 52 08 	call	0x10a4	; 0x10a4 <display_write_str>
    2154:	4b 81       	ldd	r20, Y+3	; 0x03
    2156:	5c 81       	ldd	r21, Y+4	; 0x04
    2158:	9a 01       	movw	r18, r20
    215a:	ad ec       	ldi	r26, 0xCD	; 205
    215c:	bc ec       	ldi	r27, 0xCC	; 204
	display_large_number(display, 10, number%10);
    215e:	0e 94 70 1d 	call	0x3ae0	; 0x3ae0 <__umulhisi3>
    2162:	96 95       	lsr	r25
    2164:	87 95       	ror	r24
    2166:	96 95       	lsr	r25
    2168:	87 95       	ror	r24
    216a:	96 95       	lsr	r25
    216c:	87 95       	ror	r24
    216e:	88 0f       	add	r24, r24
    2170:	99 1f       	adc	r25, r25
    2172:	9c 01       	movw	r18, r24
    2174:	22 0f       	add	r18, r18
    2176:	33 1f       	adc	r19, r19
    2178:	22 0f       	add	r18, r18
    217a:	33 1f       	adc	r19, r19
    217c:	82 0f       	add	r24, r18
    217e:	93 1f       	adc	r25, r19
    2180:	9a 01       	movw	r18, r20
    2182:	28 1b       	sub	r18, r24
    2184:	39 0b       	sbc	r19, r25
    2186:	c9 01       	movw	r24, r18
    2188:	28 2f       	mov	r18, r24
    218a:	89 81       	ldd	r24, Y+1	; 0x01
    218c:	9a 81       	ldd	r25, Y+2	; 0x02
    218e:	42 2f       	mov	r20, r18
    2190:	6a e0       	ldi	r22, 0x0A	; 10
    2192:	e3 d0       	rcall	.+454    	; 0x235a <display_large_number>
    2194:	8b 81       	ldd	r24, Y+3	; 0x03
    2196:	9c 81       	ldd	r25, Y+4	; 0x04
    2198:	9c 01       	movw	r18, r24
    219a:	ad ec       	ldi	r26, 0xCD	; 205
    219c:	bc ec       	ldi	r27, 0xCC	; 204
	number = number/10;
    219e:	0e 94 70 1d 	call	0x3ae0	; 0x3ae0 <__umulhisi3>
    21a2:	96 95       	lsr	r25
    21a4:	87 95       	ror	r24
    21a6:	96 95       	lsr	r25
    21a8:	87 95       	ror	r24
    21aa:	96 95       	lsr	r25
    21ac:	87 95       	ror	r24
    21ae:	9c 83       	std	Y+4, r25	; 0x04
    21b0:	8b 83       	std	Y+3, r24	; 0x03
    21b2:	4b 81       	ldd	r20, Y+3	; 0x03
    21b4:	5c 81       	ldd	r21, Y+4	; 0x04
    21b6:	9a 01       	movw	r18, r20
    21b8:	ad ec       	ldi	r26, 0xCD	; 205
    21ba:	bc ec       	ldi	r27, 0xCC	; 204
	display_large_number(display, 4, number%10);
    21bc:	0e 94 70 1d 	call	0x3ae0	; 0x3ae0 <__umulhisi3>
    21c0:	96 95       	lsr	r25
    21c2:	87 95       	ror	r24
    21c4:	96 95       	lsr	r25
    21c6:	87 95       	ror	r24
    21c8:	96 95       	lsr	r25
    21ca:	87 95       	ror	r24
    21cc:	88 0f       	add	r24, r24
    21ce:	99 1f       	adc	r25, r25
    21d0:	9c 01       	movw	r18, r24
    21d2:	22 0f       	add	r18, r18
    21d4:	33 1f       	adc	r19, r19
    21d6:	22 0f       	add	r18, r18
    21d8:	33 1f       	adc	r19, r19
    21da:	82 0f       	add	r24, r18
    21dc:	93 1f       	adc	r25, r19
    21de:	9a 01       	movw	r18, r20
    21e0:	28 1b       	sub	r18, r24
    21e2:	39 0b       	sbc	r19, r25
    21e4:	c9 01       	movw	r24, r18
    21e6:	28 2f       	mov	r18, r24
    21e8:	89 81       	ldd	r24, Y+1	; 0x01
    21ea:	9a 81       	ldd	r25, Y+2	; 0x02
    21ec:	42 2f       	mov	r20, r18
    21ee:	64 e0       	ldi	r22, 0x04	; 4
    21f0:	b4 d0       	rcall	.+360    	; 0x235a <display_large_number>
    21f2:	8b 81       	ldd	r24, Y+3	; 0x03
    21f4:	9c 81       	ldd	r25, Y+4	; 0x04
    21f6:	9c 01       	movw	r18, r24
    21f8:	ad ec       	ldi	r26, 0xCD	; 205
    21fa:	bc ec       	ldi	r27, 0xCC	; 204
	number = number/10;
    21fc:	0e 94 70 1d 	call	0x3ae0	; 0x3ae0 <__umulhisi3>
    2200:	96 95       	lsr	r25
    2202:	87 95       	ror	r24
    2204:	96 95       	lsr	r25
    2206:	87 95       	ror	r24
    2208:	96 95       	lsr	r25
    220a:	87 95       	ror	r24
    220c:	9c 83       	std	Y+4, r25	; 0x04
    220e:	8b 83       	std	Y+3, r24	; 0x03
    2210:	4b 81       	ldd	r20, Y+3	; 0x03
    2212:	5c 81       	ldd	r21, Y+4	; 0x04
    2214:	9a 01       	movw	r18, r20
    2216:	ad ec       	ldi	r26, 0xCD	; 205
    2218:	bc ec       	ldi	r27, 0xCC	; 204
	display_large_number(display, 0, number%10);
    221a:	0e 94 70 1d 	call	0x3ae0	; 0x3ae0 <__umulhisi3>
    221e:	96 95       	lsr	r25
    2220:	87 95       	ror	r24
    2222:	96 95       	lsr	r25
    2224:	87 95       	ror	r24
    2226:	96 95       	lsr	r25
    2228:	87 95       	ror	r24
    222a:	88 0f       	add	r24, r24
    222c:	99 1f       	adc	r25, r25
    222e:	9c 01       	movw	r18, r24
    2230:	22 0f       	add	r18, r18
    2232:	33 1f       	adc	r19, r19
    2234:	22 0f       	add	r18, r18
    2236:	33 1f       	adc	r19, r19
    2238:	82 0f       	add	r24, r18
    223a:	93 1f       	adc	r25, r19
    223c:	9a 01       	movw	r18, r20
    223e:	28 1b       	sub	r18, r24
    2240:	39 0b       	sbc	r19, r25
    2242:	c9 01       	movw	r24, r18
    2244:	28 2f       	mov	r18, r24
    2246:	89 81       	ldd	r24, Y+1	; 0x01
    2248:	9a 81       	ldd	r25, Y+2	; 0x02
    224a:	42 2f       	mov	r20, r18
    224c:	60 e0       	ldi	r22, 0x00	; 0
    224e:	85 d0       	rcall	.+266    	; 0x235a <display_large_number>
    2250:	00 00       	nop
    2252:	0f 90       	pop	r0
    2254:	0f 90       	pop	r0
    2256:	0f 90       	pop	r0
    2258:	0f 90       	pop	r0
    225a:	df 91       	pop	r29
}
    225c:	cf 91       	pop	r28
    225e:	08 95       	ret

00002260 <display_digits>:
    2260:	ef 92       	push	r14
    2262:	0f 93       	push	r16
    2264:	1f 93       	push	r17
    2266:	cf 93       	push	r28
    2268:	df 93       	push	r29
    226a:	cd b7       	in	r28, 0x3d	; 61


// erzeugt beliebig langen string aus einem int wert, länge ist mit digits zu übergeben, geht nur ohne komma . comma gibt die Anzahl der nachkommastellen an
void display_digits(struct DISPLAY_PAGE *display, uint8_t digits, uint8_t offset,uint8_t row,  uint16_t number, uint8_t comma){
    226c:	de b7       	in	r29, 0x3e	; 62
    226e:	2a 97       	sbiw	r28, 0x0a	; 10
    2270:	0f b6       	in	r0, 0x3f	; 63
    2272:	f8 94       	cli
    2274:	de bf       	out	0x3e, r29	; 62
    2276:	0f be       	out	0x3f, r0	; 63
    2278:	cd bf       	out	0x3d, r28	; 61
    227a:	9c 83       	std	Y+4, r25	; 0x04
    227c:	8b 83       	std	Y+3, r24	; 0x03
    227e:	6d 83       	std	Y+5, r22	; 0x05
    2280:	4e 83       	std	Y+6, r20	; 0x06
    2282:	2f 83       	std	Y+7, r18	; 0x07
    2284:	19 87       	std	Y+9, r17	; 0x09
    2286:	08 87       	std	Y+8, r16	; 0x08
    2288:	ea 86       	std	Y+10, r14	; 0x0a
    228a:	1a 82       	std	Y+2, r1	; 0x02
    228c:	19 82       	std	Y+1, r1	; 0x01
    228e:	53 c0       	rjmp	.+166    	; 0x2336 <display_digits+0xd6>
    2290:	9a 85       	ldd	r25, Y+10	; 0x0a
    2292:	89 81       	ldd	r24, Y+1	; 0x01
    2294:	98 17       	cp	r25, r24
	
	uint8_t i;
	uint8_t comma_set = 0;
    2296:	a8 f0       	brcs	.+42     	; 0x22c2 <display_digits+0x62>
	
	for(i=0; i>= digits; i++)
    2298:	9a 85       	ldd	r25, Y+10	; 0x0a
    229a:	89 81       	ldd	r24, Y+1	; 0x01
	{
		
		
		if (comma >= i)
    229c:	98 17       	cp	r25, r24
    229e:	09 f0       	breq	.+2      	; 0x22a2 <display_digits+0x42>
    22a0:	47 c0       	rjmp	.+142    	; 0x2330 <display_digits+0xd0>
		{
			if (comma == i)
    22a2:	9e 81       	ldd	r25, Y+6	; 0x06
    22a4:	8d 81       	ldd	r24, Y+5	; 0x05
    22a6:	98 0f       	add	r25, r24
    22a8:	89 81       	ldd	r24, Y+1	; 0x01
    22aa:	29 2f       	mov	r18, r25
			{
				display_write_str(display, ",",row, (offset + digits-i));
    22ac:	28 1b       	sub	r18, r24
    22ae:	8b 81       	ldd	r24, Y+3	; 0x03
    22b0:	9c 81       	ldd	r25, Y+4	; 0x04
    22b2:	4f 81       	ldd	r20, Y+7	; 0x07
    22b4:	63 ef       	ldi	r22, 0xF3	; 243
    22b6:	71 e0       	ldi	r23, 0x01	; 1
    22b8:	0e 94 52 08 	call	0x10a4	; 0x10a4 <display_write_str>
    22bc:	81 e0       	ldi	r24, 0x01	; 1
    22be:	8a 83       	std	Y+2, r24	; 0x02
    22c0:	37 c0       	rjmp	.+110    	; 0x2330 <display_digits+0xd0>
    22c2:	48 85       	ldd	r20, Y+8	; 0x08
    22c4:	59 85       	ldd	r21, Y+9	; 0x09
				comma_set = 1;
    22c6:	9a 01       	movw	r18, r20
    22c8:	ad ec       	ldi	r26, 0xCD	; 205
    22ca:	bc ec       	ldi	r27, 0xCC	; 204
			}
			
		}
		else
		{
			display_small_number(display,(offset + (digits-i-comma_set)), row, number%10);
    22cc:	0e 94 70 1d 	call	0x3ae0	; 0x3ae0 <__umulhisi3>
    22d0:	96 95       	lsr	r25
    22d2:	87 95       	ror	r24
    22d4:	96 95       	lsr	r25
    22d6:	87 95       	ror	r24
    22d8:	96 95       	lsr	r25
    22da:	87 95       	ror	r24
    22dc:	88 0f       	add	r24, r24
    22de:	99 1f       	adc	r25, r25
    22e0:	9c 01       	movw	r18, r24
    22e2:	22 0f       	add	r18, r18
    22e4:	33 1f       	adc	r19, r19
    22e6:	22 0f       	add	r18, r18
    22e8:	33 1f       	adc	r19, r19
    22ea:	82 0f       	add	r24, r18
    22ec:	93 1f       	adc	r25, r19
    22ee:	9a 01       	movw	r18, r20
    22f0:	28 1b       	sub	r18, r24
    22f2:	39 0b       	sbc	r19, r25
    22f4:	c9 01       	movw	r24, r18
    22f6:	28 2f       	mov	r18, r24
    22f8:	9d 81       	ldd	r25, Y+5	; 0x05
    22fa:	89 81       	ldd	r24, Y+1	; 0x01
    22fc:	98 1b       	sub	r25, r24
    22fe:	8a 81       	ldd	r24, Y+2	; 0x02
    2300:	98 1b       	sub	r25, r24
    2302:	8e 81       	ldd	r24, Y+6	; 0x06
    2304:	39 2f       	mov	r19, r25
    2306:	38 0f       	add	r19, r24
    2308:	8b 81       	ldd	r24, Y+3	; 0x03
    230a:	9c 81       	ldd	r25, Y+4	; 0x04
    230c:	4f 81       	ldd	r20, Y+7	; 0x07
    230e:	63 2f       	mov	r22, r19
    2310:	3b d2       	rcall	.+1142   	; 0x2788 <display_small_number>
    2312:	88 85       	ldd	r24, Y+8	; 0x08
    2314:	99 85       	ldd	r25, Y+9	; 0x09
    2316:	9c 01       	movw	r18, r24
    2318:	ad ec       	ldi	r26, 0xCD	; 205
    231a:	bc ec       	ldi	r27, 0xCC	; 204
    231c:	0e 94 70 1d 	call	0x3ae0	; 0x3ae0 <__umulhisi3>
			number = number/10;
    2320:	96 95       	lsr	r25
    2322:	87 95       	ror	r24
    2324:	96 95       	lsr	r25
    2326:	87 95       	ror	r24
    2328:	96 95       	lsr	r25
    232a:	87 95       	ror	r24
    232c:	99 87       	std	Y+9, r25	; 0x09
    232e:	88 87       	std	Y+8, r24	; 0x08
    2330:	89 81       	ldd	r24, Y+1	; 0x01
    2332:	8f 5f       	subi	r24, 0xFF	; 255
    2334:	89 83       	std	Y+1, r24	; 0x01
    2336:	99 81       	ldd	r25, Y+1	; 0x01
    2338:	8d 81       	ldd	r24, Y+5	; 0x05
    233a:	98 17       	cp	r25, r24
void display_digits(struct DISPLAY_PAGE *display, uint8_t digits, uint8_t offset,uint8_t row,  uint16_t number, uint8_t comma){
	
	uint8_t i;
	uint8_t comma_set = 0;
	
	for(i=0; i>= digits; i++)
    233c:	08 f0       	brcs	.+2      	; 0x2340 <display_digits+0xe0>
    233e:	a8 cf       	rjmp	.-176    	; 0x2290 <display_digits+0x30>
    2340:	00 00       	nop
    2342:	2a 96       	adiw	r28, 0x0a	; 10
    2344:	0f b6       	in	r0, 0x3f	; 63
    2346:	f8 94       	cli
    2348:	de bf       	out	0x3e, r29	; 62
    234a:	0f be       	out	0x3f, r0	; 63
			display_small_number(display,(offset + (digits-i-comma_set)), row, number%10);
			number = number/10;
		}
		
	}
}
    234c:	cd bf       	out	0x3d, r28	; 61
    234e:	df 91       	pop	r29
    2350:	cf 91       	pop	r28
    2352:	1f 91       	pop	r17
    2354:	0f 91       	pop	r16
    2356:	ef 90       	pop	r14
    2358:	08 95       	ret

0000235a <display_large_number>:
    235a:	cf 93       	push	r28
    235c:	df 93       	push	r29
    235e:	00 d0       	rcall	.+0      	; 0x2360 <display_large_number+0x6>
    2360:	00 d0       	rcall	.+0      	; 0x2362 <display_large_number+0x8>
    2362:	cd b7       	in	r28, 0x3d	; 61
    2364:	de b7       	in	r29, 0x3e	; 62

	

void display_large_number(struct DISPLAY_PAGE *display, uint8_t offset, uint8_t number){
    2366:	9a 83       	std	Y+2, r25	; 0x02
    2368:	89 83       	std	Y+1, r24	; 0x01
    236a:	6b 83       	std	Y+3, r22	; 0x03
    236c:	4c 83       	std	Y+4, r20	; 0x04
    236e:	8c 81       	ldd	r24, Y+4	; 0x04
    2370:	88 2f       	mov	r24, r24
    2372:	90 e0       	ldi	r25, 0x00	; 0
    2374:	09 2e       	mov	r0, r25
    2376:	00 0c       	add	r0, r0
    2378:	aa 0b       	sbc	r26, r26

	switch (number){
    237a:	bb 0b       	sbc	r27, r27
    237c:	40 e0       	ldi	r20, 0x00	; 0
    237e:	50 e0       	ldi	r21, 0x00	; 0
    2380:	2d e0       	ldi	r18, 0x0D	; 13
    2382:	30 e0       	ldi	r19, 0x00	; 0
    2384:	84 1b       	sub	r24, r20
    2386:	95 0b       	sbc	r25, r21
    2388:	28 17       	cp	r18, r24
    238a:	39 07       	cpc	r19, r25
    238c:	08 f4       	brcc	.+2      	; 0x2390 <display_large_number+0x36>
    238e:	d3 c1       	rjmp	.+934    	; 0x2736 <display_large_number+0x3dc>
    2390:	86 5b       	subi	r24, 0xB6	; 182
    2392:	9f 4f       	sbci	r25, 0xFF	; 255
    2394:	fc 01       	movw	r30, r24
    2396:	0c 94 67 1d 	jmp	0x3ace	; 0x3ace <__tablejump2__>
    239a:	89 81       	ldd	r24, Y+1	; 0x01
    239c:	9a 81       	ldd	r25, Y+2	; 0x02
    239e:	2b 81       	ldd	r18, Y+3	; 0x03
    23a0:	40 e0       	ldi	r20, 0x00	; 0
    23a2:	65 ef       	ldi	r22, 0xF5	; 245
    23a4:	71 e0       	ldi	r23, 0x01	; 1
		case 0:
			display_write_str(display, "\xff\xff\xff",0,offset);
    23a6:	0e 94 52 08 	call	0x10a4	; 0x10a4 <display_write_str>
    23aa:	89 81       	ldd	r24, Y+1	; 0x01
    23ac:	9a 81       	ldd	r25, Y+2	; 0x02
    23ae:	2b 81       	ldd	r18, Y+3	; 0x03
    23b0:	41 e0       	ldi	r20, 0x01	; 1
    23b2:	69 ef       	ldi	r22, 0xF9	; 249
    23b4:	71 e0       	ldi	r23, 0x01	; 1
			display_write_str(display, "\xff \xff",1,offset);
    23b6:	0e 94 52 08 	call	0x10a4	; 0x10a4 <display_write_str>
    23ba:	89 81       	ldd	r24, Y+1	; 0x01
    23bc:	9a 81       	ldd	r25, Y+2	; 0x02
    23be:	2b 81       	ldd	r18, Y+3	; 0x03
    23c0:	42 e0       	ldi	r20, 0x02	; 2
    23c2:	69 ef       	ldi	r22, 0xF9	; 249
    23c4:	71 e0       	ldi	r23, 0x01	; 1
			display_write_str(display, "\xff \xff",2,offset);
    23c6:	0e 94 52 08 	call	0x10a4	; 0x10a4 <display_write_str>
    23ca:	89 81       	ldd	r24, Y+1	; 0x01
    23cc:	9a 81       	ldd	r25, Y+2	; 0x02
    23ce:	2b 81       	ldd	r18, Y+3	; 0x03
    23d0:	43 e0       	ldi	r20, 0x03	; 3
    23d2:	65 ef       	ldi	r22, 0xF5	; 245
    23d4:	71 e0       	ldi	r23, 0x01	; 1
			display_write_str(display, "\xff\xff\xff",3,offset);
    23d6:	0e 94 52 08 	call	0x10a4	; 0x10a4 <display_write_str>
    23da:	ce c1       	rjmp	.+924    	; 0x2778 <display_large_number+0x41e>
    23dc:	89 81       	ldd	r24, Y+1	; 0x01
    23de:	9a 81       	ldd	r25, Y+2	; 0x02
    23e0:	2b 81       	ldd	r18, Y+3	; 0x03
    23e2:	40 e0       	ldi	r20, 0x00	; 0
    23e4:	6d ef       	ldi	r22, 0xFD	; 253
			break;
    23e6:	71 e0       	ldi	r23, 0x01	; 1
		case 1:
			display_write_str(display, " \xff\xff",0,offset);
    23e8:	0e 94 52 08 	call	0x10a4	; 0x10a4 <display_write_str>
    23ec:	89 81       	ldd	r24, Y+1	; 0x01
    23ee:	9a 81       	ldd	r25, Y+2	; 0x02
    23f0:	2b 81       	ldd	r18, Y+3	; 0x03
    23f2:	41 e0       	ldi	r20, 0x01	; 1
    23f4:	61 e0       	ldi	r22, 0x01	; 1
    23f6:	72 e0       	ldi	r23, 0x02	; 2
			display_write_str(display, "  \xff",1,offset);
    23f8:	0e 94 52 08 	call	0x10a4	; 0x10a4 <display_write_str>
    23fc:	89 81       	ldd	r24, Y+1	; 0x01
    23fe:	9a 81       	ldd	r25, Y+2	; 0x02
    2400:	2b 81       	ldd	r18, Y+3	; 0x03
    2402:	42 e0       	ldi	r20, 0x02	; 2
    2404:	61 e0       	ldi	r22, 0x01	; 1
    2406:	72 e0       	ldi	r23, 0x02	; 2
			display_write_str(display, "  \xff",2,offset);
    2408:	0e 94 52 08 	call	0x10a4	; 0x10a4 <display_write_str>
    240c:	89 81       	ldd	r24, Y+1	; 0x01
    240e:	9a 81       	ldd	r25, Y+2	; 0x02
    2410:	2b 81       	ldd	r18, Y+3	; 0x03
    2412:	43 e0       	ldi	r20, 0x03	; 3
    2414:	61 e0       	ldi	r22, 0x01	; 1
    2416:	72 e0       	ldi	r23, 0x02	; 2
			display_write_str(display, "  \xff",3,offset);
    2418:	0e 94 52 08 	call	0x10a4	; 0x10a4 <display_write_str>
    241c:	ad c1       	rjmp	.+858    	; 0x2778 <display_large_number+0x41e>
    241e:	89 81       	ldd	r24, Y+1	; 0x01
    2420:	9a 81       	ldd	r25, Y+2	; 0x02
    2422:	2b 81       	ldd	r18, Y+3	; 0x03
    2424:	40 e0       	ldi	r20, 0x00	; 0
    2426:	65 ef       	ldi	r22, 0xF5	; 245
			break;
    2428:	71 e0       	ldi	r23, 0x01	; 1
		case 2:
			display_write_str(display, "\xff\xff\xff",0,offset);
    242a:	0e 94 52 08 	call	0x10a4	; 0x10a4 <display_write_str>
    242e:	89 81       	ldd	r24, Y+1	; 0x01
    2430:	9a 81       	ldd	r25, Y+2	; 0x02
    2432:	2b 81       	ldd	r18, Y+3	; 0x03
    2434:	41 e0       	ldi	r20, 0x01	; 1
    2436:	65 e0       	ldi	r22, 0x05	; 5
    2438:	72 e0       	ldi	r23, 0x02	; 2
			display_write_str(display, "\x07\x07\xff",1,offset);
    243a:	0e 94 52 08 	call	0x10a4	; 0x10a4 <display_write_str>
    243e:	89 81       	ldd	r24, Y+1	; 0x01
    2440:	9a 81       	ldd	r25, Y+2	; 0x02
    2442:	2b 81       	ldd	r18, Y+3	; 0x03
    2444:	42 e0       	ldi	r20, 0x02	; 2
    2446:	69 e0       	ldi	r22, 0x09	; 9
    2448:	72 e0       	ldi	r23, 0x02	; 2
			display_write_str(display, "\xff\x01\x01",2,offset);
    244a:	0e 94 52 08 	call	0x10a4	; 0x10a4 <display_write_str>
    244e:	89 81       	ldd	r24, Y+1	; 0x01
    2450:	9a 81       	ldd	r25, Y+2	; 0x02
    2452:	2b 81       	ldd	r18, Y+3	; 0x03
    2454:	43 e0       	ldi	r20, 0x03	; 3
    2456:	65 ef       	ldi	r22, 0xF5	; 245
    2458:	71 e0       	ldi	r23, 0x01	; 1
			display_write_str(display, "\xff\xff\xff",3,offset);
    245a:	0e 94 52 08 	call	0x10a4	; 0x10a4 <display_write_str>
    245e:	8c c1       	rjmp	.+792    	; 0x2778 <display_large_number+0x41e>
    2460:	89 81       	ldd	r24, Y+1	; 0x01
    2462:	9a 81       	ldd	r25, Y+2	; 0x02
    2464:	2b 81       	ldd	r18, Y+3	; 0x03
    2466:	40 e0       	ldi	r20, 0x00	; 0
    2468:	65 ef       	ldi	r22, 0xF5	; 245
			break;
    246a:	71 e0       	ldi	r23, 0x01	; 1
		case 3:
			display_write_str(display, "\xff\xff\xff",0,offset);
    246c:	0e 94 52 08 	call	0x10a4	; 0x10a4 <display_write_str>
    2470:	89 81       	ldd	r24, Y+1	; 0x01
    2472:	9a 81       	ldd	r25, Y+2	; 0x02
    2474:	2b 81       	ldd	r18, Y+3	; 0x03
    2476:	41 e0       	ldi	r20, 0x01	; 1
    2478:	65 e0       	ldi	r22, 0x05	; 5
    247a:	72 e0       	ldi	r23, 0x02	; 2
			display_write_str(display, "\x07\x07\xff",1,offset);
    247c:	0e 94 52 08 	call	0x10a4	; 0x10a4 <display_write_str>
    2480:	89 81       	ldd	r24, Y+1	; 0x01
    2482:	9a 81       	ldd	r25, Y+2	; 0x02
    2484:	2b 81       	ldd	r18, Y+3	; 0x03
    2486:	42 e0       	ldi	r20, 0x02	; 2
    2488:	6d e0       	ldi	r22, 0x0D	; 13
    248a:	72 e0       	ldi	r23, 0x02	; 2
			display_write_str(display, "\x01\x01\xff",2,offset);
    248c:	0e 94 52 08 	call	0x10a4	; 0x10a4 <display_write_str>
    2490:	89 81       	ldd	r24, Y+1	; 0x01
    2492:	9a 81       	ldd	r25, Y+2	; 0x02
    2494:	2b 81       	ldd	r18, Y+3	; 0x03
    2496:	43 e0       	ldi	r20, 0x03	; 3
    2498:	65 ef       	ldi	r22, 0xF5	; 245
    249a:	71 e0       	ldi	r23, 0x01	; 1
			display_write_str(display, "\xff\xff\xff",3,offset);
    249c:	0e 94 52 08 	call	0x10a4	; 0x10a4 <display_write_str>
    24a0:	6b c1       	rjmp	.+726    	; 0x2778 <display_large_number+0x41e>
    24a2:	89 81       	ldd	r24, Y+1	; 0x01
    24a4:	9a 81       	ldd	r25, Y+2	; 0x02
    24a6:	2b 81       	ldd	r18, Y+3	; 0x03
    24a8:	40 e0       	ldi	r20, 0x00	; 0
    24aa:	61 e1       	ldi	r22, 0x11	; 17
			break;
    24ac:	72 e0       	ldi	r23, 0x02	; 2
		case 4:
			display_write_str(display, "\x03  ",0,offset);
    24ae:	0e 94 52 08 	call	0x10a4	; 0x10a4 <display_write_str>
    24b2:	89 81       	ldd	r24, Y+1	; 0x01
    24b4:	9a 81       	ldd	r25, Y+2	; 0x02
    24b6:	2b 81       	ldd	r18, Y+3	; 0x03
    24b8:	41 e0       	ldi	r20, 0x01	; 1
    24ba:	65 e1       	ldi	r22, 0x15	; 21
    24bc:	72 e0       	ldi	r23, 0x02	; 2
			display_write_str(display, "\x03\x02 ",1,offset);
    24be:	0e 94 52 08 	call	0x10a4	; 0x10a4 <display_write_str>
    24c2:	89 81       	ldd	r24, Y+1	; 0x01
    24c4:	9a 81       	ldd	r25, Y+2	; 0x02
    24c6:	2b 81       	ldd	r18, Y+3	; 0x03
    24c8:	42 e0       	ldi	r20, 0x02	; 2
    24ca:	69 e1       	ldi	r22, 0x19	; 25
    24cc:	72 e0       	ldi	r23, 0x02	; 2
			display_write_str(display, "\x04\x05\x04",2,offset);
    24ce:	0e 94 52 08 	call	0x10a4	; 0x10a4 <display_write_str>
    24d2:	89 81       	ldd	r24, Y+1	; 0x01
    24d4:	9a 81       	ldd	r25, Y+2	; 0x02
    24d6:	2b 81       	ldd	r18, Y+3	; 0x03
    24d8:	43 e0       	ldi	r20, 0x03	; 3
    24da:	6d e1       	ldi	r22, 0x1D	; 29
    24dc:	72 e0       	ldi	r23, 0x02	; 2
			display_write_str(display, " \x02 ",3,offset);
    24de:	0e 94 52 08 	call	0x10a4	; 0x10a4 <display_write_str>
    24e2:	4a c1       	rjmp	.+660    	; 0x2778 <display_large_number+0x41e>
    24e4:	89 81       	ldd	r24, Y+1	; 0x01
    24e6:	9a 81       	ldd	r25, Y+2	; 0x02
    24e8:	2b 81       	ldd	r18, Y+3	; 0x03
    24ea:	40 e0       	ldi	r20, 0x00	; 0
    24ec:	65 ef       	ldi	r22, 0xF5	; 245
			break;
    24ee:	71 e0       	ldi	r23, 0x01	; 1
		case 5:
			display_write_str(display, "\xff\xff\xff",0,offset);
    24f0:	0e 94 52 08 	call	0x10a4	; 0x10a4 <display_write_str>
    24f4:	89 81       	ldd	r24, Y+1	; 0x01
    24f6:	9a 81       	ldd	r25, Y+2	; 0x02
    24f8:	2b 81       	ldd	r18, Y+3	; 0x03
    24fa:	41 e0       	ldi	r20, 0x01	; 1
    24fc:	61 e2       	ldi	r22, 0x21	; 33
    24fe:	72 e0       	ldi	r23, 0x02	; 2
			display_write_str(display, "\xff\x07\x07",1,offset);
    2500:	0e 94 52 08 	call	0x10a4	; 0x10a4 <display_write_str>
    2504:	89 81       	ldd	r24, Y+1	; 0x01
    2506:	9a 81       	ldd	r25, Y+2	; 0x02
    2508:	2b 81       	ldd	r18, Y+3	; 0x03
    250a:	42 e0       	ldi	r20, 0x02	; 2
    250c:	6d e0       	ldi	r22, 0x0D	; 13
    250e:	72 e0       	ldi	r23, 0x02	; 2
			display_write_str(display, "\x01\x01\xff",2,offset);
    2510:	0e 94 52 08 	call	0x10a4	; 0x10a4 <display_write_str>
    2514:	89 81       	ldd	r24, Y+1	; 0x01
    2516:	9a 81       	ldd	r25, Y+2	; 0x02
    2518:	2b 81       	ldd	r18, Y+3	; 0x03
    251a:	43 e0       	ldi	r20, 0x03	; 3
    251c:	65 ef       	ldi	r22, 0xF5	; 245
    251e:	71 e0       	ldi	r23, 0x01	; 1
			display_write_str(display, "\xff\xff\xff",3,offset);
    2520:	0e 94 52 08 	call	0x10a4	; 0x10a4 <display_write_str>
    2524:	29 c1       	rjmp	.+594    	; 0x2778 <display_large_number+0x41e>
    2526:	89 81       	ldd	r24, Y+1	; 0x01
    2528:	9a 81       	ldd	r25, Y+2	; 0x02
    252a:	2b 81       	ldd	r18, Y+3	; 0x03
    252c:	40 e0       	ldi	r20, 0x00	; 0
    252e:	65 ef       	ldi	r22, 0xF5	; 245
			break;
    2530:	71 e0       	ldi	r23, 0x01	; 1
		case 6:
			display_write_str(display, "\xff\xff\xff",0,offset);
    2532:	0e 94 52 08 	call	0x10a4	; 0x10a4 <display_write_str>
    2536:	89 81       	ldd	r24, Y+1	; 0x01
    2538:	9a 81       	ldd	r25, Y+2	; 0x02
    253a:	2b 81       	ldd	r18, Y+3	; 0x03
    253c:	41 e0       	ldi	r20, 0x01	; 1
    253e:	61 e2       	ldi	r22, 0x21	; 33
    2540:	72 e0       	ldi	r23, 0x02	; 2
			display_write_str(display, "\xff\x07\x07",1,offset);
    2542:	0e 94 52 08 	call	0x10a4	; 0x10a4 <display_write_str>
    2546:	89 81       	ldd	r24, Y+1	; 0x01
    2548:	9a 81       	ldd	r25, Y+2	; 0x02
    254a:	2b 81       	ldd	r18, Y+3	; 0x03
    254c:	42 e0       	ldi	r20, 0x02	; 2
    254e:	65 e2       	ldi	r22, 0x25	; 37
    2550:	72 e0       	ldi	r23, 0x02	; 2
			display_write_str(display, "\xff\x01\xff",2,offset);
    2552:	0e 94 52 08 	call	0x10a4	; 0x10a4 <display_write_str>
    2556:	89 81       	ldd	r24, Y+1	; 0x01
    2558:	9a 81       	ldd	r25, Y+2	; 0x02
    255a:	2b 81       	ldd	r18, Y+3	; 0x03
    255c:	43 e0       	ldi	r20, 0x03	; 3
    255e:	65 ef       	ldi	r22, 0xF5	; 245
    2560:	71 e0       	ldi	r23, 0x01	; 1
			display_write_str(display, "\xff\xff\xff",3,offset);
    2562:	0e 94 52 08 	call	0x10a4	; 0x10a4 <display_write_str>
    2566:	08 c1       	rjmp	.+528    	; 0x2778 <display_large_number+0x41e>
    2568:	89 81       	ldd	r24, Y+1	; 0x01
    256a:	9a 81       	ldd	r25, Y+2	; 0x02
    256c:	2b 81       	ldd	r18, Y+3	; 0x03
    256e:	40 e0       	ldi	r20, 0x00	; 0
    2570:	65 ef       	ldi	r22, 0xF5	; 245
			break;
    2572:	71 e0       	ldi	r23, 0x01	; 1
		case 7:
			display_write_str(display, "\xff\xff\xff",0,offset);
    2574:	0e 94 52 08 	call	0x10a4	; 0x10a4 <display_write_str>
    2578:	89 81       	ldd	r24, Y+1	; 0x01
    257a:	9a 81       	ldd	r25, Y+2	; 0x02
    257c:	2b 81       	ldd	r18, Y+3	; 0x03
    257e:	41 e0       	ldi	r20, 0x01	; 1
    2580:	61 e0       	ldi	r22, 0x01	; 1
    2582:	72 e0       	ldi	r23, 0x02	; 2
			display_write_str(display, "  \xff",1,offset);
    2584:	0e 94 52 08 	call	0x10a4	; 0x10a4 <display_write_str>
    2588:	89 81       	ldd	r24, Y+1	; 0x01
    258a:	9a 81       	ldd	r25, Y+2	; 0x02
    258c:	2b 81       	ldd	r18, Y+3	; 0x03
    258e:	42 e0       	ldi	r20, 0x02	; 2
    2590:	69 e2       	ldi	r22, 0x29	; 41
    2592:	72 e0       	ldi	r23, 0x02	; 2
			display_write_str(display, " \xff ",2,offset);
    2594:	0e 94 52 08 	call	0x10a4	; 0x10a4 <display_write_str>
    2598:	89 81       	ldd	r24, Y+1	; 0x01
    259a:	9a 81       	ldd	r25, Y+2	; 0x02
    259c:	2b 81       	ldd	r18, Y+3	; 0x03
    259e:	43 e0       	ldi	r20, 0x03	; 3
    25a0:	69 e2       	ldi	r22, 0x29	; 41
    25a2:	72 e0       	ldi	r23, 0x02	; 2
			display_write_str(display, " \xff ",3,offset);
    25a4:	0e 94 52 08 	call	0x10a4	; 0x10a4 <display_write_str>
    25a8:	e7 c0       	rjmp	.+462    	; 0x2778 <display_large_number+0x41e>
    25aa:	89 81       	ldd	r24, Y+1	; 0x01
    25ac:	9a 81       	ldd	r25, Y+2	; 0x02
    25ae:	2b 81       	ldd	r18, Y+3	; 0x03
    25b0:	40 e0       	ldi	r20, 0x00	; 0
    25b2:	65 ef       	ldi	r22, 0xF5	; 245
			break;
    25b4:	71 e0       	ldi	r23, 0x01	; 1
		case 8:
			display_write_str(display, "\xff\xff\xff",0,offset);
    25b6:	0e 94 52 08 	call	0x10a4	; 0x10a4 <display_write_str>
    25ba:	89 81       	ldd	r24, Y+1	; 0x01
    25bc:	9a 81       	ldd	r25, Y+2	; 0x02
    25be:	2b 81       	ldd	r18, Y+3	; 0x03
    25c0:	41 e0       	ldi	r20, 0x01	; 1
    25c2:	6d e2       	ldi	r22, 0x2D	; 45
    25c4:	72 e0       	ldi	r23, 0x02	; 2
			display_write_str(display, "\xff\x07\xff",1,offset);
    25c6:	0e 94 52 08 	call	0x10a4	; 0x10a4 <display_write_str>
    25ca:	89 81       	ldd	r24, Y+1	; 0x01
    25cc:	9a 81       	ldd	r25, Y+2	; 0x02
    25ce:	2b 81       	ldd	r18, Y+3	; 0x03
    25d0:	42 e0       	ldi	r20, 0x02	; 2
    25d2:	65 e2       	ldi	r22, 0x25	; 37
    25d4:	72 e0       	ldi	r23, 0x02	; 2
			display_write_str(display, "\xff\x01\xff",2,offset);
    25d6:	0e 94 52 08 	call	0x10a4	; 0x10a4 <display_write_str>
    25da:	89 81       	ldd	r24, Y+1	; 0x01
    25dc:	9a 81       	ldd	r25, Y+2	; 0x02
    25de:	2b 81       	ldd	r18, Y+3	; 0x03
    25e0:	43 e0       	ldi	r20, 0x03	; 3
    25e2:	6d e2       	ldi	r22, 0x2D	; 45
    25e4:	72 e0       	ldi	r23, 0x02	; 2
			display_write_str(display, "\xff\x07\xff",3,offset);
    25e6:	0e 94 52 08 	call	0x10a4	; 0x10a4 <display_write_str>
    25ea:	c6 c0       	rjmp	.+396    	; 0x2778 <display_large_number+0x41e>
    25ec:	89 81       	ldd	r24, Y+1	; 0x01
    25ee:	9a 81       	ldd	r25, Y+2	; 0x02
    25f0:	2b 81       	ldd	r18, Y+3	; 0x03
    25f2:	40 e0       	ldi	r20, 0x00	; 0
    25f4:	65 ef       	ldi	r22, 0xF5	; 245
			break;
    25f6:	71 e0       	ldi	r23, 0x01	; 1
		
		case 9:
			display_write_str(display, "\xff\xff\xff",0,offset);
    25f8:	0e 94 52 08 	call	0x10a4	; 0x10a4 <display_write_str>
    25fc:	89 81       	ldd	r24, Y+1	; 0x01
    25fe:	9a 81       	ldd	r25, Y+2	; 0x02
    2600:	2b 81       	ldd	r18, Y+3	; 0x03
    2602:	41 e0       	ldi	r20, 0x01	; 1
    2604:	6d e2       	ldi	r22, 0x2D	; 45
    2606:	72 e0       	ldi	r23, 0x02	; 2
			display_write_str(display, "\xff\x07\xff",1,offset);
    2608:	0e 94 52 08 	call	0x10a4	; 0x10a4 <display_write_str>
    260c:	89 81       	ldd	r24, Y+1	; 0x01
    260e:	9a 81       	ldd	r25, Y+2	; 0x02
    2610:	2b 81       	ldd	r18, Y+3	; 0x03
    2612:	42 e0       	ldi	r20, 0x02	; 2
    2614:	6d e0       	ldi	r22, 0x0D	; 13
    2616:	72 e0       	ldi	r23, 0x02	; 2
			display_write_str(display, "\x01\x01\xff",2,offset);
    2618:	0e 94 52 08 	call	0x10a4	; 0x10a4 <display_write_str>
    261c:	89 81       	ldd	r24, Y+1	; 0x01
    261e:	9a 81       	ldd	r25, Y+2	; 0x02
    2620:	2b 81       	ldd	r18, Y+3	; 0x03
    2622:	43 e0       	ldi	r20, 0x03	; 3
    2624:	61 e0       	ldi	r22, 0x01	; 1
    2626:	72 e0       	ldi	r23, 0x02	; 2
			display_write_str(display, "  \xff",3,offset);
    2628:	0e 94 52 08 	call	0x10a4	; 0x10a4 <display_write_str>
    262c:	a5 c0       	rjmp	.+330    	; 0x2778 <display_large_number+0x41e>
    262e:	89 81       	ldd	r24, Y+1	; 0x01
    2630:	9a 81       	ldd	r25, Y+2	; 0x02
    2632:	2b 81       	ldd	r18, Y+3	; 0x03
    2634:	40 e0       	ldi	r20, 0x00	; 0
    2636:	61 e3       	ldi	r22, 0x31	; 49
			break;
    2638:	72 e0       	ldi	r23, 0x02	; 2
		// 10 is completly empty
		case 10:
			display_write_str(display, "   ",0,offset);
    263a:	0e 94 52 08 	call	0x10a4	; 0x10a4 <display_write_str>
    263e:	89 81       	ldd	r24, Y+1	; 0x01
    2640:	9a 81       	ldd	r25, Y+2	; 0x02
    2642:	2b 81       	ldd	r18, Y+3	; 0x03
    2644:	41 e0       	ldi	r20, 0x01	; 1
    2646:	61 e3       	ldi	r22, 0x31	; 49
    2648:	72 e0       	ldi	r23, 0x02	; 2
			display_write_str(display, "   ",1,offset);
    264a:	0e 94 52 08 	call	0x10a4	; 0x10a4 <display_write_str>
    264e:	89 81       	ldd	r24, Y+1	; 0x01
    2650:	9a 81       	ldd	r25, Y+2	; 0x02
    2652:	2b 81       	ldd	r18, Y+3	; 0x03
    2654:	42 e0       	ldi	r20, 0x02	; 2
    2656:	61 e3       	ldi	r22, 0x31	; 49
    2658:	72 e0       	ldi	r23, 0x02	; 2
			display_write_str(display, "   ",2,offset);
    265a:	0e 94 52 08 	call	0x10a4	; 0x10a4 <display_write_str>
    265e:	89 81       	ldd	r24, Y+1	; 0x01
    2660:	9a 81       	ldd	r25, Y+2	; 0x02
    2662:	2b 81       	ldd	r18, Y+3	; 0x03
    2664:	43 e0       	ldi	r20, 0x03	; 3
    2666:	61 e3       	ldi	r22, 0x31	; 49
    2668:	72 e0       	ldi	r23, 0x02	; 2
			display_write_str(display, "   ",3,offset);
    266a:	0e 94 52 08 	call	0x10a4	; 0x10a4 <display_write_str>
    266e:	84 c0       	rjmp	.+264    	; 0x2778 <display_large_number+0x41e>
    2670:	89 81       	ldd	r24, Y+1	; 0x01
    2672:	9a 81       	ldd	r25, Y+2	; 0x02
    2674:	2b 81       	ldd	r18, Y+3	; 0x03
    2676:	40 e0       	ldi	r20, 0x00	; 0
    2678:	69 ef       	ldi	r22, 0xF9	; 249
			break;
    267a:	71 e0       	ldi	r23, 0x01	; 1
		
		//we misuse the 11 as V
		case 11:
			display_write_str(display, "\xff \xff",0,offset);
    267c:	0e 94 52 08 	call	0x10a4	; 0x10a4 <display_write_str>
    2680:	89 81       	ldd	r24, Y+1	; 0x01
    2682:	9a 81       	ldd	r25, Y+2	; 0x02
    2684:	2b 81       	ldd	r18, Y+3	; 0x03
    2686:	41 e0       	ldi	r20, 0x01	; 1
    2688:	69 ef       	ldi	r22, 0xF9	; 249
    268a:	71 e0       	ldi	r23, 0x01	; 1
			display_write_str(display, "\xff \xff",1,offset);
    268c:	0e 94 52 08 	call	0x10a4	; 0x10a4 <display_write_str>
    2690:	89 81       	ldd	r24, Y+1	; 0x01
    2692:	9a 81       	ldd	r25, Y+2	; 0x02
    2694:	2b 81       	ldd	r18, Y+3	; 0x03
    2696:	42 e0       	ldi	r20, 0x02	; 2
    2698:	65 e3       	ldi	r22, 0x35	; 53
    269a:	72 e0       	ldi	r23, 0x02	; 2
			display_write_str(display, "\x02\x07\x03",2,offset);
    269c:	0e 94 52 08 	call	0x10a4	; 0x10a4 <display_write_str>
    26a0:	89 81       	ldd	r24, Y+1	; 0x01
    26a2:	9a 81       	ldd	r25, Y+2	; 0x02
    26a4:	2b 81       	ldd	r18, Y+3	; 0x03
    26a6:	43 e0       	ldi	r20, 0x03	; 3
    26a8:	69 e2       	ldi	r22, 0x29	; 41
    26aa:	72 e0       	ldi	r23, 0x02	; 2
			display_write_str(display, " \xff ",3,offset);
    26ac:	0e 94 52 08 	call	0x10a4	; 0x10a4 <display_write_str>
    26b0:	63 c0       	rjmp	.+198    	; 0x2778 <display_large_number+0x41e>
    26b2:	89 81       	ldd	r24, Y+1	; 0x01
    26b4:	9a 81       	ldd	r25, Y+2	; 0x02
    26b6:	2b 81       	ldd	r18, Y+3	; 0x03
    26b8:	40 e0       	ldi	r20, 0x00	; 0
    26ba:	69 ef       	ldi	r22, 0xF9	; 249
			break;
    26bc:	71 e0       	ldi	r23, 0x01	; 1
		//we misuse the 12 as U
		case 12:
			display_write_str(display, "\xff \xff",0,offset);
    26be:	0e 94 52 08 	call	0x10a4	; 0x10a4 <display_write_str>
    26c2:	89 81       	ldd	r24, Y+1	; 0x01
    26c4:	9a 81       	ldd	r25, Y+2	; 0x02
    26c6:	2b 81       	ldd	r18, Y+3	; 0x03
    26c8:	41 e0       	ldi	r20, 0x01	; 1
    26ca:	69 ef       	ldi	r22, 0xF9	; 249
    26cc:	71 e0       	ldi	r23, 0x01	; 1
			display_write_str(display, "\xff \xff",1,offset);
    26ce:	0e 94 52 08 	call	0x10a4	; 0x10a4 <display_write_str>
    26d2:	89 81       	ldd	r24, Y+1	; 0x01
    26d4:	9a 81       	ldd	r25, Y+2	; 0x02
    26d6:	2b 81       	ldd	r18, Y+3	; 0x03
    26d8:	42 e0       	ldi	r20, 0x02	; 2
    26da:	69 ef       	ldi	r22, 0xF9	; 249
    26dc:	71 e0       	ldi	r23, 0x01	; 1
			display_write_str(display, "\xff \xff",2,offset);
    26de:	0e 94 52 08 	call	0x10a4	; 0x10a4 <display_write_str>
    26e2:	89 81       	ldd	r24, Y+1	; 0x01
    26e4:	9a 81       	ldd	r25, Y+2	; 0x02
    26e6:	2b 81       	ldd	r18, Y+3	; 0x03
    26e8:	43 e0       	ldi	r20, 0x03	; 3
    26ea:	65 ef       	ldi	r22, 0xF5	; 245
    26ec:	71 e0       	ldi	r23, 0x01	; 1
			display_write_str(display, "\xff\xff\xff",3,offset);
    26ee:	0e 94 52 08 	call	0x10a4	; 0x10a4 <display_write_str>
    26f2:	42 c0       	rjmp	.+132    	; 0x2778 <display_large_number+0x41e>
    26f4:	89 81       	ldd	r24, Y+1	; 0x01
    26f6:	9a 81       	ldd	r25, Y+2	; 0x02
    26f8:	2b 81       	ldd	r18, Y+3	; 0x03
    26fa:	40 e0       	ldi	r20, 0x00	; 0
    26fc:	65 ef       	ldi	r22, 0xF5	; 245
			break;
    26fe:	71 e0       	ldi	r23, 0x01	; 1
			//we misuse the 13 as C
		case 13:
			display_write_str(display, "\xff\xff\xff",0,offset);
    2700:	0e 94 52 08 	call	0x10a4	; 0x10a4 <display_write_str>
    2704:	89 81       	ldd	r24, Y+1	; 0x01
    2706:	9a 81       	ldd	r25, Y+2	; 0x02
    2708:	2b 81       	ldd	r18, Y+3	; 0x03
    270a:	41 e0       	ldi	r20, 0x01	; 1
    270c:	69 e3       	ldi	r22, 0x39	; 57
    270e:	72 e0       	ldi	r23, 0x02	; 2
			display_write_str(display, "\xff  ",1,offset);
    2710:	0e 94 52 08 	call	0x10a4	; 0x10a4 <display_write_str>
    2714:	89 81       	ldd	r24, Y+1	; 0x01
    2716:	9a 81       	ldd	r25, Y+2	; 0x02
    2718:	2b 81       	ldd	r18, Y+3	; 0x03
    271a:	42 e0       	ldi	r20, 0x02	; 2
    271c:	69 e3       	ldi	r22, 0x39	; 57
    271e:	72 e0       	ldi	r23, 0x02	; 2
			display_write_str(display, "\xff  ",2,offset);
    2720:	0e 94 52 08 	call	0x10a4	; 0x10a4 <display_write_str>
    2724:	89 81       	ldd	r24, Y+1	; 0x01
    2726:	9a 81       	ldd	r25, Y+2	; 0x02
    2728:	2b 81       	ldd	r18, Y+3	; 0x03
    272a:	43 e0       	ldi	r20, 0x03	; 3
    272c:	65 ef       	ldi	r22, 0xF5	; 245
    272e:	71 e0       	ldi	r23, 0x01	; 1
			display_write_str(display, "\xff\xff\xff",3,offset);
    2730:	0e 94 52 08 	call	0x10a4	; 0x10a4 <display_write_str>
    2734:	21 c0       	rjmp	.+66     	; 0x2778 <display_large_number+0x41e>
    2736:	89 81       	ldd	r24, Y+1	; 0x01
    2738:	9a 81       	ldd	r25, Y+2	; 0x02
    273a:	2b 81       	ldd	r18, Y+3	; 0x03
    273c:	40 e0       	ldi	r20, 0x00	; 0
    273e:	65 ef       	ldi	r22, 0xF5	; 245
			break;
    2740:	71 e0       	ldi	r23, 0x01	; 1
			
		//if no number was transmitted
		default:
			display_write_str(display, "\xff\xff\xff",0,offset);
    2742:	0e 94 52 08 	call	0x10a4	; 0x10a4 <display_write_str>
    2746:	89 81       	ldd	r24, Y+1	; 0x01
    2748:	9a 81       	ldd	r25, Y+2	; 0x02
    274a:	2b 81       	ldd	r18, Y+3	; 0x03
    274c:	41 e0       	ldi	r20, 0x01	; 1
    274e:	65 ef       	ldi	r22, 0xF5	; 245
    2750:	71 e0       	ldi	r23, 0x01	; 1
			display_write_str(display, "\xff\xff\xff",1,offset);
    2752:	0e 94 52 08 	call	0x10a4	; 0x10a4 <display_write_str>
    2756:	89 81       	ldd	r24, Y+1	; 0x01
    2758:	9a 81       	ldd	r25, Y+2	; 0x02
    275a:	2b 81       	ldd	r18, Y+3	; 0x03
    275c:	42 e0       	ldi	r20, 0x02	; 2
    275e:	65 ef       	ldi	r22, 0xF5	; 245
    2760:	71 e0       	ldi	r23, 0x01	; 1
			display_write_str(display, "\xff\xff\xff",2,offset);
    2762:	0e 94 52 08 	call	0x10a4	; 0x10a4 <display_write_str>
    2766:	89 81       	ldd	r24, Y+1	; 0x01
    2768:	9a 81       	ldd	r25, Y+2	; 0x02
    276a:	2b 81       	ldd	r18, Y+3	; 0x03
    276c:	43 e0       	ldi	r20, 0x03	; 3
    276e:	65 ef       	ldi	r22, 0xF5	; 245
    2770:	71 e0       	ldi	r23, 0x01	; 1
			display_write_str(display, "\xff\xff\xff",3,offset);
    2772:	0e 94 52 08 	call	0x10a4	; 0x10a4 <display_write_str>
    2776:	00 00       	nop
    2778:	00 00       	nop
    277a:	0f 90       	pop	r0
    277c:	0f 90       	pop	r0
    277e:	0f 90       	pop	r0
    2780:	0f 90       	pop	r0
			break;
    2782:	df 91       	pop	r29
	}
}
    2784:	cf 91       	pop	r28
    2786:	08 95       	ret

00002788 <display_small_number>:
    2788:	cf 93       	push	r28
    278a:	df 93       	push	r29
    278c:	00 d0       	rcall	.+0      	; 0x278e <display_small_number+0x6>
    278e:	00 d0       	rcall	.+0      	; 0x2790 <display_small_number+0x8>
    2790:	1f 92       	push	r1
    2792:	cd b7       	in	r28, 0x3d	; 61

void display_small_number(struct DISPLAY_PAGE *display, uint8_t offset, uint8_t row, uint8_t number){
    2794:	de b7       	in	r29, 0x3e	; 62
    2796:	9a 83       	std	Y+2, r25	; 0x02
    2798:	89 83       	std	Y+1, r24	; 0x01
    279a:	6b 83       	std	Y+3, r22	; 0x03
    279c:	4c 83       	std	Y+4, r20	; 0x04
    279e:	2d 83       	std	Y+5, r18	; 0x05
    27a0:	8d 81       	ldd	r24, Y+5	; 0x05
    27a2:	88 2f       	mov	r24, r24
    27a4:	90 e0       	ldi	r25, 0x00	; 0
    27a6:	09 2e       	mov	r0, r25
    27a8:	00 0c       	add	r0, r0
    27aa:	aa 0b       	sbc	r26, r26

	switch (number){
    27ac:	bb 0b       	sbc	r27, r27
    27ae:	40 e0       	ldi	r20, 0x00	; 0
    27b0:	50 e0       	ldi	r21, 0x00	; 0
    27b2:	29 e0       	ldi	r18, 0x09	; 9
    27b4:	30 e0       	ldi	r19, 0x00	; 0
    27b6:	84 1b       	sub	r24, r20
    27b8:	95 0b       	sbc	r25, r21
    27ba:	28 17       	cp	r18, r24
    27bc:	39 07       	cpc	r19, r25
    27be:	08 f4       	brcc	.+2      	; 0x27c2 <display_small_number+0x3a>
    27c0:	5f c0       	rjmp	.+190    	; 0x2880 <display_small_number+0xf8>
    27c2:	88 5a       	subi	r24, 0xA8	; 168
    27c4:	9f 4f       	sbci	r25, 0xFF	; 255
    27c6:	fc 01       	movw	r30, r24
    27c8:	0c 94 67 1d 	jmp	0x3ace	; 0x3ace <__tablejump2__>
    27cc:	89 81       	ldd	r24, Y+1	; 0x01
    27ce:	9a 81       	ldd	r25, Y+2	; 0x02
    27d0:	2b 81       	ldd	r18, Y+3	; 0x03
    27d2:	4c 81       	ldd	r20, Y+4	; 0x04
    27d4:	6d e3       	ldi	r22, 0x3D	; 61
    27d6:	72 e0       	ldi	r23, 0x02	; 2
		case 0:
			display_write_str(display, "0",row,offset);
    27d8:	0e 94 52 08 	call	0x10a4	; 0x10a4 <display_write_str>
    27dc:	5a c0       	rjmp	.+180    	; 0x2892 <display_small_number+0x10a>
    27de:	89 81       	ldd	r24, Y+1	; 0x01
    27e0:	9a 81       	ldd	r25, Y+2	; 0x02
    27e2:	2b 81       	ldd	r18, Y+3	; 0x03
    27e4:	4c 81       	ldd	r20, Y+4	; 0x04
    27e6:	6f e3       	ldi	r22, 0x3F	; 63
		break;
    27e8:	72 e0       	ldi	r23, 0x02	; 2
		
		case 1:
			display_write_str(display, "1",row,offset);
    27ea:	0e 94 52 08 	call	0x10a4	; 0x10a4 <display_write_str>
    27ee:	51 c0       	rjmp	.+162    	; 0x2892 <display_small_number+0x10a>
    27f0:	89 81       	ldd	r24, Y+1	; 0x01
    27f2:	9a 81       	ldd	r25, Y+2	; 0x02
    27f4:	2b 81       	ldd	r18, Y+3	; 0x03
    27f6:	4c 81       	ldd	r20, Y+4	; 0x04
    27f8:	61 e4       	ldi	r22, 0x41	; 65
		break;
    27fa:	72 e0       	ldi	r23, 0x02	; 2
		
		case 2:
			display_write_str(display, "2",row,offset);
    27fc:	0e 94 52 08 	call	0x10a4	; 0x10a4 <display_write_str>
    2800:	48 c0       	rjmp	.+144    	; 0x2892 <display_small_number+0x10a>
    2802:	89 81       	ldd	r24, Y+1	; 0x01
    2804:	9a 81       	ldd	r25, Y+2	; 0x02
    2806:	2b 81       	ldd	r18, Y+3	; 0x03
    2808:	4c 81       	ldd	r20, Y+4	; 0x04
    280a:	63 e4       	ldi	r22, 0x43	; 67
		break;
    280c:	72 e0       	ldi	r23, 0x02	; 2
		
		case 3:
			display_write_str(display, "3",row,offset);
    280e:	0e 94 52 08 	call	0x10a4	; 0x10a4 <display_write_str>
    2812:	3f c0       	rjmp	.+126    	; 0x2892 <display_small_number+0x10a>
    2814:	89 81       	ldd	r24, Y+1	; 0x01
    2816:	9a 81       	ldd	r25, Y+2	; 0x02
    2818:	2b 81       	ldd	r18, Y+3	; 0x03
    281a:	4c 81       	ldd	r20, Y+4	; 0x04
    281c:	65 e4       	ldi	r22, 0x45	; 69
		break;
    281e:	72 e0       	ldi	r23, 0x02	; 2
		
		case 4:
			display_write_str(display, "4",row,offset);
    2820:	0e 94 52 08 	call	0x10a4	; 0x10a4 <display_write_str>
    2824:	36 c0       	rjmp	.+108    	; 0x2892 <display_small_number+0x10a>
    2826:	89 81       	ldd	r24, Y+1	; 0x01
    2828:	9a 81       	ldd	r25, Y+2	; 0x02
    282a:	2b 81       	ldd	r18, Y+3	; 0x03
    282c:	4c 81       	ldd	r20, Y+4	; 0x04
    282e:	67 e4       	ldi	r22, 0x47	; 71
		break;
    2830:	72 e0       	ldi	r23, 0x02	; 2
		
		case 5:
			display_write_str(display, "5",row,offset);
    2832:	0e 94 52 08 	call	0x10a4	; 0x10a4 <display_write_str>
    2836:	2d c0       	rjmp	.+90     	; 0x2892 <display_small_number+0x10a>
    2838:	89 81       	ldd	r24, Y+1	; 0x01
    283a:	9a 81       	ldd	r25, Y+2	; 0x02
    283c:	2b 81       	ldd	r18, Y+3	; 0x03
    283e:	4c 81       	ldd	r20, Y+4	; 0x04
    2840:	69 e4       	ldi	r22, 0x49	; 73
		break;
    2842:	72 e0       	ldi	r23, 0x02	; 2
		
		case 6:
			display_write_str(display, "6",row,offset);
    2844:	0e 94 52 08 	call	0x10a4	; 0x10a4 <display_write_str>
    2848:	24 c0       	rjmp	.+72     	; 0x2892 <display_small_number+0x10a>
    284a:	89 81       	ldd	r24, Y+1	; 0x01
    284c:	9a 81       	ldd	r25, Y+2	; 0x02
    284e:	2b 81       	ldd	r18, Y+3	; 0x03
    2850:	4c 81       	ldd	r20, Y+4	; 0x04
    2852:	6b e4       	ldi	r22, 0x4B	; 75
		break;
    2854:	72 e0       	ldi	r23, 0x02	; 2
		
		case 7:
			display_write_str(display, "7",row,offset);
    2856:	0e 94 52 08 	call	0x10a4	; 0x10a4 <display_write_str>
    285a:	1b c0       	rjmp	.+54     	; 0x2892 <display_small_number+0x10a>
    285c:	89 81       	ldd	r24, Y+1	; 0x01
    285e:	9a 81       	ldd	r25, Y+2	; 0x02
    2860:	2b 81       	ldd	r18, Y+3	; 0x03
    2862:	4c 81       	ldd	r20, Y+4	; 0x04
    2864:	6d e4       	ldi	r22, 0x4D	; 77
		break;
    2866:	72 e0       	ldi	r23, 0x02	; 2
		
		case 8:
			display_write_str(display, "8",row,offset);
    2868:	0e 94 52 08 	call	0x10a4	; 0x10a4 <display_write_str>
    286c:	12 c0       	rjmp	.+36     	; 0x2892 <display_small_number+0x10a>
    286e:	89 81       	ldd	r24, Y+1	; 0x01
    2870:	9a 81       	ldd	r25, Y+2	; 0x02
    2872:	2b 81       	ldd	r18, Y+3	; 0x03
    2874:	4c 81       	ldd	r20, Y+4	; 0x04
    2876:	6f e4       	ldi	r22, 0x4F	; 79
		break;
    2878:	72 e0       	ldi	r23, 0x02	; 2
		
		case 9:
			display_write_str(display, "9",row,offset);
    287a:	0e 94 52 08 	call	0x10a4	; 0x10a4 <display_write_str>
    287e:	09 c0       	rjmp	.+18     	; 0x2892 <display_small_number+0x10a>
    2880:	89 81       	ldd	r24, Y+1	; 0x01
    2882:	9a 81       	ldd	r25, Y+2	; 0x02
    2884:	2b 81       	ldd	r18, Y+3	; 0x03
    2886:	4c 81       	ldd	r20, Y+4	; 0x04
    2888:	61 e5       	ldi	r22, 0x51	; 81
		break;
    288a:	72 e0       	ldi	r23, 0x02	; 2
		//if no number was transmitted
		default:
		display_write_str(display, "\xFF",row,offset);
    288c:	0e 94 52 08 	call	0x10a4	; 0x10a4 <display_write_str>
    2890:	00 00       	nop
    2892:	00 00       	nop
    2894:	0f 90       	pop	r0
    2896:	0f 90       	pop	r0
    2898:	0f 90       	pop	r0
    289a:	0f 90       	pop	r0
		break;
    289c:	0f 90       	pop	r0
	}
}
    289e:	df 91       	pop	r29
    28a0:	cf 91       	pop	r28
    28a2:	08 95       	ret

000028a4 <invert_binary_number>:
    28a4:	cf 93       	push	r28
    28a6:	df 93       	push	r29
    28a8:	00 d0       	rcall	.+0      	; 0x28aa <invert_binary_number+0x6>
    28aa:	1f 92       	push	r1
    28ac:	cd b7       	in	r28, 0x3d	; 61
    28ae:	de b7       	in	r29, 0x3e	; 62
    28b0:	8b 83       	std	Y+3, r24	; 0x03
    28b2:	19 82       	std	Y+1, r1	; 0x01
    28b4:	1a 82       	std	Y+2, r1	; 0x02
    28b6:	22 c0       	rjmp	.+68     	; 0x28fc <invert_binary_number+0x58>
    28b8:	8b 81       	ldd	r24, Y+3	; 0x03
    28ba:	88 2f       	mov	r24, r24
    28bc:	90 e0       	ldi	r25, 0x00	; 0
    28be:	2a 81       	ldd	r18, Y+2	; 0x02
    28c0:	22 2f       	mov	r18, r18
    28c2:	30 e0       	ldi	r19, 0x00	; 0
    28c4:	02 c0       	rjmp	.+4      	; 0x28ca <invert_binary_number+0x26>
    28c6:	95 95       	asr	r25
    28c8:	87 95       	ror	r24
    28ca:	2a 95       	dec	r18
    28cc:	e2 f7       	brpl	.-8      	; 0x28c6 <invert_binary_number+0x22>
    28ce:	81 70       	andi	r24, 0x01	; 1
    28d0:	99 27       	eor	r25, r25
    28d2:	2a 81       	ldd	r18, Y+2	; 0x02
    28d4:	22 2f       	mov	r18, r18
    28d6:	30 e0       	ldi	r19, 0x00	; 0
    28d8:	47 e0       	ldi	r20, 0x07	; 7
    28da:	50 e0       	ldi	r21, 0x00	; 0
    28dc:	ba 01       	movw	r22, r20
    28de:	62 1b       	sub	r22, r18
    28e0:	73 0b       	sbc	r23, r19
    28e2:	9b 01       	movw	r18, r22
    28e4:	02 c0       	rjmp	.+4      	; 0x28ea <invert_binary_number+0x46>
    28e6:	88 0f       	add	r24, r24
    28e8:	99 1f       	adc	r25, r25
    28ea:	2a 95       	dec	r18
    28ec:	e2 f7       	brpl	.-8      	; 0x28e6 <invert_binary_number+0x42>
    28ee:	98 2f       	mov	r25, r24
    28f0:	89 81       	ldd	r24, Y+1	; 0x01
    28f2:	89 2b       	or	r24, r25
    28f4:	89 83       	std	Y+1, r24	; 0x01
    28f6:	8a 81       	ldd	r24, Y+2	; 0x02
    28f8:	8f 5f       	subi	r24, 0xFF	; 255
    28fa:	8a 83       	std	Y+2, r24	; 0x02
    28fc:	8a 81       	ldd	r24, Y+2	; 0x02
    28fe:	88 30       	cpi	r24, 0x08	; 8
    2900:	d8 f2       	brcs	.-74     	; 0x28b8 <invert_binary_number+0x14>
    2902:	89 81       	ldd	r24, Y+1	; 0x01
    2904:	0f 90       	pop	r0
    2906:	0f 90       	pop	r0
    2908:	0f 90       	pop	r0
    290a:	df 91       	pop	r29
    290c:	cf 91       	pop	r28
    290e:	08 95       	ret

00002910 <main>:
extern uint8_t Akku_fan;
uint8_t Button_Akku = 0;

/*	MAIN	*/
int main(void)
{
    2910:	cf 93       	push	r28
    2912:	df 93       	push	r29
    2914:	cd b7       	in	r28, 0x3d	; 61
    2916:	de b7       	in	r29, 0x3e	; 62
    2918:	c2 55       	subi	r28, 0x52	; 82
    291a:	d1 40       	sbci	r29, 0x01	; 1
    291c:	0f b6       	in	r0, 0x3f	; 63
    291e:	f8 94       	cli
    2920:	de bf       	out	0x3e, r29	; 62
    2922:	0f be       	out	0x3f, r0	; 63
    2924:	cd bf       	out	0x3d, r28	; 61
	port_config();
    2926:	65 d6       	rcall	.+3274   	; 0x35f2 <port_config>
	init_display();
    2928:	0e 94 a8 08 	call	0x1150	; 0x1150 <init_display>
	display_definechars();
    292c:	0e 94 7a 07 	call	0xef4	; 0xef4 <display_definechars>
	configure_spi_bus();
	sys_timer_config();
    2930:	1a d1       	rcall	.+564    	; 0x2b66 <configure_spi_bus>
    2932:	d5 d6       	rcall	.+3498   	; 0x36de <sys_timer_config>
	init_mobs();
    2934:	0e 94 b8 00 	call	0x170	; 0x170 <init_mobs>
	can_cfg();
    2938:	0e 94 b2 04 	call	0x964	; 0x964 <can_cfg>
	extern volatile unsigned long sys_time;
	extern volatile uint8_t draw_data;
	
	volatile unsigned long sys_time_old;
	
	uint8_t dsp = 0;
    293c:	19 86       	std	Y+9, r1	; 0x09
	uint8_t time_10ms = 0;
    293e:	19 82       	std	Y+1, r1	; 0x01
	uint8_t time_50ms = 0;
    2940:	1a 86       	std	Y+10, r1	; 0x0a
	uint8_t time_150ms = 0;
    2942:	1a 82       	std	Y+2, r1	; 0x02
	uint8_t error_ams = 2;
    2944:	82 e0       	ldi	r24, 0x02	; 2
    2946:	8b 87       	std	Y+11, r24	; 0x0b
	uint8_t activate_ams = 0;
    2948:	1c 86       	std	Y+12, r1	; 0x0c
	unsigned long time_3000ms = 0;
    294a:	1b 82       	std	Y+3, r1	; 0x03
    294c:	1c 82       	std	Y+4, r1	; 0x04
    294e:	1d 82       	std	Y+5, r1	; 0x05
	
	sei();
	//this needs interrupts to be enabled
	configure_portextenders();
    2950:	1e 82       	std	Y+6, r1	; 0x06
    2952:	78 94       	sei
	pre_defined_led_colors(PE_OFF);
    2954:	5f d2       	rcall	.+1214   	; 0x2e14 <configure_portextenders>
    2956:	87 e0       	ldi	r24, 0x07	; 7
    2958:	79 d2       	rcall	.+1266   	; 0x2e4c <pre_defined_led_colors>
	
	
	//dispaly state -> saves postitions and stuff
	struct DISPLAY_STATE display_state = get_empty_state();
    295a:	0e 94 c7 06 	call	0xd8e	; 0xd8e <get_empty_state>
    295e:	9a 8b       	std	Y+18, r25	; 0x12
    2960:	89 8b       	std	Y+17, r24	; 0x11
	
	//display pages holding data
	struct DISPLAY_PAGE dsp_startup = get_empty_display();
    2962:	ce 01       	movw	r24, r28
    2964:	43 96       	adiw	r24, 0x13	; 19
    2966:	0e 94 d5 06 	call	0xdaa	; 0xdaa <get_empty_display>
	
	struct DISPLAY_PAGE dsp_voltage = get_empty_display();
    296a:	ce 01       	movw	r24, r28
    296c:	8d 59       	subi	r24, 0x9D	; 157
    296e:	9f 4f       	sbci	r25, 0xFF	; 255
    2970:	0e 94 d5 06 	call	0xdaa	; 0xdaa <get_empty_display>
	
	struct DISPLAY_PAGE dsp_temp = get_empty_display();
    2974:	ce 01       	movw	r24, r28
    2976:	8d 54       	subi	r24, 0x4D	; 77
    2978:	9f 4f       	sbci	r25, 0xFF	; 255
    297a:	0e 94 d5 06 	call	0xdaa	; 0xdaa <get_empty_display>
	
	struct DISPLAY_PAGE dsp_main = get_empty_display();
    297e:	ce 01       	movw	r24, r28
    2980:	8d 5f       	subi	r24, 0xFD	; 253
    2982:	9e 4f       	sbci	r25, 0xFE	; 254
    2984:	0e 94 d5 06 	call	0xdaa	; 0xdaa <get_empty_display>
	
	display_write_str(&dsp_startup, "   Baldig Resing    ",0,0);
    2988:	ce 01       	movw	r24, r28
    298a:	43 96       	adiw	r24, 0x13	; 19
    298c:	20 e0       	ldi	r18, 0x00	; 0
    298e:	40 e0       	ldi	r20, 0x00	; 0
    2990:	63 e5       	ldi	r22, 0x53	; 83
    2992:	72 e0       	ldi	r23, 0x02	; 2
    2994:	0e 94 52 08 	call	0x10a4	; 0x10a4 <display_write_str>
	display_write_str(&dsp_startup, "        .--.        ",1,0);
    2998:	ce 01       	movw	r24, r28
    299a:	43 96       	adiw	r24, 0x13	; 19
    299c:	20 e0       	ldi	r18, 0x00	; 0
    299e:	41 e0       	ldi	r20, 0x01	; 1
    29a0:	68 e6       	ldi	r22, 0x68	; 104
    29a2:	72 e0       	ldi	r23, 0x02	; 2
    29a4:	0e 94 52 08 	call	0x10a4	; 0x10a4 <display_write_str>
	display_write_str(&dsp_startup, "   .----'   '--.    ",2,0);
    29a8:	ce 01       	movw	r24, r28
    29aa:	43 96       	adiw	r24, 0x13	; 19
    29ac:	20 e0       	ldi	r18, 0x00	; 0
    29ae:	42 e0       	ldi	r20, 0x02	; 2
    29b0:	6d e7       	ldi	r22, 0x7D	; 125
    29b2:	72 e0       	ldi	r23, 0x02	; 2
    29b4:	0e 94 52 08 	call	0x10a4	; 0x10a4 <display_write_str>
	display_write_str(&dsp_startup, "   '-()-----()-'    ",3,0);
    29b8:	ce 01       	movw	r24, r28
    29ba:	43 96       	adiw	r24, 0x13	; 19
    29bc:	20 e0       	ldi	r18, 0x00	; 0
    29be:	43 e0       	ldi	r20, 0x03	; 3
    29c0:	62 e9       	ldi	r22, 0x92	; 146
    29c2:	72 e0       	ldi	r23, 0x02	; 2
    29c4:	0e 94 52 08 	call	0x10a4	; 0x10a4 <display_write_str>

	//Variable die das aktive Display hält!
	struct DISPLAY_PAGE *active_display = &dsp_startup;
    29c8:	ce 01       	movw	r24, r28
    29ca:	43 96       	adiw	r24, 0x13	; 19
    29cc:	98 87       	std	Y+8, r25	; 0x08
    29ce:	8f 83       	std	Y+7, r24	; 0x07
	
	while (1)
	{
		if (draw_data)
    29d0:	80 91 02 03 	lds	r24, 0x0302	; 0x800302 <draw_data>
    29d4:	88 23       	and	r24, r24
    29d6:	51 f0       	breq	.+20     	; 0x29ec <main+0xdc>
		{
			draw_data = 0;
    29d8:	10 92 02 03 	sts	0x0302, r1	; 0x800302 <draw_data>
			draw_char(active_display,&display_state);
    29dc:	9e 01       	movw	r18, r28
    29de:	2f 5e       	subi	r18, 0xEF	; 239
    29e0:	3f 4f       	sbci	r19, 0xFF	; 255
    29e2:	8f 81       	ldd	r24, Y+7	; 0x07
    29e4:	98 85       	ldd	r25, Y+8	; 0x08
    29e6:	b9 01       	movw	r22, r18
    29e8:	0e 94 65 06 	call	0xcca	; 0xcca <draw_char>
			
		}
		if((sys_time - sys_time_old) >= 1)
    29ec:	20 91 fe 02 	lds	r18, 0x02FE	; 0x8002fe <sys_time>
    29f0:	30 91 ff 02 	lds	r19, 0x02FF	; 0x8002ff <sys_time+0x1>
    29f4:	40 91 00 03 	lds	r20, 0x0300	; 0x800300 <sys_time+0x2>
    29f8:	50 91 01 03 	lds	r21, 0x0301	; 0x800301 <sys_time+0x3>
    29fc:	8d 85       	ldd	r24, Y+13	; 0x0d
    29fe:	9e 85       	ldd	r25, Y+14	; 0x0e
    2a00:	af 85       	ldd	r26, Y+15	; 0x0f
    2a02:	b8 89       	ldd	r27, Y+16	; 0x10
    2a04:	28 17       	cp	r18, r24
    2a06:	39 07       	cpc	r19, r25
    2a08:	4a 07       	cpc	r20, r26
    2a0a:	5b 07       	cpc	r21, r27
    2a0c:	79 f0       	breq	.+30     	; 0x2a2c <main+0x11c>
		{
			sys_time_old = sys_time;
    2a0e:	80 91 fe 02 	lds	r24, 0x02FE	; 0x8002fe <sys_time>
    2a12:	90 91 ff 02 	lds	r25, 0x02FF	; 0x8002ff <sys_time+0x1>
    2a16:	a0 91 00 03 	lds	r26, 0x0300	; 0x800300 <sys_time+0x2>
    2a1a:	b0 91 01 03 	lds	r27, 0x0301	; 0x800301 <sys_time+0x3>
    2a1e:	8d 87       	std	Y+13, r24	; 0x0d
    2a20:	9e 87       	std	Y+14, r25	; 0x0e
    2a22:	af 87       	std	Y+15, r26	; 0x0f
    2a24:	b8 8b       	std	Y+16, r27	; 0x10
			time_10ms++;
    2a26:	89 81       	ldd	r24, Y+1	; 0x01
    2a28:	8f 5f       	subi	r24, 0xFF	; 255
    2a2a:	89 83       	std	Y+1, r24	; 0x01
		}
		
		
		if (time_10ms > 9)
    2a2c:	89 81       	ldd	r24, Y+1	; 0x01
    2a2e:	8a 30       	cpi	r24, 0x0A	; 10
    2a30:	08 f4       	brcc	.+2      	; 0x2a34 <main+0x124>
    2a32:	76 c0       	rjmp	.+236    	; 0x2b20 <main+0x210>
		{
			can_transmit();
    2a34:	0e 94 04 02 	call	0x408	; 0x408 <can_transmit>
			can_receive();
    2a38:	0e 94 a6 01 	call	0x34c	; 0x34c <can_receive>
			can_put_data();
    2a3c:	0e 94 2f 02 	call	0x45e	; 0x45e <can_put_data>
			//display_main(active_display);
			display_clear(active_display);
    2a40:	8f 81       	ldd	r24, Y+7	; 0x07
    2a42:	98 85       	ldd	r25, Y+8	; 0x08
    2a44:	5a da       	rcall	.-2892   	; 0x1efa <display_clear>
			
			if (led_test == 0)
    2a46:	80 91 0b 01 	lds	r24, 0x010B	; 0x80010b <led_test>
    2a4a:	88 23       	and	r24, r24
    2a4c:	19 f5       	brne	.+70     	; 0x2a94 <main+0x184>
						//led_top_light(i);  // Schalte die LED aus
					//}
				//}
				//LED_RPM = ((RPM/466.66) - 1);
				
				for (LED_counter2 = LED_RPM + 1; LED_counter2 < 15; LED_counter2++)
    2a4e:	80 91 eb 02 	lds	r24, 0x02EB	; 0x8002eb <LED_RPM>
    2a52:	8f 5f       	subi	r24, 0xFF	; 255
    2a54:	80 93 fb 02 	sts	0x02FB, r24	; 0x8002fb <LED_counter2>
				{
					led_top_clear(LED_counter2);
    2a58:	08 c0       	rjmp	.+16     	; 0x2a6a <main+0x15a>
    2a5a:	80 91 fb 02 	lds	r24, 0x02FB	; 0x8002fb <LED_counter2>
    2a5e:	c7 d4       	rcall	.+2446   	; 0x33ee <led_top_clear>
						//led_top_light(i);  // Schalte die LED aus
					//}
				//}
				//LED_RPM = ((RPM/466.66) - 1);
				
				for (LED_counter2 = LED_RPM + 1; LED_counter2 < 15; LED_counter2++)
    2a60:	80 91 fb 02 	lds	r24, 0x02FB	; 0x8002fb <LED_counter2>
    2a64:	8f 5f       	subi	r24, 0xFF	; 255
    2a66:	80 93 fb 02 	sts	0x02FB, r24	; 0x8002fb <LED_counter2>
    2a6a:	80 91 fb 02 	lds	r24, 0x02FB	; 0x8002fb <LED_counter2>
    2a6e:	8f 30       	cpi	r24, 0x0F	; 15
				{
					led_top_clear(LED_counter2);
				}
				
				for (LED_counter1 = 0; LED_counter1 <= LED_RPM; LED_counter1++)
    2a70:	a0 f3       	brcs	.-24     	; 0x2a5a <main+0x14a>
    2a72:	10 92 fa 02 	sts	0x02FA, r1	; 0x8002fa <LED_counter1>
				{
					led_top_light(LED_counter1);
    2a76:	08 c0       	rjmp	.+16     	; 0x2a88 <main+0x178>
    2a78:	80 91 fa 02 	lds	r24, 0x02FA	; 0x8002fa <LED_counter1>
    2a7c:	02 d4       	rcall	.+2052   	; 0x3282 <led_top_light>
				for (LED_counter2 = LED_RPM + 1; LED_counter2 < 15; LED_counter2++)
				{
					led_top_clear(LED_counter2);
				}
				
				for (LED_counter1 = 0; LED_counter1 <= LED_RPM; LED_counter1++)
    2a7e:	80 91 fa 02 	lds	r24, 0x02FA	; 0x8002fa <LED_counter1>
    2a82:	8f 5f       	subi	r24, 0xFF	; 255
    2a84:	80 93 fa 02 	sts	0x02FA, r24	; 0x8002fa <LED_counter1>
    2a88:	90 91 fa 02 	lds	r25, 0x02FA	; 0x8002fa <LED_counter1>
    2a8c:	80 91 eb 02 	lds	r24, 0x02EB	; 0x8002eb <LED_RPM>
    2a90:	89 17       	cp	r24, r25
				
			} //end if(led_test == 0)
			
			
			
			if(led_test == 1)
    2a92:	90 f7       	brcc	.-28     	; 0x2a78 <main+0x168>
    2a94:	80 91 0b 01 	lds	r24, 0x010B	; 0x80010b <led_test>
    2a98:	81 30       	cpi	r24, 0x01	; 1
			{
				bms_error(1);
    2a9a:	b1 f5       	brne	.+108    	; 0x2b08 <main+0x1f8>
    2a9c:	81 e0       	ldi	r24, 0x01	; 1
    2a9e:	5d d5       	rcall	.+2746   	; 0x355a <bms_error>
				PORTA |= (1<<PA2);
    2aa0:	82 e2       	ldi	r24, 0x22	; 34
    2aa2:	90 e0       	ldi	r25, 0x00	; 0
    2aa4:	22 e2       	ldi	r18, 0x22	; 34
    2aa6:	30 e0       	ldi	r19, 0x00	; 0
    2aa8:	f9 01       	movw	r30, r18
    2aaa:	20 81       	ld	r18, Z
    2aac:	24 60       	ori	r18, 0x04	; 4
				
				pre_defined_led_colors_right(PE_RED);
    2aae:	fc 01       	movw	r30, r24
    2ab0:	20 83       	st	Z, r18
				pre_defined_led_colors_left(PE_RED);
    2ab2:	80 e0       	ldi	r24, 0x00	; 0
    2ab4:	23 d2       	rcall	.+1094   	; 0x2efc <pre_defined_led_colors_right>
    2ab6:	80 e0       	ldi	r24, 0x00	; 0
				
				if(time_150ms > 14)
    2ab8:	60 d2       	rcall	.+1216   	; 0x2f7a <pre_defined_led_colors_left>
    2aba:	8a 81       	ldd	r24, Y+2	; 0x02
    2abc:	8f 30       	cpi	r24, 0x0F	; 15
				{
					led_top_light(LED);
    2abe:	48 f0       	brcs	.+18     	; 0x2ad2 <main+0x1c2>
    2ac0:	80 91 f9 02 	lds	r24, 0x02F9	; 0x8002f9 <LED>
    2ac4:	de d3       	rcall	.+1980   	; 0x3282 <led_top_light>
					LED++;
    2ac6:	80 91 f9 02 	lds	r24, 0x02F9	; 0x8002f9 <LED>
    2aca:	8f 5f       	subi	r24, 0xFF	; 255
    2acc:	80 93 f9 02 	sts	0x02F9, r24	; 0x8002f9 <LED>
					time_150ms = 0;
    2ad0:	1a 82       	std	Y+2, r1	; 0x02
				} //end if(time_150ms > 14)
				time_150ms++;
    2ad2:	8a 81       	ldd	r24, Y+2	; 0x02
    2ad4:	8f 5f       	subi	r24, 0xFF	; 255
    2ad6:	8a 83       	std	Y+2, r24	; 0x02
				
				if(time_3000ms > 290)
    2ad8:	8b 81       	ldd	r24, Y+3	; 0x03
    2ada:	9c 81       	ldd	r25, Y+4	; 0x04
    2adc:	ad 81       	ldd	r26, Y+5	; 0x05
    2ade:	be 81       	ldd	r27, Y+6	; 0x06
    2ae0:	83 32       	cpi	r24, 0x23	; 35
    2ae2:	91 40       	sbci	r25, 0x01	; 1
    2ae4:	a1 05       	cpc	r26, r1
    2ae6:	b1 05       	cpc	r27, r1
				{
					for (LED = 0; LED < 15; LED++)
    2ae8:	78 f0       	brcs	.+30     	; 0x2b08 <main+0x1f8>
    2aea:	10 92 f9 02 	sts	0x02F9, r1	; 0x8002f9 <LED>
					{
						led_top_clear(LED);
    2aee:	08 c0       	rjmp	.+16     	; 0x2b00 <main+0x1f0>
    2af0:	80 91 f9 02 	lds	r24, 0x02F9	; 0x8002f9 <LED>
    2af4:	7c d4       	rcall	.+2296   	; 0x33ee <led_top_clear>
				} //end if(time_150ms > 14)
				time_150ms++;
				
				if(time_3000ms > 290)
				{
					for (LED = 0; LED < 15; LED++)
    2af6:	80 91 f9 02 	lds	r24, 0x02F9	; 0x8002f9 <LED>
    2afa:	8f 5f       	subi	r24, 0xFF	; 255
    2afc:	80 93 f9 02 	sts	0x02F9, r24	; 0x8002f9 <LED>
    2b00:	80 91 f9 02 	lds	r24, 0x02F9	; 0x8002f9 <LED>
    2b04:	8f 30       	cpi	r24, 0x0F	; 15
    2b06:	a0 f3       	brcs	.-24     	; 0x2af0 <main+0x1e0>
					} //end for-Schleife
				} //end if(time_3000 > 250)
				
			 } //end if(led_test == 1)
			
			time_10ms = 0;
    2b08:	19 82       	std	Y+1, r1	; 0x01
			time_3000ms++;
    2b0a:	8b 81       	ldd	r24, Y+3	; 0x03
    2b0c:	9c 81       	ldd	r25, Y+4	; 0x04
    2b0e:	ad 81       	ldd	r26, Y+5	; 0x05
    2b10:	be 81       	ldd	r27, Y+6	; 0x06
    2b12:	01 96       	adiw	r24, 0x01	; 1
    2b14:	a1 1d       	adc	r26, r1
    2b16:	b1 1d       	adc	r27, r1
    2b18:	8b 83       	std	Y+3, r24	; 0x03
    2b1a:	9c 83       	std	Y+4, r25	; 0x04
    2b1c:	ad 83       	std	Y+5, r26	; 0x05
    2b1e:	be 83       	std	Y+6, r27	; 0x06
			
		} //end if(time_10ms > 9)
		
		if(time_3000ms > 299){
    2b20:	8b 81       	ldd	r24, Y+3	; 0x03
    2b22:	9c 81       	ldd	r25, Y+4	; 0x04
    2b24:	ad 81       	ldd	r26, Y+5	; 0x05
    2b26:	be 81       	ldd	r27, Y+6	; 0x06
    2b28:	8c 32       	cpi	r24, 0x2C	; 44
    2b2a:	91 40       	sbci	r25, 0x01	; 1
    2b2c:	a1 05       	cpc	r26, r1
    2b2e:	b1 05       	cpc	r27, r1
    2b30:	08 f4       	brcc	.+2      	; 0x2b34 <main+0x224>
    2b32:	4e cf       	rjmp	.-356    	; 0x29d0 <main+0xc0>
			active_display = &dsp_main;
    2b34:	ce 01       	movw	r24, r28
    2b36:	8d 5f       	subi	r24, 0xFD	; 253
    2b38:	9e 4f       	sbci	r25, 0xFE	; 254
    2b3a:	98 87       	std	Y+8, r25	; 0x08
			led_test = 0;
    2b3c:	8f 83       	std	Y+7, r24	; 0x07
			PORTA &= ~(1<<PA2);
    2b3e:	10 92 0b 01 	sts	0x010B, r1	; 0x80010b <led_test>
    2b42:	82 e2       	ldi	r24, 0x22	; 34
    2b44:	90 e0       	ldi	r25, 0x00	; 0
    2b46:	22 e2       	ldi	r18, 0x22	; 34
    2b48:	30 e0       	ldi	r19, 0x00	; 0
    2b4a:	f9 01       	movw	r30, r18
    2b4c:	20 81       	ld	r18, Z
    2b4e:	2b 7f       	andi	r18, 0xFB	; 251
			
			pre_defined_led_colors_right(PE_OFF);
    2b50:	fc 01       	movw	r30, r24
    2b52:	20 83       	st	Z, r18
    2b54:	87 e0       	ldi	r24, 0x07	; 7
			pre_defined_led_colors_left(PE_OFF);
    2b56:	d2 d1       	rcall	.+932    	; 0x2efc <pre_defined_led_colors_right>
    2b58:	87 e0       	ldi	r24, 0x07	; 7
    2b5a:	0f d2       	rcall	.+1054   	; 0x2f7a <pre_defined_led_colors_left>
			//else
			//{
				//pre_defined_led_colors_right(PE_OFF);
			//}
			
			time_3000ms=0;
    2b5c:	1b 82       	std	Y+3, r1	; 0x03
    2b5e:	1c 82       	std	Y+4, r1	; 0x04
    2b60:	1d 82       	std	Y+5, r1	; 0x05
    2b62:	1e 82       	std	Y+6, r1	; 0x06
		} //end if(time_3000ms > 299)
	} //end while(1)
    2b64:	35 cf       	rjmp	.-406    	; 0x29d0 <main+0xc0>

00002b66 <configure_spi_bus>:
volatile uint8_t spi_state = 0;
volatile struct SPI_MSG current_msg;


// The following function configures the AT90CAN spi hardware
void configure_spi_bus(){
    2b66:	cf 93       	push	r28
    2b68:	df 93       	push	r29
    2b6a:	cd b7       	in	r28, 0x3d	; 61
    2b6c:	de b7       	in	r29, 0x3e	; 62
	
	//Lest bitte das nächste mal das Datenblatt...
	//Kapitel 16.2.2 vom AT90CAN Datenblatt
	DDRB |= (1<<PB0);
    2b6e:	84 e2       	ldi	r24, 0x24	; 36
    2b70:	90 e0       	ldi	r25, 0x00	; 0
    2b72:	24 e2       	ldi	r18, 0x24	; 36
    2b74:	30 e0       	ldi	r19, 0x00	; 0
    2b76:	f9 01       	movw	r30, r18
    2b78:	20 81       	ld	r18, Z
    2b7a:	21 60       	ori	r18, 0x01	; 1
    2b7c:	fc 01       	movw	r30, r24
    2b7e:	20 83       	st	Z, r18
	
	// configure MOSI and SCK as Output
	//PB1 - SCK
	//PB2 - MOSI
	DDRB |= (1<<PB2)|(1<<PB1);
    2b80:	84 e2       	ldi	r24, 0x24	; 36
    2b82:	90 e0       	ldi	r25, 0x00	; 0
    2b84:	24 e2       	ldi	r18, 0x24	; 36
    2b86:	30 e0       	ldi	r19, 0x00	; 0
    2b88:	f9 01       	movw	r30, r18
    2b8a:	20 81       	ld	r18, Z
    2b8c:	26 60       	ori	r18, 0x06	; 6
    2b8e:	fc 01       	movw	r30, r24
    2b90:	20 83       	st	Z, r18
	//Enable SPI, SPI Interrupts and select Master Mode
	SPCR = 0|(1<<SPE)|(1<<SPIE)|(1<<MSTR);
    2b92:	8c e4       	ldi	r24, 0x4C	; 76
    2b94:	90 e0       	ldi	r25, 0x00	; 0
    2b96:	20 ed       	ldi	r18, 0xD0	; 208
    2b98:	fc 01       	movw	r30, r24
    2b9a:	20 83       	st	Z, r18
	//SET CLOCK PRESCALER to / 16
	//CLK ~ 1MHz
	SPCR |= (1<<SPR0);
    2b9c:	8c e4       	ldi	r24, 0x4C	; 76
    2b9e:	90 e0       	ldi	r25, 0x00	; 0
    2ba0:	2c e4       	ldi	r18, 0x4C	; 76
    2ba2:	30 e0       	ldi	r19, 0x00	; 0
    2ba4:	f9 01       	movw	r30, r18
    2ba6:	20 81       	ld	r18, Z
    2ba8:	21 60       	ori	r18, 0x01	; 1
    2baa:	fc 01       	movw	r30, r24
    2bac:	20 83       	st	Z, r18
	
	//mark CS Pins as Output
	DDRA |= (1<<PA3);
    2bae:	81 e2       	ldi	r24, 0x21	; 33
    2bb0:	90 e0       	ldi	r25, 0x00	; 0
    2bb2:	21 e2       	ldi	r18, 0x21	; 33
    2bb4:	30 e0       	ldi	r19, 0x00	; 0
    2bb6:	f9 01       	movw	r30, r18
    2bb8:	20 81       	ld	r18, Z
    2bba:	28 60       	ori	r18, 0x08	; 8
    2bbc:	fc 01       	movw	r30, r24
    2bbe:	20 83       	st	Z, r18
	DDRB |= (1<<PB7);
    2bc0:	84 e2       	ldi	r24, 0x24	; 36
    2bc2:	90 e0       	ldi	r25, 0x00	; 0
    2bc4:	24 e2       	ldi	r18, 0x24	; 36
    2bc6:	30 e0       	ldi	r19, 0x00	; 0
    2bc8:	f9 01       	movw	r30, r18
    2bca:	20 81       	ld	r18, Z
    2bcc:	20 68       	ori	r18, 0x80	; 128
    2bce:	fc 01       	movw	r30, r24
    2bd0:	20 83       	st	Z, r18
	//THE CS ARE ACTIVE LOW -> PULLING THEM HIGH!
	DIS_CS_LEFT
    2bd2:	82 e2       	ldi	r24, 0x22	; 34
    2bd4:	90 e0       	ldi	r25, 0x00	; 0
    2bd6:	22 e2       	ldi	r18, 0x22	; 34
    2bd8:	30 e0       	ldi	r19, 0x00	; 0
    2bda:	f9 01       	movw	r30, r18
    2bdc:	20 81       	ld	r18, Z
    2bde:	28 60       	ori	r18, 0x08	; 8
    2be0:	fc 01       	movw	r30, r24
    2be2:	20 83       	st	Z, r18
	DIS_CS_LEFT
    2be4:	82 e2       	ldi	r24, 0x22	; 34
    2be6:	90 e0       	ldi	r25, 0x00	; 0
    2be8:	22 e2       	ldi	r18, 0x22	; 34
    2bea:	30 e0       	ldi	r19, 0x00	; 0
    2bec:	f9 01       	movw	r30, r18
    2bee:	20 81       	ld	r18, Z
    2bf0:	28 60       	ori	r18, 0x08	; 8
    2bf2:	fc 01       	movw	r30, r24
    2bf4:	20 83       	st	Z, r18
		
}
    2bf6:	00 00       	nop
    2bf8:	df 91       	pop	r29
    2bfa:	cf 91       	pop	r28
    2bfc:	08 95       	ret

00002bfe <spi_free>:

// the following function checks if we completed our SPI Data Transfer
// 1 means busy
// 0 mens we are done!
uint8_t spi_free(){
    2bfe:	cf 93       	push	r28
    2c00:	df 93       	push	r29
    2c02:	cd b7       	in	r28, 0x3d	; 61
    2c04:	de b7       	in	r29, 0x3e	; 62
	
	if(spi_state == 0){
    2c06:	80 91 fd 02 	lds	r24, 0x02FD	; 0x8002fd <spi_state>
    2c0a:	88 23       	and	r24, r24
    2c0c:	11 f4       	brne	.+4      	; 0x2c12 <spi_free+0x14>
		return 1;
    2c0e:	81 e0       	ldi	r24, 0x01	; 1
    2c10:	01 c0       	rjmp	.+2      	; 0x2c14 <spi_free+0x16>
	}
	return 0;
    2c12:	80 e0       	ldi	r24, 0x00	; 0
	
}
    2c14:	df 91       	pop	r29
    2c16:	cf 91       	pop	r28
    2c18:	08 95       	ret

00002c1a <send_data>:

// address is for the 2 bytes of possible Address pins
void send_data(enum portextender extender, uint8_t control, uint8_t reg, uint8_t data){
    2c1a:	cf 93       	push	r28
    2c1c:	df 93       	push	r29
    2c1e:	00 d0       	rcall	.+0      	; 0x2c20 <send_data+0x6>
    2c20:	00 d0       	rcall	.+0      	; 0x2c22 <send_data+0x8>
    2c22:	cd b7       	in	r28, 0x3d	; 61
    2c24:	de b7       	in	r29, 0x3e	; 62
    2c26:	89 83       	std	Y+1, r24	; 0x01
    2c28:	6a 83       	std	Y+2, r22	; 0x02
    2c2a:	4b 83       	std	Y+3, r20	; 0x03
    2c2c:	2c 83       	std	Y+4, r18	; 0x04
	
	current_msg.selected_extender = extender;
    2c2e:	89 81       	ldd	r24, Y+1	; 0x01
    2c30:	80 93 ab 03 	sts	0x03AB, r24	; 0x8003ab <current_msg>
	current_msg.register_addr = reg;
    2c34:	8b 81       	ldd	r24, Y+3	; 0x03
    2c36:	80 93 ad 03 	sts	0x03AD, r24	; 0x8003ad <current_msg+0x2>
	current_msg.control_byte = control;
    2c3a:	8a 81       	ldd	r24, Y+2	; 0x02
    2c3c:	80 93 ac 03 	sts	0x03AC, r24	; 0x8003ac <current_msg+0x1>
	current_msg.data = data;
    2c40:	8c 81       	ldd	r24, Y+4	; 0x04
    2c42:	80 93 ae 03 	sts	0x03AE, r24	; 0x8003ae <current_msg+0x3>
	
	spi_state = 1;
    2c46:	81 e0       	ldi	r24, 0x01	; 1
    2c48:	80 93 fd 02 	sts	0x02FD, r24	; 0x8002fd <spi_state>
	
	//set chip select!
	
	//Write the control byte into the SPI Data Register
	switch(extender){
    2c4c:	89 81       	ldd	r24, Y+1	; 0x01
    2c4e:	88 2f       	mov	r24, r24
    2c50:	90 e0       	ldi	r25, 0x00	; 0
    2c52:	00 97       	sbiw	r24, 0x00	; 0
    2c54:	19 f0       	breq	.+6      	; 0x2c5c <send_data+0x42>
    2c56:	01 97       	sbiw	r24, 0x01	; 1
    2c58:	a1 f0       	breq	.+40     	; 0x2c82 <send_data+0x68>
    2c5a:	26 c0       	rjmp	.+76     	; 0x2ca8 <send_data+0x8e>
		case RGB_LEFT:
			EN_CS_LEFT
    2c5c:	82 e2       	ldi	r24, 0x22	; 34
    2c5e:	90 e0       	ldi	r25, 0x00	; 0
    2c60:	22 e2       	ldi	r18, 0x22	; 34
    2c62:	30 e0       	ldi	r19, 0x00	; 0
    2c64:	f9 01       	movw	r30, r18
    2c66:	20 81       	ld	r18, Z
    2c68:	27 7f       	andi	r18, 0xF7	; 247
    2c6a:	fc 01       	movw	r30, r24
    2c6c:	20 83       	st	Z, r18
			//make sure chip select for the right is off
			DIS_CS_RIGHT
    2c6e:	85 e2       	ldi	r24, 0x25	; 37
    2c70:	90 e0       	ldi	r25, 0x00	; 0
    2c72:	25 e2       	ldi	r18, 0x25	; 37
    2c74:	30 e0       	ldi	r19, 0x00	; 0
    2c76:	f9 01       	movw	r30, r18
    2c78:	20 81       	ld	r18, Z
    2c7a:	20 68       	ori	r18, 0x80	; 128
    2c7c:	fc 01       	movw	r30, r24
    2c7e:	20 83       	st	Z, r18
			break;
    2c80:	13 c0       	rjmp	.+38     	; 0x2ca8 <send_data+0x8e>
		case RGB_RIGHT:
			EN_CS_RIGHT
    2c82:	85 e2       	ldi	r24, 0x25	; 37
    2c84:	90 e0       	ldi	r25, 0x00	; 0
    2c86:	25 e2       	ldi	r18, 0x25	; 37
    2c88:	30 e0       	ldi	r19, 0x00	; 0
    2c8a:	f9 01       	movw	r30, r18
    2c8c:	20 81       	ld	r18, Z
    2c8e:	2f 77       	andi	r18, 0x7F	; 127
    2c90:	fc 01       	movw	r30, r24
    2c92:	20 83       	st	Z, r18
			//make sure chip select for the left is off
			DIS_CS_LEFT
    2c94:	82 e2       	ldi	r24, 0x22	; 34
    2c96:	90 e0       	ldi	r25, 0x00	; 0
    2c98:	22 e2       	ldi	r18, 0x22	; 34
    2c9a:	30 e0       	ldi	r19, 0x00	; 0
    2c9c:	f9 01       	movw	r30, r18
    2c9e:	20 81       	ld	r18, Z
    2ca0:	28 60       	ori	r18, 0x08	; 8
    2ca2:	fc 01       	movw	r30, r24
    2ca4:	20 83       	st	Z, r18
			break;
    2ca6:	00 00       	nop
	}
	SPDR = control;
    2ca8:	8e e4       	ldi	r24, 0x4E	; 78
    2caa:	90 e0       	ldi	r25, 0x00	; 0
    2cac:	2a 81       	ldd	r18, Y+2	; 0x02
    2cae:	fc 01       	movw	r30, r24
    2cb0:	20 83       	st	Z, r18
	
};
    2cb2:	00 00       	nop
    2cb4:	0f 90       	pop	r0
    2cb6:	0f 90       	pop	r0
    2cb8:	0f 90       	pop	r0
    2cba:	0f 90       	pop	r0
    2cbc:	df 91       	pop	r29
    2cbe:	cf 91       	pop	r28
    2cc0:	08 95       	ret

00002cc2 <send_data_blocking>:

void send_data_blocking(enum portextender extender, uint8_t control, uint8_t reg, uint8_t data){
    2cc2:	cf 93       	push	r28
    2cc4:	df 93       	push	r29
    2cc6:	00 d0       	rcall	.+0      	; 0x2cc8 <send_data_blocking+0x6>
    2cc8:	00 d0       	rcall	.+0      	; 0x2cca <send_data_blocking+0x8>
    2cca:	1f 92       	push	r1
    2ccc:	cd b7       	in	r28, 0x3d	; 61
    2cce:	de b7       	in	r29, 0x3e	; 62
    2cd0:	8a 83       	std	Y+2, r24	; 0x02
    2cd2:	6b 83       	std	Y+3, r22	; 0x03
    2cd4:	4c 83       	std	Y+4, r20	; 0x04
    2cd6:	2d 83       	std	Y+5, r18	; 0x05
	//wait until the bus is free
	while (!spi_free()){
    2cd8:	09 c0       	rjmp	.+18     	; 0x2cec <send_data_blocking+0x2a>
		//wait for some time
		WASTE_CPU_TIME
    2cda:	8f ef       	ldi	r24, 0xFF	; 255
    2cdc:	89 83       	std	Y+1, r24	; 0x01
    2cde:	03 c0       	rjmp	.+6      	; 0x2ce6 <send_data_blocking+0x24>
    2ce0:	89 81       	ldd	r24, Y+1	; 0x01
    2ce2:	81 50       	subi	r24, 0x01	; 1
    2ce4:	89 83       	std	Y+1, r24	; 0x01
    2ce6:	89 81       	ldd	r24, Y+1	; 0x01
    2ce8:	88 23       	and	r24, r24
    2cea:	d1 f7       	brne	.-12     	; 0x2ce0 <send_data_blocking+0x1e>
	
};

void send_data_blocking(enum portextender extender, uint8_t control, uint8_t reg, uint8_t data){
	//wait until the bus is free
	while (!spi_free()){
    2cec:	88 df       	rcall	.-240    	; 0x2bfe <spi_free>
    2cee:	88 23       	and	r24, r24
    2cf0:	a1 f3       	breq	.-24     	; 0x2cda <send_data_blocking+0x18>
		//wait for some time
		WASTE_CPU_TIME
	}
	send_data(extender,control,reg,data);
    2cf2:	2d 81       	ldd	r18, Y+5	; 0x05
    2cf4:	4c 81       	ldd	r20, Y+4	; 0x04
    2cf6:	6b 81       	ldd	r22, Y+3	; 0x03
    2cf8:	8a 81       	ldd	r24, Y+2	; 0x02
    2cfa:	8f df       	rcall	.-226    	; 0x2c1a <send_data>
};
    2cfc:	00 00       	nop
    2cfe:	0f 90       	pop	r0
    2d00:	0f 90       	pop	r0
    2d02:	0f 90       	pop	r0
    2d04:	0f 90       	pop	r0
    2d06:	0f 90       	pop	r0
    2d08:	df 91       	pop	r29
    2d0a:	cf 91       	pop	r28
    2d0c:	08 95       	ret

00002d0e <extender_leds>:



void extender_leds(enum portextender extender, uint8_t data){
    2d0e:	cf 93       	push	r28
    2d10:	df 93       	push	r29
    2d12:	00 d0       	rcall	.+0      	; 0x2d14 <extender_leds+0x6>
    2d14:	cd b7       	in	r28, 0x3d	; 61
    2d16:	de b7       	in	r29, 0x3e	; 62
    2d18:	89 83       	std	Y+1, r24	; 0x01
    2d1a:	6a 83       	std	Y+2, r22	; 0x02
	
	send_data(extender,0b01000000,PE_OLAT,~data);
    2d1c:	8a 81       	ldd	r24, Y+2	; 0x02
    2d1e:	80 95       	com	r24
    2d20:	28 2f       	mov	r18, r24
    2d22:	4a e0       	ldi	r20, 0x0A	; 10
    2d24:	60 e4       	ldi	r22, 0x40	; 64
    2d26:	89 81       	ldd	r24, Y+1	; 0x01
    2d28:	78 df       	rcall	.-272    	; 0x2c1a <send_data>
};
    2d2a:	00 00       	nop
    2d2c:	0f 90       	pop	r0
    2d2e:	0f 90       	pop	r0
    2d30:	df 91       	pop	r29
    2d32:	cf 91       	pop	r28
    2d34:	08 95       	ret

00002d36 <extender_leds_blocking>:

void extender_leds_blocking(enum portextender extender, uint8_t data){
    2d36:	cf 93       	push	r28
    2d38:	df 93       	push	r29
    2d3a:	00 d0       	rcall	.+0      	; 0x2d3c <extender_leds_blocking+0x6>
    2d3c:	cd b7       	in	r28, 0x3d	; 61
    2d3e:	de b7       	in	r29, 0x3e	; 62
    2d40:	89 83       	std	Y+1, r24	; 0x01
    2d42:	6a 83       	std	Y+2, r22	; 0x02
	send_data_blocking(extender,0b01000000,PE_OLAT,~data);
    2d44:	8a 81       	ldd	r24, Y+2	; 0x02
    2d46:	80 95       	com	r24
    2d48:	28 2f       	mov	r18, r24
    2d4a:	4a e0       	ldi	r20, 0x0A	; 10
    2d4c:	60 e4       	ldi	r22, 0x40	; 64
    2d4e:	89 81       	ldd	r24, Y+1	; 0x01
    2d50:	b8 df       	rcall	.-144    	; 0x2cc2 <send_data_blocking>
}
    2d52:	00 00       	nop
    2d54:	0f 90       	pop	r0
    2d56:	0f 90       	pop	r0
    2d58:	df 91       	pop	r29
    2d5a:	cf 91       	pop	r28
    2d5c:	08 95       	ret

00002d5e <__vector_20>:

ISR(SPI_STC_vect){
    2d5e:	1f 92       	push	r1
    2d60:	0f 92       	push	r0
    2d62:	00 90 5f 00 	lds	r0, 0x005F	; 0x80005f <__TEXT_REGION_LENGTH__+0x7e005f>
    2d66:	0f 92       	push	r0
    2d68:	11 24       	eor	r1, r1
    2d6a:	00 90 5b 00 	lds	r0, 0x005B	; 0x80005b <__TEXT_REGION_LENGTH__+0x7e005b>
    2d6e:	0f 92       	push	r0
    2d70:	2f 93       	push	r18
    2d72:	3f 93       	push	r19
    2d74:	8f 93       	push	r24
    2d76:	9f 93       	push	r25
    2d78:	ef 93       	push	r30
    2d7a:	ff 93       	push	r31
    2d7c:	cf 93       	push	r28
    2d7e:	df 93       	push	r29
    2d80:	cd b7       	in	r28, 0x3d	; 61
    2d82:	de b7       	in	r29, 0x3e	; 62
	switch (spi_state){
    2d84:	80 91 fd 02 	lds	r24, 0x02FD	; 0x8002fd <spi_state>
    2d88:	88 2f       	mov	r24, r24
    2d8a:	90 e0       	ldi	r25, 0x00	; 0
    2d8c:	82 30       	cpi	r24, 0x02	; 2
    2d8e:	91 05       	cpc	r25, r1
    2d90:	81 f0       	breq	.+32     	; 0x2db2 <__vector_20+0x54>
    2d92:	83 30       	cpi	r24, 0x03	; 3
    2d94:	91 05       	cpc	r25, r1
    2d96:	b9 f0       	breq	.+46     	; 0x2dc6 <__vector_20+0x68>
    2d98:	01 97       	sbiw	r24, 0x01	; 1
    2d9a:	09 f0       	breq	.+2      	; 0x2d9e <__vector_20+0x40>
			//set spi state to 0
			spi_state = 0;
			break;
	}
	
}
    2d9c:	29 c0       	rjmp	.+82     	; 0x2df0 <__vector_20+0x92>
ISR(SPI_STC_vect){
	switch (spi_state){
		case 1:
			//control byte was send!
			//send register
			SPDR = current_msg.register_addr;
    2d9e:	8e e4       	ldi	r24, 0x4E	; 78
    2da0:	90 e0       	ldi	r25, 0x00	; 0
    2da2:	20 91 ad 03 	lds	r18, 0x03AD	; 0x8003ad <current_msg+0x2>
    2da6:	fc 01       	movw	r30, r24
    2da8:	20 83       	st	Z, r18
			//update SPI State			
			spi_state = 2;
    2daa:	82 e0       	ldi	r24, 0x02	; 2
    2dac:	80 93 fd 02 	sts	0x02FD, r24	; 0x8002fd <spi_state>
			break;
    2db0:	1f c0       	rjmp	.+62     	; 0x2df0 <__vector_20+0x92>
		case 2:
			//register was send
			//send data
			SPDR = current_msg.data;
    2db2:	8e e4       	ldi	r24, 0x4E	; 78
    2db4:	90 e0       	ldi	r25, 0x00	; 0
    2db6:	20 91 ae 03 	lds	r18, 0x03AE	; 0x8003ae <current_msg+0x3>
    2dba:	fc 01       	movw	r30, r24
    2dbc:	20 83       	st	Z, r18
			//update SPI State
			spi_state = 3;
    2dbe:	83 e0       	ldi	r24, 0x03	; 3
    2dc0:	80 93 fd 02 	sts	0x02FD, r24	; 0x8002fd <spi_state>
			break;
    2dc4:	15 c0       	rjmp	.+42     	; 0x2df0 <__vector_20+0x92>
		case 3:
			//data was send
			//disable chip selects
			DIS_CS_RIGHT
    2dc6:	85 e2       	ldi	r24, 0x25	; 37
    2dc8:	90 e0       	ldi	r25, 0x00	; 0
    2dca:	25 e2       	ldi	r18, 0x25	; 37
    2dcc:	30 e0       	ldi	r19, 0x00	; 0
    2dce:	f9 01       	movw	r30, r18
    2dd0:	20 81       	ld	r18, Z
    2dd2:	20 68       	ori	r18, 0x80	; 128
    2dd4:	fc 01       	movw	r30, r24
    2dd6:	20 83       	st	Z, r18
			DIS_CS_LEFT
    2dd8:	82 e2       	ldi	r24, 0x22	; 34
    2dda:	90 e0       	ldi	r25, 0x00	; 0
    2ddc:	22 e2       	ldi	r18, 0x22	; 34
    2dde:	30 e0       	ldi	r19, 0x00	; 0
    2de0:	f9 01       	movw	r30, r18
    2de2:	20 81       	ld	r18, Z
    2de4:	28 60       	ori	r18, 0x08	; 8
    2de6:	fc 01       	movw	r30, r24
    2de8:	20 83       	st	Z, r18
			//set spi state to 0
			spi_state = 0;
    2dea:	10 92 fd 02 	sts	0x02FD, r1	; 0x8002fd <spi_state>
			break;
    2dee:	00 00       	nop
	}
	
}
    2df0:	00 00       	nop
    2df2:	df 91       	pop	r29
    2df4:	cf 91       	pop	r28
    2df6:	ff 91       	pop	r31
    2df8:	ef 91       	pop	r30
    2dfa:	9f 91       	pop	r25
    2dfc:	8f 91       	pop	r24
    2dfe:	3f 91       	pop	r19
    2e00:	2f 91       	pop	r18
    2e02:	0f 90       	pop	r0
    2e04:	00 92 5b 00 	sts	0x005B, r0	; 0x80005b <__TEXT_REGION_LENGTH__+0x7e005b>
    2e08:	0f 90       	pop	r0
    2e0a:	00 92 5f 00 	sts	0x005F, r0	; 0x80005f <__TEXT_REGION_LENGTH__+0x7e005f>
    2e0e:	0f 90       	pop	r0
    2e10:	1f 90       	pop	r1
    2e12:	18 95       	reti

00002e14 <configure_portextenders>:

void configure_portextenders(){
    2e14:	cf 93       	push	r28
    2e16:	df 93       	push	r29
    2e18:	cd b7       	in	r28, 0x3d	; 61
    2e1a:	de b7       	in	r29, 0x3e	; 62
	
	//mark all pins as output
	send_data_blocking(RGB_LEFT,0b01000100,PE_IODIR,0x00);
    2e1c:	20 e0       	ldi	r18, 0x00	; 0
    2e1e:	40 e0       	ldi	r20, 0x00	; 0
    2e20:	64 e4       	ldi	r22, 0x44	; 68
    2e22:	80 e0       	ldi	r24, 0x00	; 0
    2e24:	4e df       	rcall	.-356    	; 0x2cc2 <send_data_blocking>
	send_data_blocking(RGB_RIGHT,0b01000010,PE_IODIR,0x00);
    2e26:	20 e0       	ldi	r18, 0x00	; 0
    2e28:	40 e0       	ldi	r20, 0x00	; 0
    2e2a:	62 e4       	ldi	r22, 0x42	; 66
    2e2c:	81 e0       	ldi	r24, 0x01	; 1
    2e2e:	49 df       	rcall	.-366    	; 0x2cc2 <send_data_blocking>

	//disable HA Pins...
	send_data_blocking(RGB_LEFT,0b01000100,PE_IOCON,0);
    2e30:	20 e0       	ldi	r18, 0x00	; 0
    2e32:	45 e0       	ldi	r20, 0x05	; 5
    2e34:	64 e4       	ldi	r22, 0x44	; 68
    2e36:	80 e0       	ldi	r24, 0x00	; 0
    2e38:	44 df       	rcall	.-376    	; 0x2cc2 <send_data_blocking>
	send_data_blocking(RGB_RIGHT,0b01000010,PE_IOCON,0);
    2e3a:	20 e0       	ldi	r18, 0x00	; 0
    2e3c:	45 e0       	ldi	r20, 0x05	; 5
    2e3e:	62 e4       	ldi	r22, 0x42	; 66
    2e40:	81 e0       	ldi	r24, 0x01	; 1
    2e42:	3f df       	rcall	.-386    	; 0x2cc2 <send_data_blocking>
    2e44:	00 00       	nop
}
    2e46:	df 91       	pop	r29
    2e48:	cf 91       	pop	r28
    2e4a:	08 95       	ret

00002e4c <pre_defined_led_colors>:
    2e4c:	cf 93       	push	r28

void pre_defined_led_colors(enum led_color color)
    2e4e:	df 93       	push	r29
    2e50:	1f 92       	push	r1
    2e52:	cd b7       	in	r28, 0x3d	; 61
    2e54:	de b7       	in	r29, 0x3e	; 62
    2e56:	89 83       	std	Y+1, r24	; 0x01
    2e58:	89 81       	ldd	r24, Y+1	; 0x01
{
    2e5a:	88 2f       	mov	r24, r24
    2e5c:	90 e0       	ldi	r25, 0x00	; 0
    2e5e:	09 2e       	mov	r0, r25
    2e60:	00 0c       	add	r0, r0
    2e62:	aa 0b       	sbc	r26, r26
    2e64:	bb 0b       	sbc	r27, r27
    2e66:	40 e0       	ldi	r20, 0x00	; 0
    2e68:	50 e0       	ldi	r21, 0x00	; 0
    2e6a:	27 e0       	ldi	r18, 0x07	; 7
    2e6c:	30 e0       	ldi	r19, 0x00	; 0
    2e6e:	84 1b       	sub	r24, r20
    2e70:	95 0b       	sbc	r25, r21
    2e72:	28 17       	cp	r18, r24
    2e74:	39 07       	cpc	r19, r25
    2e76:	08 f4       	brcc	.+2      	; 0x2e7a <pre_defined_led_colors+0x2e>
    2e78:	3c c0       	rjmp	.+120    	; 0x2ef2 <pre_defined_led_colors+0xa6>
    2e7a:	8e 59       	subi	r24, 0x9E	; 158
    2e7c:	9f 4f       	sbci	r25, 0xFF	; 255
    2e7e:	fc 01       	movw	r30, r24
	switch(color)
	{
    2e80:	26 c6       	rjmp	.+3148   	; 0x3ace <__tablejump2__>
    2e82:	69 e0       	ldi	r22, 0x09	; 9
    2e84:	80 e0       	ldi	r24, 0x00	; 0
		case PE_RED:
    2e86:	57 df       	rcall	.-338    	; 0x2d36 <extender_leds_blocking>
    2e88:	69 e0       	ldi	r22, 0x09	; 9
    2e8a:	81 e0       	ldi	r24, 0x01	; 1
		extender_leds_blocking(RGB_LEFT,0|(1<<F_RED)|(1<<R_RED));
    2e8c:	54 df       	rcall	.-344    	; 0x2d36 <extender_leds_blocking>
		extender_leds_blocking(RGB_RIGHT,0|(1<<F_RED)|(1<<R_RED));
		break;
    2e8e:	31 c0       	rjmp	.+98     	; 0x2ef2 <pre_defined_led_colors+0xa6>
    2e90:	66 e0       	ldi	r22, 0x06	; 6
    2e92:	80 e0       	ldi	r24, 0x00	; 0
		case PE_GREEN:
    2e94:	50 df       	rcall	.-352    	; 0x2d36 <extender_leds_blocking>
    2e96:	66 e0       	ldi	r22, 0x06	; 6
    2e98:	81 e0       	ldi	r24, 0x01	; 1
		extender_leds_blocking(RGB_LEFT,0|(1<<F_GREEN)|(1<<R_GREEN));
		extender_leds_blocking(RGB_RIGHT,0|(1<<F_GREEN)|(1<<R_GREEN));
		break;
    2e9a:	4d df       	rcall	.-358    	; 0x2d36 <extender_leds_blocking>
    2e9c:	2a c0       	rjmp	.+84     	; 0x2ef2 <pre_defined_led_colors+0xa6>
    2e9e:	60 e3       	ldi	r22, 0x30	; 48
		case PE_BLUE:
    2ea0:	80 e0       	ldi	r24, 0x00	; 0
    2ea2:	49 df       	rcall	.-366    	; 0x2d36 <extender_leds_blocking>
    2ea4:	60 e3       	ldi	r22, 0x30	; 48
		extender_leds_blocking(RGB_LEFT,0|(1<<F_BLUE)|(1<<R_BLUE));
    2ea6:	81 e0       	ldi	r24, 0x01	; 1
		extender_leds_blocking(RGB_RIGHT,0|(1<<F_BLUE)|(1<<R_BLUE));
		break;
    2ea8:	46 df       	rcall	.-372    	; 0x2d36 <extender_leds_blocking>
    2eaa:	23 c0       	rjmp	.+70     	; 0x2ef2 <pre_defined_led_colors+0xa6>
    2eac:	69 e3       	ldi	r22, 0x39	; 57
		case PE_PURPLE:
    2eae:	80 e0       	ldi	r24, 0x00	; 0
    2eb0:	42 df       	rcall	.-380    	; 0x2d36 <extender_leds_blocking>
    2eb2:	69 e3       	ldi	r22, 0x39	; 57
		extender_leds_blocking(RGB_LEFT,0|(1<<F_BLUE)|(1<<R_BLUE)|(1<<R_RED)|(1<<F_RED));
		extender_leds_blocking(RGB_RIGHT,0|(1<<F_BLUE)|(1<<R_BLUE)|(1<<R_RED)|(1<<F_RED));
		break;
    2eb4:	81 e0       	ldi	r24, 0x01	; 1
    2eb6:	3f df       	rcall	.-386    	; 0x2d36 <extender_leds_blocking>
    2eb8:	1c c0       	rjmp	.+56     	; 0x2ef2 <pre_defined_led_colors+0xa6>
		case PE_LIGHTBLUE:
    2eba:	66 e3       	ldi	r22, 0x36	; 54
    2ebc:	80 e0       	ldi	r24, 0x00	; 0
    2ebe:	3b df       	rcall	.-394    	; 0x2d36 <extender_leds_blocking>
		extender_leds_blocking(RGB_LEFT,0|(1<<F_GREEN)|(1<<R_GREEN)|(1<<R_BLUE)|(1<<F_BLUE));
    2ec0:	66 e3       	ldi	r22, 0x36	; 54
		extender_leds_blocking(RGB_RIGHT,0|(1<<F_GREEN)|(1<<R_GREEN)|(1<<R_BLUE)|(1<<F_BLUE));
		break;
    2ec2:	81 e0       	ldi	r24, 0x01	; 1
    2ec4:	38 df       	rcall	.-400    	; 0x2d36 <extender_leds_blocking>
    2ec6:	15 c0       	rjmp	.+42     	; 0x2ef2 <pre_defined_led_colors+0xa6>
		case PE_WHITE:
    2ec8:	6f ef       	ldi	r22, 0xFF	; 255
    2eca:	80 e0       	ldi	r24, 0x00	; 0
    2ecc:	34 df       	rcall	.-408    	; 0x2d36 <extender_leds_blocking>
    2ece:	6f ef       	ldi	r22, 0xFF	; 255
		extender_leds_blocking(RGB_LEFT,0xff);
    2ed0:	81 e0       	ldi	r24, 0x01	; 1
		extender_leds_blocking(RGB_RIGHT,0xff);
		break;
    2ed2:	31 df       	rcall	.-414    	; 0x2d36 <extender_leds_blocking>
    2ed4:	0e c0       	rjmp	.+28     	; 0x2ef2 <pre_defined_led_colors+0xa6>
    2ed6:	60 e0       	ldi	r22, 0x00	; 0
    2ed8:	80 e0       	ldi	r24, 0x00	; 0
		case PE_OFF:
    2eda:	2d df       	rcall	.-422    	; 0x2d36 <extender_leds_blocking>
    2edc:	60 e0       	ldi	r22, 0x00	; 0
    2ede:	81 e0       	ldi	r24, 0x01	; 1
    2ee0:	2a df       	rcall	.-428    	; 0x2d36 <extender_leds_blocking>
		extender_leds_blocking(RGB_LEFT,0);
    2ee2:	07 c0       	rjmp	.+14     	; 0x2ef2 <pre_defined_led_colors+0xa6>
		extender_leds_blocking(RGB_RIGHT,0);
		break;
    2ee4:	6f e0       	ldi	r22, 0x0F	; 15
    2ee6:	80 e0       	ldi	r24, 0x00	; 0
    2ee8:	26 df       	rcall	.-436    	; 0x2d36 <extender_leds_blocking>
    2eea:	6f e0       	ldi	r22, 0x0F	; 15
		case PE_AMBER:
    2eec:	81 e0       	ldi	r24, 0x01	; 1
    2eee:	23 df       	rcall	.-442    	; 0x2d36 <extender_leds_blocking>
    2ef0:	00 00       	nop
    2ef2:	00 00       	nop
		extender_leds_blocking(RGB_LEFT,0|(1<<F_GREEN)|(1<<R_GREEN)|(1<<R_RED)|(1<<F_RED));
    2ef4:	0f 90       	pop	r0
		extender_leds_blocking(RGB_RIGHT,0|(1<<F_GREEN)|(1<<R_GREEN)|(1<<R_RED)|(1<<F_RED));
		break;
	}
    2ef6:	df 91       	pop	r29
    2ef8:	cf 91       	pop	r28
    2efa:	08 95       	ret

00002efc <pre_defined_led_colors_right>:
    2efc:	cf 93       	push	r28
    2efe:	df 93       	push	r29

}


    2f00:	1f 92       	push	r1
    2f02:	cd b7       	in	r28, 0x3d	; 61
    2f04:	de b7       	in	r29, 0x3e	; 62
    2f06:	89 83       	std	Y+1, r24	; 0x01
void pre_defined_led_colors_right(enum led_color color)
    2f08:	89 81       	ldd	r24, Y+1	; 0x01
    2f0a:	88 2f       	mov	r24, r24
    2f0c:	90 e0       	ldi	r25, 0x00	; 0
    2f0e:	09 2e       	mov	r0, r25
    2f10:	00 0c       	add	r0, r0
    2f12:	aa 0b       	sbc	r26, r26
    2f14:	bb 0b       	sbc	r27, r27
    2f16:	40 e0       	ldi	r20, 0x00	; 0
    2f18:	50 e0       	ldi	r21, 0x00	; 0
    2f1a:	27 e0       	ldi	r18, 0x07	; 7
    2f1c:	30 e0       	ldi	r19, 0x00	; 0
    2f1e:	84 1b       	sub	r24, r20
    2f20:	95 0b       	sbc	r25, r21
    2f22:	28 17       	cp	r18, r24
    2f24:	39 07       	cpc	r19, r25
    2f26:	20 f1       	brcs	.+72     	; 0x2f70 <pre_defined_led_colors_right+0x74>
    2f28:	86 59       	subi	r24, 0x96	; 150
{
	switch(color)
	{
    2f2a:	9f 4f       	sbci	r25, 0xFF	; 255
    2f2c:	fc 01       	movw	r30, r24
    2f2e:	cf c5       	rjmp	.+2974   	; 0x3ace <__tablejump2__>
		case PE_RED:
		extender_leds_blocking(RGB_RIGHT,0|(1<<F_RED)|(1<<R_RED));
		break;
    2f30:	69 e0       	ldi	r22, 0x09	; 9
    2f32:	81 e0       	ldi	r24, 0x01	; 1
    2f34:	00 df       	rcall	.-512    	; 0x2d36 <extender_leds_blocking>
    2f36:	1c c0       	rjmp	.+56     	; 0x2f70 <pre_defined_led_colors_right+0x74>
		case PE_GREEN:
    2f38:	66 e0       	ldi	r22, 0x06	; 6
		extender_leds_blocking(RGB_RIGHT,0|(1<<F_GREEN)|(1<<R_GREEN));
		break;
    2f3a:	81 e0       	ldi	r24, 0x01	; 1
    2f3c:	fc de       	rcall	.-520    	; 0x2d36 <extender_leds_blocking>
    2f3e:	18 c0       	rjmp	.+48     	; 0x2f70 <pre_defined_led_colors_right+0x74>
    2f40:	60 e3       	ldi	r22, 0x30	; 48
		case PE_BLUE:
    2f42:	81 e0       	ldi	r24, 0x01	; 1
		extender_leds_blocking(RGB_RIGHT,0|(1<<F_BLUE)|(1<<R_BLUE));
		break;
    2f44:	f8 de       	rcall	.-528    	; 0x2d36 <extender_leds_blocking>
    2f46:	14 c0       	rjmp	.+40     	; 0x2f70 <pre_defined_led_colors_right+0x74>
    2f48:	69 e3       	ldi	r22, 0x39	; 57
    2f4a:	81 e0       	ldi	r24, 0x01	; 1
		case PE_PURPLE:
    2f4c:	f4 de       	rcall	.-536    	; 0x2d36 <extender_leds_blocking>
		extender_leds_blocking(RGB_RIGHT,0|(1<<F_BLUE)|(1<<R_BLUE)|(1<<R_RED)|(1<<F_RED));
		break;
    2f4e:	10 c0       	rjmp	.+32     	; 0x2f70 <pre_defined_led_colors_right+0x74>
    2f50:	66 e3       	ldi	r22, 0x36	; 54
    2f52:	81 e0       	ldi	r24, 0x01	; 1
    2f54:	f0 de       	rcall	.-544    	; 0x2d36 <extender_leds_blocking>
		case PE_LIGHTBLUE:
    2f56:	0c c0       	rjmp	.+24     	; 0x2f70 <pre_defined_led_colors_right+0x74>
		extender_leds_blocking(RGB_RIGHT,0|(1<<F_GREEN)|(1<<R_GREEN)|(1<<R_BLUE)|(1<<F_BLUE));
		break;
    2f58:	6f ef       	ldi	r22, 0xFF	; 255
    2f5a:	81 e0       	ldi	r24, 0x01	; 1
    2f5c:	ec de       	rcall	.-552    	; 0x2d36 <extender_leds_blocking>
    2f5e:	08 c0       	rjmp	.+16     	; 0x2f70 <pre_defined_led_colors_right+0x74>
		case PE_WHITE:
    2f60:	60 e0       	ldi	r22, 0x00	; 0
		extender_leds_blocking(RGB_RIGHT,0xff);
		break;
    2f62:	81 e0       	ldi	r24, 0x01	; 1
    2f64:	e8 de       	rcall	.-560    	; 0x2d36 <extender_leds_blocking>
    2f66:	04 c0       	rjmp	.+8      	; 0x2f70 <pre_defined_led_colors_right+0x74>
    2f68:	6f e0       	ldi	r22, 0x0F	; 15
		case PE_OFF:
    2f6a:	81 e0       	ldi	r24, 0x01	; 1
		extender_leds_blocking(RGB_RIGHT,0);
		break;
    2f6c:	e4 de       	rcall	.-568    	; 0x2d36 <extender_leds_blocking>
    2f6e:	00 00       	nop
    2f70:	00 00       	nop
		case PE_AMBER:
		extender_leds_blocking(RGB_RIGHT,0|(1<<F_GREEN)|(1<<R_GREEN)|(1<<R_RED)|(1<<F_RED));
		break;
    2f72:	0f 90       	pop	r0
    2f74:	df 91       	pop	r29
    2f76:	cf 91       	pop	r28
    2f78:	08 95       	ret

00002f7a <pre_defined_led_colors_left>:
	}
}

    2f7a:	cf 93       	push	r28
    2f7c:	df 93       	push	r29
    2f7e:	1f 92       	push	r1
    2f80:	cd b7       	in	r28, 0x3d	; 61
    2f82:	de b7       	in	r29, 0x3e	; 62

    2f84:	89 83       	std	Y+1, r24	; 0x01
    2f86:	89 81       	ldd	r24, Y+1	; 0x01
    2f88:	88 2f       	mov	r24, r24
    2f8a:	90 e0       	ldi	r25, 0x00	; 0
    2f8c:	09 2e       	mov	r0, r25
    2f8e:	00 0c       	add	r0, r0
    2f90:	aa 0b       	sbc	r26, r26
    2f92:	bb 0b       	sbc	r27, r27
    2f94:	40 e0       	ldi	r20, 0x00	; 0
    2f96:	50 e0       	ldi	r21, 0x00	; 0
    2f98:	27 e0       	ldi	r18, 0x07	; 7
    2f9a:	30 e0       	ldi	r19, 0x00	; 0
    2f9c:	84 1b       	sub	r24, r20
    2f9e:	95 0b       	sbc	r25, r21
    2fa0:	28 17       	cp	r18, r24
    2fa2:	39 07       	cpc	r19, r25


void pre_defined_led_colors_left(enum led_color color)
    2fa4:	20 f1       	brcs	.+72     	; 0x2fee <pre_defined_led_colors_left+0x74>
    2fa6:	8e 58       	subi	r24, 0x8E	; 142
    2fa8:	9f 4f       	sbci	r25, 0xFF	; 255
    2faa:	fc 01       	movw	r30, r24
{
    2fac:	90 c5       	rjmp	.+2848   	; 0x3ace <__tablejump2__>
	switch(color)
	{
    2fae:	69 e0       	ldi	r22, 0x09	; 9
    2fb0:	80 e0       	ldi	r24, 0x00	; 0
    2fb2:	c1 de       	rcall	.-638    	; 0x2d36 <extender_leds_blocking>
    2fb4:	1c c0       	rjmp	.+56     	; 0x2fee <pre_defined_led_colors_left+0x74>
		case PE_RED:
    2fb6:	66 e0       	ldi	r22, 0x06	; 6
		extender_leds_blocking(RGB_LEFT,0|(1<<F_RED)|(1<<R_RED));
		break;
    2fb8:	80 e0       	ldi	r24, 0x00	; 0
    2fba:	bd de       	rcall	.-646    	; 0x2d36 <extender_leds_blocking>
    2fbc:	18 c0       	rjmp	.+48     	; 0x2fee <pre_defined_led_colors_left+0x74>
    2fbe:	60 e3       	ldi	r22, 0x30	; 48
		case PE_GREEN:
    2fc0:	80 e0       	ldi	r24, 0x00	; 0
		extender_leds_blocking(RGB_LEFT,0|(1<<F_GREEN)|(1<<R_GREEN));
		break;
    2fc2:	b9 de       	rcall	.-654    	; 0x2d36 <extender_leds_blocking>
    2fc4:	14 c0       	rjmp	.+40     	; 0x2fee <pre_defined_led_colors_left+0x74>
    2fc6:	69 e3       	ldi	r22, 0x39	; 57
    2fc8:	80 e0       	ldi	r24, 0x00	; 0
		case PE_BLUE:
    2fca:	b5 de       	rcall	.-662    	; 0x2d36 <extender_leds_blocking>
		extender_leds_blocking(RGB_LEFT,0|(1<<F_BLUE)|(1<<R_BLUE));
		break;
    2fcc:	10 c0       	rjmp	.+32     	; 0x2fee <pre_defined_led_colors_left+0x74>
    2fce:	66 e3       	ldi	r22, 0x36	; 54
    2fd0:	80 e0       	ldi	r24, 0x00	; 0
    2fd2:	b1 de       	rcall	.-670    	; 0x2d36 <extender_leds_blocking>
		case PE_PURPLE:
    2fd4:	0c c0       	rjmp	.+24     	; 0x2fee <pre_defined_led_colors_left+0x74>
		extender_leds_blocking(RGB_LEFT,0|(1<<F_BLUE)|(1<<R_BLUE)|(1<<R_RED)|(1<<F_RED));
		break;
    2fd6:	6f ef       	ldi	r22, 0xFF	; 255
    2fd8:	80 e0       	ldi	r24, 0x00	; 0
    2fda:	ad de       	rcall	.-678    	; 0x2d36 <extender_leds_blocking>
    2fdc:	08 c0       	rjmp	.+16     	; 0x2fee <pre_defined_led_colors_left+0x74>
		case PE_LIGHTBLUE:
    2fde:	60 e0       	ldi	r22, 0x00	; 0
		extender_leds_blocking(RGB_LEFT,0|(1<<F_GREEN)|(1<<R_GREEN)|(1<<R_BLUE)|(1<<F_BLUE));
		break;
    2fe0:	80 e0       	ldi	r24, 0x00	; 0
    2fe2:	a9 de       	rcall	.-686    	; 0x2d36 <extender_leds_blocking>
    2fe4:	04 c0       	rjmp	.+8      	; 0x2fee <pre_defined_led_colors_left+0x74>
    2fe6:	6f e0       	ldi	r22, 0x0F	; 15
		case PE_WHITE:
    2fe8:	80 e0       	ldi	r24, 0x00	; 0
		extender_leds_blocking(RGB_LEFT,0xff);
		break;
    2fea:	a5 de       	rcall	.-694    	; 0x2d36 <extender_leds_blocking>
    2fec:	00 00       	nop
    2fee:	00 00       	nop
    2ff0:	0f 90       	pop	r0
		case PE_OFF:
    2ff2:	df 91       	pop	r29
		extender_leds_blocking(RGB_LEFT,0);
		break;
    2ff4:	cf 91       	pop	r28
    2ff6:	08 95       	ret

00002ff8 <clear_top_left_bar>:
    2ff8:	cf 93       	push	r28
    2ffa:	df 93       	push	r29
    2ffc:	cd b7       	in	r28, 0x3d	; 61
		case PE_AMBER:
		extender_leds_blocking(RGB_LEFT,0|(1<<F_GREEN)|(1<<R_GREEN)|(1<<R_RED)|(1<<F_RED));
		break;
	}
}

    2ffe:	de b7       	in	r29, 0x3e	; 62
    3000:	82 e2       	ldi	r24, 0x22	; 34
    3002:	90 e0       	ldi	r25, 0x00	; 0
    3004:	22 e2       	ldi	r18, 0x22	; 34

    3006:	30 e0       	ldi	r19, 0x00	; 0
    3008:	f9 01       	movw	r30, r18
    300a:	20 81       	ld	r18, Z
    300c:	2f 70       	andi	r18, 0x0F	; 15
    300e:	fc 01       	movw	r30, r24
    3010:	20 83       	st	Z, r18
    3012:	84 e3       	ldi	r24, 0x34	; 52
    3014:	90 e0       	ldi	r25, 0x00	; 0
    3016:	24 e3       	ldi	r18, 0x34	; 52

    3018:	30 e0       	ldi	r19, 0x00	; 0
    301a:	f9 01       	movw	r30, r18
    301c:	20 81       	ld	r18, Z
    301e:	2b 7f       	andi	r18, 0xFB	; 251
    3020:	fc 01       	movw	r30, r24
    3022:	20 83       	st	Z, r18
    3024:	00 00       	nop
    3026:	df 91       	pop	r29

    3028:	cf 91       	pop	r28
    302a:	08 95       	ret

0000302c <clear_top_right_bar>:
    302c:	cf 93       	push	r28
    302e:	df 93       	push	r29

//This Function turns off the left Top Bar
void clear_top_left_bar(void)
{
    3030:	cd b7       	in	r28, 0x3d	; 61
    3032:	de b7       	in	r29, 0x3e	; 62
    3034:	88 e2       	ldi	r24, 0x28	; 40
    3036:	90 e0       	ldi	r25, 0x00	; 0
	PORTA &= ~(1<<PA4) & ~(1<<PA5) & ~(1<<PA6) & ~(1<<PA7);
    3038:	fc 01       	movw	r30, r24
    303a:	10 82       	st	Z, r1
    303c:	84 e3       	ldi	r24, 0x34	; 52
    303e:	90 e0       	ldi	r25, 0x00	; 0
	PORTG &= ~(1<<PG2);
    3040:	24 e3       	ldi	r18, 0x34	; 52
    3042:	30 e0       	ldi	r19, 0x00	; 0
    3044:	f9 01       	movw	r30, r18
    3046:	20 81       	ld	r18, Z
    3048:	2c 7f       	andi	r18, 0xFC	; 252
    304a:	fc 01       	movw	r30, r24
    304c:	20 83       	st	Z, r18
    304e:	00 00       	nop
    3050:	df 91       	pop	r29
}
    3052:	cf 91       	pop	r28
    3054:	08 95       	ret

00003056 <led_top_left_bar>:
    3056:	cf 93       	push	r28
    3058:	df 93       	push	r29

//This Function turns off the right Top Bar
void clear_top_right_bar(void)
{
    305a:	cd b7       	in	r28, 0x3d	; 61
    305c:	de b7       	in	r29, 0x3e	; 62
    305e:	29 97       	sbiw	r28, 0x09	; 9
    3060:	0f b6       	in	r0, 0x3f	; 63
    3062:	f8 94       	cli
    3064:	de bf       	out	0x3e, r29	; 62
    3066:	0f be       	out	0x3f, r0	; 63
    3068:	cd bf       	out	0x3d, r28	; 61
    306a:	9d 83       	std	Y+5, r25	; 0x05
    306c:	8c 83       	std	Y+4, r24	; 0x04
    306e:	7f 83       	std	Y+7, r23	; 0x07
    3070:	6e 83       	std	Y+6, r22	; 0x06
    3072:	59 87       	std	Y+9, r21	; 0x09
	PORTC = 0;
    3074:	48 87       	std	Y+8, r20	; 0x08
    3076:	c0 df       	rcall	.-128    	; 0x2ff8 <clear_top_left_bar>
	PORTG &= ~(1<<PG0) & ~(1<<PG1);
    3078:	2c 81       	ldd	r18, Y+4	; 0x04
    307a:	3d 81       	ldd	r19, Y+5	; 0x05
    307c:	8e 81       	ldd	r24, Y+6	; 0x06
    307e:	9f 81       	ldd	r25, Y+7	; 0x07
    3080:	a9 01       	movw	r20, r18
    3082:	48 1b       	sub	r20, r24
    3084:	59 0b       	sbc	r21, r25
    3086:	ca 01       	movw	r24, r20
    3088:	96 95       	lsr	r25
    308a:	87 95       	ror	r24
    308c:	96 95       	lsr	r25
    308e:	87 95       	ror	r24
    3090:	9a 83       	std	Y+2, r25	; 0x02
    3092:	89 83       	std	Y+1, r24	; 0x01
}
    3094:	28 85       	ldd	r18, Y+8	; 0x08
    3096:	39 85       	ldd	r19, Y+9	; 0x09
    3098:	8e 81       	ldd	r24, Y+6	; 0x06
    309a:	9f 81       	ldd	r25, Y+7	; 0x07
    309c:	28 1b       	sub	r18, r24
    309e:	39 0b       	sbc	r19, r25
    30a0:	89 81       	ldd	r24, Y+1	; 0x01
    30a2:	9a 81       	ldd	r25, Y+2	; 0x02
    30a4:	82 0f       	add	r24, r18
    30a6:	93 1f       	adc	r25, r19
    30a8:	29 81       	ldd	r18, Y+1	; 0x01
    30aa:	3a 81       	ldd	r19, Y+2	; 0x02
    30ac:	b9 01       	movw	r22, r18
    30ae:	e8 d4       	rcall	.+2512   	; 0x3a80 <__udivmodhi4>
    30b0:	cb 01       	movw	r24, r22
    30b2:	8b 83       	std	Y+3, r24	; 0x03

    30b4:	8b 81       	ldd	r24, Y+3	; 0x03
    30b6:	18 16       	cp	r1, r24
    30b8:	1c f4       	brge	.+6      	; 0x30c0 <led_top_left_bar+0x6a>
    30ba:	8b 81       	ldd	r24, Y+3	; 0x03
    30bc:	54 d0       	rcall	.+168    	; 0x3166 <led_left_top_bar_select>
//This Function calculates the amount of LEDs of the left Top Bar which needs to be turned on
void led_top_left_bar(uint16_t max_value_l, uint16_t min_value_l, uint16_t current_value_l)
    30be:	02 c0       	rjmp	.+4      	; 0x30c4 <led_top_left_bar+0x6e>
{
	PORTC = 0;
	PORTG &= ~(1<<PG0) & ~(1<<PG1);
}

//This Function calculates the amount of LEDs of the left Top Bar which needs to be turned on
    30c0:	80 e0       	ldi	r24, 0x00	; 0
    30c2:	51 d0       	rcall	.+162    	; 0x3166 <led_left_top_bar_select>
    30c4:	00 00       	nop
void led_top_left_bar(uint16_t max_value_l, uint16_t min_value_l, uint16_t current_value_l)
    30c6:	29 96       	adiw	r28, 0x09	; 9
    30c8:	0f b6       	in	r0, 0x3f	; 63
    30ca:	f8 94       	cli
    30cc:	de bf       	out	0x3e, r29	; 62
    30ce:	0f be       	out	0x3f, r0	; 63
    30d0:	cd bf       	out	0x3d, r28	; 61
    30d2:	df 91       	pop	r29
    30d4:	cf 91       	pop	r28
    30d6:	08 95       	ret

000030d8 <led_top_right_bar>:
    30d8:	cf 93       	push	r28
{
	clear_top_left_bar();
	uint16_t Top_Left_Bar_Divider = (max_value_l - min_value_l) / (LED_COUNT_TOP_LEFT - 1);
	int8_t amount_l = (current_value_l - min_value_l + Top_Left_Bar_Divider) / Top_Left_Bar_Divider;
    30da:	df 93       	push	r29
    30dc:	cd b7       	in	r28, 0x3d	; 61
    30de:	de b7       	in	r29, 0x3e	; 62
    30e0:	29 97       	sbiw	r28, 0x09	; 9
    30e2:	0f b6       	in	r0, 0x3f	; 63
    30e4:	f8 94       	cli
    30e6:	de bf       	out	0x3e, r29	; 62
    30e8:	0f be       	out	0x3f, r0	; 63
    30ea:	cd bf       	out	0x3d, r28	; 61
    30ec:	9d 83       	std	Y+5, r25	; 0x05
    30ee:	8c 83       	std	Y+4, r24	; 0x04
    30f0:	7f 83       	std	Y+7, r23	; 0x07
    30f2:	6e 83       	std	Y+6, r22	; 0x06
	if (amount_l > 0) {led_left_top_bar_select(amount_l);}
    30f4:	59 87       	std	Y+9, r21	; 0x09
    30f6:	48 87       	std	Y+8, r20	; 0x08
	else {led_left_top_bar_select(0);}
    30f8:	99 df       	rcall	.-206    	; 0x302c <clear_top_right_bar>
    30fa:	2c 81       	ldd	r18, Y+4	; 0x04
    30fc:	3d 81       	ldd	r19, Y+5	; 0x05
    30fe:	8e 81       	ldd	r24, Y+6	; 0x06
    3100:	9f 81       	ldd	r25, Y+7	; 0x07
    3102:	a9 01       	movw	r20, r18
    3104:	48 1b       	sub	r20, r24
    3106:	59 0b       	sbc	r21, r25
    3108:	ca 01       	movw	r24, r20
    310a:	9c 01       	movw	r18, r24
    310c:	af e8       	ldi	r26, 0x8F	; 143
    310e:	b3 ee       	ldi	r27, 0xE3	; 227
    3110:	e7 d4       	rcall	.+2510   	; 0x3ae0 <__umulhisi3>
    3112:	96 95       	lsr	r25
    3114:	87 95       	ror	r24
    3116:	96 95       	lsr	r25
    3118:	87 95       	ror	r24
    311a:	96 95       	lsr	r25
    311c:	87 95       	ror	r24
    311e:	9a 83       	std	Y+2, r25	; 0x02
    3120:	89 83       	std	Y+1, r24	; 0x01
}
    3122:	28 85       	ldd	r18, Y+8	; 0x08
    3124:	39 85       	ldd	r19, Y+9	; 0x09
    3126:	8e 81       	ldd	r24, Y+6	; 0x06
    3128:	9f 81       	ldd	r25, Y+7	; 0x07
    312a:	28 1b       	sub	r18, r24
    312c:	39 0b       	sbc	r19, r25
    312e:	89 81       	ldd	r24, Y+1	; 0x01
    3130:	9a 81       	ldd	r25, Y+2	; 0x02
    3132:	82 0f       	add	r24, r18
    3134:	93 1f       	adc	r25, r19
    3136:	29 81       	ldd	r18, Y+1	; 0x01
    3138:	3a 81       	ldd	r19, Y+2	; 0x02
    313a:	b9 01       	movw	r22, r18
    313c:	a1 d4       	rcall	.+2370   	; 0x3a80 <__udivmodhi4>
    313e:	cb 01       	movw	r24, r22
    3140:	8b 83       	std	Y+3, r24	; 0x03
    3142:	8b 81       	ldd	r24, Y+3	; 0x03

    3144:	18 16       	cp	r1, r24
    3146:	1c f4       	brge	.+6      	; 0x314e <led_top_right_bar+0x76>
    3148:	8b 81       	ldd	r24, Y+3	; 0x03
    314a:	49 d0       	rcall	.+146    	; 0x31de <led_right_top_bar_select>
    314c:	02 c0       	rjmp	.+4      	; 0x3152 <led_top_right_bar+0x7a>
    314e:	80 e0       	ldi	r24, 0x00	; 0
//This Function calculates the amount of LEDs of the right Top Bar which needs to be turned on
void led_top_right_bar(uint16_t max_value_r, uint16_t min_value_r, uint16_t current_value_r)
    3150:	46 d0       	rcall	.+140    	; 0x31de <led_right_top_bar_select>
	int8_t amount_l = (current_value_l - min_value_l + Top_Left_Bar_Divider) / Top_Left_Bar_Divider;
	if (amount_l > 0) {led_left_top_bar_select(amount_l);}
	else {led_left_top_bar_select(0);}
}

//This Function calculates the amount of LEDs of the right Top Bar which needs to be turned on
    3152:	00 00       	nop
    3154:	29 96       	adiw	r28, 0x09	; 9
    3156:	0f b6       	in	r0, 0x3f	; 63
void led_top_right_bar(uint16_t max_value_r, uint16_t min_value_r, uint16_t current_value_r)
    3158:	f8 94       	cli
    315a:	de bf       	out	0x3e, r29	; 62
    315c:	0f be       	out	0x3f, r0	; 63
    315e:	cd bf       	out	0x3d, r28	; 61
    3160:	df 91       	pop	r29
    3162:	cf 91       	pop	r28
    3164:	08 95       	ret

00003166 <led_left_top_bar_select>:
    3166:	cf 93       	push	r28
    3168:	df 93       	push	r29
    316a:	1f 92       	push	r1
{
	clear_top_right_bar();
	uint16_t Top_Right_Bar_Divider = (max_value_r - min_value_r) / (LED_COUNT_TOP_RIGHT - 1);
	int8_t amount_r = (current_value_r - min_value_r + Top_Right_Bar_Divider) / Top_Right_Bar_Divider;
    316c:	cd b7       	in	r28, 0x3d	; 61
    316e:	de b7       	in	r29, 0x3e	; 62
    3170:	89 83       	std	Y+1, r24	; 0x01
    3172:	82 e2       	ldi	r24, 0x22	; 34
    3174:	90 e0       	ldi	r25, 0x00	; 0
    3176:	22 e2       	ldi	r18, 0x22	; 34
	if (amount_r > 0) {led_right_top_bar_select(amount_r);}
    3178:	30 e0       	ldi	r19, 0x00	; 0
    317a:	f9 01       	movw	r30, r18
    317c:	20 81       	ld	r18, Z
    317e:	62 2f       	mov	r22, r18
    3180:	29 81       	ldd	r18, Y+1	; 0x01
    3182:	42 2f       	mov	r20, r18
    3184:	50 e0       	ldi	r21, 0x00	; 0
    3186:	2f ef       	ldi	r18, 0xFF	; 255
    3188:	30 e0       	ldi	r19, 0x00	; 0
    318a:	02 c0       	rjmp	.+4      	; 0x3190 <led_left_top_bar_select+0x2a>
    318c:	22 0f       	add	r18, r18
    318e:	33 1f       	adc	r19, r19
    3190:	4a 95       	dec	r20
    3192:	e2 f7       	brpl	.-8      	; 0x318c <led_left_top_bar_select+0x26>
    3194:	20 95       	com	r18
    3196:	30 95       	com	r19
    3198:	22 95       	swap	r18
    319a:	32 95       	swap	r19
    319c:	30 7f       	andi	r19, 0xF0	; 240
    319e:	32 27       	eor	r19, r18
    31a0:	20 7f       	andi	r18, 0xF0	; 240
    31a2:	32 27       	eor	r19, r18
    31a4:	26 2b       	or	r18, r22
    31a6:	fc 01       	movw	r30, r24
    31a8:	20 83       	st	Z, r18
    31aa:	84 e3       	ldi	r24, 0x34	; 52
    31ac:	90 e0       	ldi	r25, 0x00	; 0
    31ae:	24 e3       	ldi	r18, 0x34	; 52
	else {led_right_top_bar_select(0);}
    31b0:	30 e0       	ldi	r19, 0x00	; 0
    31b2:	f9 01       	movw	r30, r18
    31b4:	20 81       	ld	r18, Z
    31b6:	62 2f       	mov	r22, r18
    31b8:	29 81       	ldd	r18, Y+1	; 0x01
    31ba:	42 2f       	mov	r20, r18
    31bc:	50 e0       	ldi	r21, 0x00	; 0
    31be:	20 e8       	ldi	r18, 0x80	; 128
    31c0:	30 e0       	ldi	r19, 0x00	; 0
    31c2:	02 c0       	rjmp	.+4      	; 0x31c8 <led_left_top_bar_select+0x62>
    31c4:	35 95       	asr	r19
    31c6:	27 95       	ror	r18
    31c8:	4a 95       	dec	r20
    31ca:	e2 f7       	brpl	.-8      	; 0x31c4 <led_left_top_bar_select+0x5e>
    31cc:	24 70       	andi	r18, 0x04	; 4
    31ce:	26 2b       	or	r18, r22
    31d0:	fc 01       	movw	r30, r24
    31d2:	20 83       	st	Z, r18
    31d4:	00 00       	nop
    31d6:	0f 90       	pop	r0
    31d8:	df 91       	pop	r29
}
    31da:	cf 91       	pop	r28
    31dc:	08 95       	ret

000031de <led_right_top_bar_select>:
    31de:	cf 93       	push	r28
    31e0:	df 93       	push	r29
    31e2:	1f 92       	push	r1

//This Function turns on the desired amount of LEDs of the left Top Bar
void led_left_top_bar_select(uint8_t select_l)
{
    31e4:	cd b7       	in	r28, 0x3d	; 61
    31e6:	de b7       	in	r29, 0x3e	; 62
    31e8:	89 83       	std	Y+1, r24	; 0x01
    31ea:	88 e2       	ldi	r24, 0x28	; 40
    31ec:	90 e0       	ldi	r25, 0x00	; 0
    31ee:	28 e2       	ldi	r18, 0x28	; 40
	PORTA |= ~(0xFF << select_l) << PA4;
    31f0:	30 e0       	ldi	r19, 0x00	; 0
    31f2:	f9 01       	movw	r30, r18
    31f4:	20 81       	ld	r18, Z
    31f6:	62 2f       	mov	r22, r18
    31f8:	29 81       	ldd	r18, Y+1	; 0x01
    31fa:	42 2f       	mov	r20, r18
    31fc:	50 e0       	ldi	r21, 0x00	; 0
    31fe:	2f ef       	ldi	r18, 0xFF	; 255
    3200:	30 e0       	ldi	r19, 0x00	; 0
    3202:	02 c0       	rjmp	.+4      	; 0x3208 <led_right_top_bar_select+0x2a>
    3204:	35 95       	asr	r19
    3206:	27 95       	ror	r18
    3208:	4a 95       	dec	r20
    320a:	e2 f7       	brpl	.-8      	; 0x3204 <led_right_top_bar_select+0x26>
    320c:	20 95       	com	r18
    320e:	26 2b       	or	r18, r22
    3210:	fc 01       	movw	r30, r24
    3212:	20 83       	st	Z, r18
    3214:	84 e3       	ldi	r24, 0x34	; 52
    3216:	90 e0       	ldi	r25, 0x00	; 0
    3218:	24 e3       	ldi	r18, 0x34	; 52
	PORTG |= (1<<PG2) & ((0x80) >> select_l);
    321a:	30 e0       	ldi	r19, 0x00	; 0
    321c:	f9 01       	movw	r30, r18
    321e:	20 81       	ld	r18, Z
    3220:	62 2f       	mov	r22, r18
    3222:	39 81       	ldd	r19, Y+1	; 0x01
    3224:	29 e3       	ldi	r18, 0x39	; 57
    3226:	32 9f       	mul	r19, r18
    3228:	21 2d       	mov	r18, r1
    322a:	11 24       	eor	r1, r1
    322c:	26 95       	lsr	r18
    322e:	42 2f       	mov	r20, r18
    3230:	50 e0       	ldi	r21, 0x00	; 0
    3232:	2f ef       	ldi	r18, 0xFF	; 255
    3234:	30 e0       	ldi	r19, 0x00	; 0
    3236:	02 c0       	rjmp	.+4      	; 0x323c <led_right_top_bar_select+0x5e>
    3238:	22 0f       	add	r18, r18
    323a:	33 1f       	adc	r19, r19
    323c:	4a 95       	dec	r20
    323e:	e2 f7       	brpl	.-8      	; 0x3238 <led_right_top_bar_select+0x5a>
    3240:	20 95       	com	r18
    3242:	30 95       	com	r19
    3244:	59 81       	ldd	r21, Y+1	; 0x01
    3246:	49 e3       	ldi	r20, 0x39	; 57
    3248:	54 9f       	mul	r21, r20
    324a:	41 2d       	mov	r20, r1
    324c:	11 24       	eor	r1, r1
    324e:	46 95       	lsr	r20
    3250:	44 2f       	mov	r20, r20
    3252:	50 e0       	ldi	r21, 0x00	; 0
    3254:	02 c0       	rjmp	.+4      	; 0x325a <led_right_top_bar_select+0x7c>
    3256:	22 0f       	add	r18, r18
    3258:	33 1f       	adc	r19, r19
    325a:	4a 95       	dec	r20
    325c:	e2 f7       	brpl	.-8      	; 0x3256 <led_right_top_bar_select+0x78>
    325e:	42 2f       	mov	r20, r18
    3260:	39 81       	ldd	r19, Y+1	; 0x01
    3262:	2d ec       	ldi	r18, 0xCD	; 205
    3264:	32 9f       	mul	r19, r18
    3266:	21 2d       	mov	r18, r1
    3268:	11 24       	eor	r1, r1
    326a:	26 95       	lsr	r18
    326c:	26 95       	lsr	r18
    326e:	26 95       	lsr	r18
    3270:	24 0f       	add	r18, r20
    3272:	26 2b       	or	r18, r22
    3274:	fc 01       	movw	r30, r24
    3276:	20 83       	st	Z, r18
    3278:	00 00       	nop
    327a:	0f 90       	pop	r0
}
    327c:	df 91       	pop	r29
    327e:	cf 91       	pop	r28
    3280:	08 95       	ret

00003282 <led_top_light>:
    3282:	cf 93       	push	r28
    3284:	df 93       	push	r29

//This Function turns on the desired amount of LEDs of the right Top Bar
void led_right_top_bar_select(uint8_t select_r)
    3286:	1f 92       	push	r1
    3288:	cd b7       	in	r28, 0x3d	; 61
    328a:	de b7       	in	r29, 0x3e	; 62
    328c:	89 83       	std	Y+1, r24	; 0x01
    328e:	89 81       	ldd	r24, Y+1	; 0x01
    3290:	88 2f       	mov	r24, r24
{
	PORTC |= ~(0xFF >> select_r);
    3292:	90 e0       	ldi	r25, 0x00	; 0
    3294:	09 2e       	mov	r0, r25
    3296:	00 0c       	add	r0, r0
    3298:	aa 0b       	sbc	r26, r26
    329a:	bb 0b       	sbc	r27, r27
    329c:	40 e0       	ldi	r20, 0x00	; 0
    329e:	50 e0       	ldi	r21, 0x00	; 0
    32a0:	2e e0       	ldi	r18, 0x0E	; 14
    32a2:	30 e0       	ldi	r19, 0x00	; 0
    32a4:	84 1b       	sub	r24, r20
    32a6:	95 0b       	sbc	r25, r21
    32a8:	28 17       	cp	r18, r24
    32aa:	39 07       	cpc	r19, r25
    32ac:	08 f4       	brcc	.+2      	; 0x32b0 <led_top_light+0x2e>
    32ae:	9a c0       	rjmp	.+308    	; 0x33e4 <led_top_light+0x162>
    32b0:	86 58       	subi	r24, 0x86	; 134
    32b2:	9f 4f       	sbci	r25, 0xFF	; 255
    32b4:	fc 01       	movw	r30, r24
    32b6:	0b c4       	rjmp	.+2070   	; 0x3ace <__tablejump2__>
    32b8:	82 e2       	ldi	r24, 0x22	; 34
    32ba:	90 e0       	ldi	r25, 0x00	; 0
    32bc:	22 e2       	ldi	r18, 0x22	; 34
	PORTG |= (~(0xFF << (select_r/9)) << (select_r/9)) + (select_r/10);
}
    32be:	30 e0       	ldi	r19, 0x00	; 0
    32c0:	f9 01       	movw	r30, r18
    32c2:	20 81       	ld	r18, Z
    32c4:	20 61       	ori	r18, 0x10	; 16
    32c6:	fc 01       	movw	r30, r24
    32c8:	20 83       	st	Z, r18
    32ca:	8c c0       	rjmp	.+280    	; 0x33e4 <led_top_light+0x162>
    32cc:	82 e2       	ldi	r24, 0x22	; 34
    32ce:	90 e0       	ldi	r25, 0x00	; 0
    32d0:	22 e2       	ldi	r18, 0x22	; 34

    32d2:	30 e0       	ldi	r19, 0x00	; 0
    32d4:	f9 01       	movw	r30, r18
    32d6:	20 81       	ld	r18, Z
    32d8:	20 62       	ori	r18, 0x20	; 32
    32da:	fc 01       	movw	r30, r24
    32dc:	20 83       	st	Z, r18
    32de:	82 c0       	rjmp	.+260    	; 0x33e4 <led_top_light+0x162>
    32e0:	82 e2       	ldi	r24, 0x22	; 34
    32e2:	90 e0       	ldi	r25, 0x00	; 0
    32e4:	22 e2       	ldi	r18, 0x22	; 34
void led_top_light( uint8_t LED)
    32e6:	30 e0       	ldi	r19, 0x00	; 0
    32e8:	f9 01       	movw	r30, r18
    32ea:	20 81       	ld	r18, Z
    32ec:	20 64       	ori	r18, 0x40	; 64
    32ee:	fc 01       	movw	r30, r24
    32f0:	20 83       	st	Z, r18
    32f2:	78 c0       	rjmp	.+240    	; 0x33e4 <led_top_light+0x162>
    32f4:	82 e2       	ldi	r24, 0x22	; 34
    32f6:	90 e0       	ldi	r25, 0x00	; 0
    32f8:	22 e2       	ldi	r18, 0x22	; 34
{
    32fa:	30 e0       	ldi	r19, 0x00	; 0
    32fc:	f9 01       	movw	r30, r18
    32fe:	20 81       	ld	r18, Z
    3300:	20 68       	ori	r18, 0x80	; 128
    3302:	fc 01       	movw	r30, r24
    3304:	20 83       	st	Z, r18
    3306:	6e c0       	rjmp	.+220    	; 0x33e4 <led_top_light+0x162>
    3308:	84 e3       	ldi	r24, 0x34	; 52
    330a:	90 e0       	ldi	r25, 0x00	; 0
    330c:	24 e3       	ldi	r18, 0x34	; 52
	
    330e:	30 e0       	ldi	r19, 0x00	; 0
    3310:	f9 01       	movw	r30, r18
    3312:	20 81       	ld	r18, Z
    3314:	24 60       	ori	r18, 0x04	; 4
    3316:	fc 01       	movw	r30, r24
    3318:	20 83       	st	Z, r18
    331a:	64 c0       	rjmp	.+200    	; 0x33e4 <led_top_light+0x162>
    331c:	88 e2       	ldi	r24, 0x28	; 40
    331e:	90 e0       	ldi	r25, 0x00	; 0
    3320:	28 e2       	ldi	r18, 0x28	; 40
		switch(LED){
    3322:	30 e0       	ldi	r19, 0x00	; 0
    3324:	f9 01       	movw	r30, r18
    3326:	20 81       	ld	r18, Z
    3328:	20 68       	ori	r18, 0x80	; 128
    332a:	fc 01       	movw	r30, r24
    332c:	20 83       	st	Z, r18
    332e:	5a c0       	rjmp	.+180    	; 0x33e4 <led_top_light+0x162>
    3330:	88 e2       	ldi	r24, 0x28	; 40
    3332:	90 e0       	ldi	r25, 0x00	; 0
    3334:	28 e2       	ldi	r18, 0x28	; 40
			
    3336:	30 e0       	ldi	r19, 0x00	; 0
    3338:	f9 01       	movw	r30, r18
    333a:	20 81       	ld	r18, Z
    333c:	20 64       	ori	r18, 0x40	; 64
    333e:	fc 01       	movw	r30, r24
    3340:	20 83       	st	Z, r18
    3342:	50 c0       	rjmp	.+160    	; 0x33e4 <led_top_light+0x162>
    3344:	88 e2       	ldi	r24, 0x28	; 40
    3346:	90 e0       	ldi	r25, 0x00	; 0
    3348:	28 e2       	ldi	r18, 0x28	; 40
			case 0: {PORTA |= (1<<PA4); break;}
    334a:	30 e0       	ldi	r19, 0x00	; 0
    334c:	f9 01       	movw	r30, r18
    334e:	20 81       	ld	r18, Z
    3350:	20 62       	ori	r18, 0x20	; 32
    3352:	fc 01       	movw	r30, r24
    3354:	20 83       	st	Z, r18
    3356:	46 c0       	rjmp	.+140    	; 0x33e4 <led_top_light+0x162>
    3358:	88 e2       	ldi	r24, 0x28	; 40
    335a:	90 e0       	ldi	r25, 0x00	; 0
    335c:	28 e2       	ldi	r18, 0x28	; 40
			case 1: {PORTA |= (1<<PA5); break;}	
    335e:	30 e0       	ldi	r19, 0x00	; 0
    3360:	f9 01       	movw	r30, r18
    3362:	20 81       	ld	r18, Z
    3364:	20 61       	ori	r18, 0x10	; 16
    3366:	fc 01       	movw	r30, r24
    3368:	20 83       	st	Z, r18
    336a:	3c c0       	rjmp	.+120    	; 0x33e4 <led_top_light+0x162>
    336c:	88 e2       	ldi	r24, 0x28	; 40
    336e:	90 e0       	ldi	r25, 0x00	; 0
    3370:	28 e2       	ldi	r18, 0x28	; 40
			case 2: {PORTA |= (1<<PA6); break;}
    3372:	30 e0       	ldi	r19, 0x00	; 0
    3374:	f9 01       	movw	r30, r18
    3376:	20 81       	ld	r18, Z
    3378:	28 60       	ori	r18, 0x08	; 8
    337a:	fc 01       	movw	r30, r24
    337c:	20 83       	st	Z, r18
    337e:	32 c0       	rjmp	.+100    	; 0x33e4 <led_top_light+0x162>
    3380:	88 e2       	ldi	r24, 0x28	; 40
    3382:	90 e0       	ldi	r25, 0x00	; 0
    3384:	28 e2       	ldi	r18, 0x28	; 40
			case 3: {PORTA |= (1<<PA7); break;}
    3386:	30 e0       	ldi	r19, 0x00	; 0
    3388:	f9 01       	movw	r30, r18
    338a:	20 81       	ld	r18, Z
    338c:	24 60       	ori	r18, 0x04	; 4
    338e:	fc 01       	movw	r30, r24
    3390:	20 83       	st	Z, r18
    3392:	28 c0       	rjmp	.+80     	; 0x33e4 <led_top_light+0x162>
    3394:	88 e2       	ldi	r24, 0x28	; 40
    3396:	90 e0       	ldi	r25, 0x00	; 0
    3398:	28 e2       	ldi	r18, 0x28	; 40
			case 4: {PORTG |= (1<<PG2); break;}
    339a:	30 e0       	ldi	r19, 0x00	; 0
    339c:	f9 01       	movw	r30, r18
    339e:	20 81       	ld	r18, Z
    33a0:	22 60       	ori	r18, 0x02	; 2
    33a2:	fc 01       	movw	r30, r24
    33a4:	20 83       	st	Z, r18
    33a6:	1e c0       	rjmp	.+60     	; 0x33e4 <led_top_light+0x162>
    33a8:	88 e2       	ldi	r24, 0x28	; 40
    33aa:	90 e0       	ldi	r25, 0x00	; 0
    33ac:	28 e2       	ldi	r18, 0x28	; 40
			case 5: {PORTC |= (1<<PC7); break;}
    33ae:	30 e0       	ldi	r19, 0x00	; 0
    33b0:	f9 01       	movw	r30, r18
    33b2:	20 81       	ld	r18, Z
    33b4:	21 60       	ori	r18, 0x01	; 1
    33b6:	fc 01       	movw	r30, r24
    33b8:	20 83       	st	Z, r18
    33ba:	14 c0       	rjmp	.+40     	; 0x33e4 <led_top_light+0x162>
    33bc:	84 e3       	ldi	r24, 0x34	; 52
    33be:	90 e0       	ldi	r25, 0x00	; 0
			case 6: {PORTC |= (1<<PC6); break;}
    33c0:	24 e3       	ldi	r18, 0x34	; 52
    33c2:	30 e0       	ldi	r19, 0x00	; 0
    33c4:	f9 01       	movw	r30, r18
    33c6:	20 81       	ld	r18, Z
    33c8:	22 60       	ori	r18, 0x02	; 2
    33ca:	fc 01       	movw	r30, r24
    33cc:	20 83       	st	Z, r18
    33ce:	0a c0       	rjmp	.+20     	; 0x33e4 <led_top_light+0x162>
    33d0:	84 e3       	ldi	r24, 0x34	; 52
    33d2:	90 e0       	ldi	r25, 0x00	; 0
			case 7: {PORTC |= (1<<PC5); break;}
    33d4:	24 e3       	ldi	r18, 0x34	; 52
    33d6:	30 e0       	ldi	r19, 0x00	; 0
    33d8:	f9 01       	movw	r30, r18
    33da:	20 81       	ld	r18, Z
    33dc:	21 60       	ori	r18, 0x01	; 1
    33de:	fc 01       	movw	r30, r24
    33e0:	20 83       	st	Z, r18
    33e2:	00 00       	nop
    33e4:	00 00       	nop
    33e6:	0f 90       	pop	r0
			case 8: {PORTC |= (1<<PC4); break;}
			case 9: {PORTC |= (1<<PC3); break;}
			case 10: {PORTC |= (1<<PC2); break;}
			case 11: {PORTC |= (1<<PC1); break;}
    33e8:	df 91       	pop	r29
    33ea:	cf 91       	pop	r28
    33ec:	08 95       	ret

000033ee <led_top_clear>:
    33ee:	cf 93       	push	r28
    33f0:	df 93       	push	r29
			case 12: {PORTC |= (1<<PC0); break;}
			case 13: {PORTG |= (1<<PG1); break;}
			case 14: {PORTG |= (1<<PG0); break;}
    33f2:	1f 92       	push	r1
    33f4:	cd b7       	in	r28, 0x3d	; 61
    33f6:	de b7       	in	r29, 0x3e	; 62
    33f8:	89 83       	std	Y+1, r24	; 0x01
    33fa:	89 81       	ldd	r24, Y+1	; 0x01
    33fc:	88 2f       	mov	r24, r24
		}

    33fe:	90 e0       	ldi	r25, 0x00	; 0
    3400:	09 2e       	mov	r0, r25
    3402:	00 0c       	add	r0, r0
    3404:	aa 0b       	sbc	r26, r26
    3406:	bb 0b       	sbc	r27, r27
    3408:	40 e0       	ldi	r20, 0x00	; 0
    340a:	50 e0       	ldi	r21, 0x00	; 0
    340c:	2e e0       	ldi	r18, 0x0E	; 14
    340e:	30 e0       	ldi	r19, 0x00	; 0
    3410:	84 1b       	sub	r24, r20
    3412:	95 0b       	sbc	r25, r21
    3414:	28 17       	cp	r18, r24
    3416:	39 07       	cpc	r19, r25
    3418:	08 f4       	brcc	.+2      	; 0x341c <led_top_clear+0x2e>
    341a:	9a c0       	rjmp	.+308    	; 0x3550 <led_top_clear+0x162>
    341c:	87 57       	subi	r24, 0x77	; 119
    341e:	9f 4f       	sbci	r25, 0xFF	; 255
    3420:	fc 01       	movw	r30, r24
    3422:	55 c3       	rjmp	.+1706   	; 0x3ace <__tablejump2__>
    3424:	82 e2       	ldi	r24, 0x22	; 34
    3426:	90 e0       	ldi	r25, 0x00	; 0
    3428:	22 e2       	ldi	r18, 0x22	; 34
	
}
    342a:	30 e0       	ldi	r19, 0x00	; 0
    342c:	f9 01       	movw	r30, r18
    342e:	20 81       	ld	r18, Z
    3430:	20 71       	andi	r18, 0x10	; 16
    3432:	fc 01       	movw	r30, r24
    3434:	20 83       	st	Z, r18
    3436:	8c c0       	rjmp	.+280    	; 0x3550 <led_top_clear+0x162>
    3438:	82 e2       	ldi	r24, 0x22	; 34
    343a:	90 e0       	ldi	r25, 0x00	; 0
    343c:	22 e2       	ldi	r18, 0x22	; 34

    343e:	30 e0       	ldi	r19, 0x00	; 0
    3440:	f9 01       	movw	r30, r18
    3442:	20 81       	ld	r18, Z
    3444:	20 72       	andi	r18, 0x20	; 32
    3446:	fc 01       	movw	r30, r24
    3448:	20 83       	st	Z, r18
    344a:	82 c0       	rjmp	.+260    	; 0x3550 <led_top_clear+0x162>
    344c:	82 e2       	ldi	r24, 0x22	; 34
    344e:	90 e0       	ldi	r25, 0x00	; 0
    3450:	22 e2       	ldi	r18, 0x22	; 34
void led_top_clear( uint8_t LED)
    3452:	30 e0       	ldi	r19, 0x00	; 0
    3454:	f9 01       	movw	r30, r18
    3456:	20 81       	ld	r18, Z
    3458:	20 74       	andi	r18, 0x40	; 64
    345a:	fc 01       	movw	r30, r24
    345c:	20 83       	st	Z, r18
    345e:	78 c0       	rjmp	.+240    	; 0x3550 <led_top_clear+0x162>
    3460:	82 e2       	ldi	r24, 0x22	; 34
    3462:	90 e0       	ldi	r25, 0x00	; 0
    3464:	22 e2       	ldi	r18, 0x22	; 34
{
    3466:	30 e0       	ldi	r19, 0x00	; 0
    3468:	f9 01       	movw	r30, r18
    346a:	20 81       	ld	r18, Z
    346c:	20 78       	andi	r18, 0x80	; 128
    346e:	fc 01       	movw	r30, r24
    3470:	20 83       	st	Z, r18
    3472:	6e c0       	rjmp	.+220    	; 0x3550 <led_top_clear+0x162>
    3474:	84 e3       	ldi	r24, 0x34	; 52
    3476:	90 e0       	ldi	r25, 0x00	; 0
    3478:	24 e3       	ldi	r18, 0x34	; 52
	
    347a:	30 e0       	ldi	r19, 0x00	; 0
    347c:	f9 01       	movw	r30, r18
    347e:	20 81       	ld	r18, Z
    3480:	24 70       	andi	r18, 0x04	; 4
    3482:	fc 01       	movw	r30, r24
    3484:	20 83       	st	Z, r18
    3486:	64 c0       	rjmp	.+200    	; 0x3550 <led_top_clear+0x162>
    3488:	88 e2       	ldi	r24, 0x28	; 40
    348a:	90 e0       	ldi	r25, 0x00	; 0
    348c:	28 e2       	ldi	r18, 0x28	; 40
	switch(LED){
    348e:	30 e0       	ldi	r19, 0x00	; 0
    3490:	f9 01       	movw	r30, r18
    3492:	20 81       	ld	r18, Z
    3494:	20 78       	andi	r18, 0x80	; 128
    3496:	fc 01       	movw	r30, r24
    3498:	20 83       	st	Z, r18
    349a:	5a c0       	rjmp	.+180    	; 0x3550 <led_top_clear+0x162>
    349c:	88 e2       	ldi	r24, 0x28	; 40
    349e:	90 e0       	ldi	r25, 0x00	; 0
    34a0:	28 e2       	ldi	r18, 0x28	; 40
		
    34a2:	30 e0       	ldi	r19, 0x00	; 0
    34a4:	f9 01       	movw	r30, r18
    34a6:	20 81       	ld	r18, Z
    34a8:	20 74       	andi	r18, 0x40	; 64
    34aa:	fc 01       	movw	r30, r24
    34ac:	20 83       	st	Z, r18
    34ae:	50 c0       	rjmp	.+160    	; 0x3550 <led_top_clear+0x162>
    34b0:	88 e2       	ldi	r24, 0x28	; 40
    34b2:	90 e0       	ldi	r25, 0x00	; 0
    34b4:	28 e2       	ldi	r18, 0x28	; 40
		case 0: {PORTA &= (1<<PA4); break;}
    34b6:	30 e0       	ldi	r19, 0x00	; 0
    34b8:	f9 01       	movw	r30, r18
    34ba:	20 81       	ld	r18, Z
    34bc:	20 72       	andi	r18, 0x20	; 32
    34be:	fc 01       	movw	r30, r24
    34c0:	20 83       	st	Z, r18
    34c2:	46 c0       	rjmp	.+140    	; 0x3550 <led_top_clear+0x162>
    34c4:	88 e2       	ldi	r24, 0x28	; 40
    34c6:	90 e0       	ldi	r25, 0x00	; 0
    34c8:	28 e2       	ldi	r18, 0x28	; 40
		case 1: {PORTA &= (1<<PA5); break;}
    34ca:	30 e0       	ldi	r19, 0x00	; 0
    34cc:	f9 01       	movw	r30, r18
    34ce:	20 81       	ld	r18, Z
    34d0:	20 71       	andi	r18, 0x10	; 16
    34d2:	fc 01       	movw	r30, r24
    34d4:	20 83       	st	Z, r18
    34d6:	3c c0       	rjmp	.+120    	; 0x3550 <led_top_clear+0x162>
    34d8:	88 e2       	ldi	r24, 0x28	; 40
    34da:	90 e0       	ldi	r25, 0x00	; 0
    34dc:	28 e2       	ldi	r18, 0x28	; 40
		case 2: {PORTA &= (1<<PA6); break;}
    34de:	30 e0       	ldi	r19, 0x00	; 0
    34e0:	f9 01       	movw	r30, r18
    34e2:	20 81       	ld	r18, Z
    34e4:	28 70       	andi	r18, 0x08	; 8
    34e6:	fc 01       	movw	r30, r24
    34e8:	20 83       	st	Z, r18
    34ea:	32 c0       	rjmp	.+100    	; 0x3550 <led_top_clear+0x162>
    34ec:	88 e2       	ldi	r24, 0x28	; 40
    34ee:	90 e0       	ldi	r25, 0x00	; 0
    34f0:	28 e2       	ldi	r18, 0x28	; 40
		case 3: {PORTA &= (1<<PA7); break;}
    34f2:	30 e0       	ldi	r19, 0x00	; 0
    34f4:	f9 01       	movw	r30, r18
    34f6:	20 81       	ld	r18, Z
    34f8:	24 70       	andi	r18, 0x04	; 4
    34fa:	fc 01       	movw	r30, r24
    34fc:	20 83       	st	Z, r18
    34fe:	28 c0       	rjmp	.+80     	; 0x3550 <led_top_clear+0x162>
    3500:	88 e2       	ldi	r24, 0x28	; 40
    3502:	90 e0       	ldi	r25, 0x00	; 0
    3504:	28 e2       	ldi	r18, 0x28	; 40
		case 4: {PORTG &= (1<<PG2); break;}
    3506:	30 e0       	ldi	r19, 0x00	; 0
    3508:	f9 01       	movw	r30, r18
    350a:	20 81       	ld	r18, Z
    350c:	22 70       	andi	r18, 0x02	; 2
    350e:	fc 01       	movw	r30, r24
    3510:	20 83       	st	Z, r18
    3512:	1e c0       	rjmp	.+60     	; 0x3550 <led_top_clear+0x162>
    3514:	88 e2       	ldi	r24, 0x28	; 40
    3516:	90 e0       	ldi	r25, 0x00	; 0
    3518:	28 e2       	ldi	r18, 0x28	; 40
		case 5: {PORTC &= (1<<PC7); break;}
    351a:	30 e0       	ldi	r19, 0x00	; 0
    351c:	f9 01       	movw	r30, r18
    351e:	20 81       	ld	r18, Z
    3520:	21 70       	andi	r18, 0x01	; 1
    3522:	fc 01       	movw	r30, r24
    3524:	20 83       	st	Z, r18
    3526:	14 c0       	rjmp	.+40     	; 0x3550 <led_top_clear+0x162>
    3528:	84 e3       	ldi	r24, 0x34	; 52
    352a:	90 e0       	ldi	r25, 0x00	; 0
    352c:	24 e3       	ldi	r18, 0x34	; 52
		case 6: {PORTC &= (1<<PC6); break;}
    352e:	30 e0       	ldi	r19, 0x00	; 0
    3530:	f9 01       	movw	r30, r18
    3532:	20 81       	ld	r18, Z
    3534:	22 70       	andi	r18, 0x02	; 2
    3536:	fc 01       	movw	r30, r24
    3538:	20 83       	st	Z, r18
    353a:	0a c0       	rjmp	.+20     	; 0x3550 <led_top_clear+0x162>
    353c:	84 e3       	ldi	r24, 0x34	; 52
    353e:	90 e0       	ldi	r25, 0x00	; 0
    3540:	24 e3       	ldi	r18, 0x34	; 52
		case 7: {PORTC &= (1<<PC5); break;}
    3542:	30 e0       	ldi	r19, 0x00	; 0
    3544:	f9 01       	movw	r30, r18
    3546:	20 81       	ld	r18, Z
    3548:	21 70       	andi	r18, 0x01	; 1
    354a:	fc 01       	movw	r30, r24
    354c:	20 83       	st	Z, r18
    354e:	00 00       	nop
    3550:	00 00       	nop
    3552:	0f 90       	pop	r0
		case 8: {PORTC &= (1<<PC4); break;}
		case 9: {PORTC &= (1<<PC3); break;}
		case 10: {PORTC &= (1<<PC2); break;}
		case 11: {PORTC &= (1<<PC1); break;}
		case 12: {PORTC &= (1<<PC0); break;}
    3554:	df 91       	pop	r29
    3556:	cf 91       	pop	r28
    3558:	08 95       	ret

0000355a <bms_error>:
    355a:	cf 93       	push	r28
		case 13: {PORTG &= (1<<PG1); break;}
		case 14: {PORTG &= (1<<PG0); break;}
		
    355c:	df 93       	push	r29
    355e:	1f 92       	push	r1
    3560:	cd b7       	in	r28, 0x3d	; 61
    3562:	de b7       	in	r29, 0x3e	; 62
    3564:	89 83       	std	Y+1, r24	; 0x01
	}
    3566:	89 81       	ldd	r24, Y+1	; 0x01
    3568:	88 2f       	mov	r24, r24
    356a:	90 e0       	ldi	r25, 0x00	; 0
    356c:	00 97       	sbiw	r24, 0x00	; 0
    356e:	19 f0       	breq	.+6      	; 0x3576 <bms_error+0x1c>
    3570:	01 97       	sbiw	r24, 0x01	; 1

	
}

void bms_error(uint8_t error)
    3572:	59 f0       	breq	.+22     	; 0x358a <bms_error+0x30>
		case 13: {PORTG &= (1<<PG1); break;}
		case 14: {PORTG &= (1<<PG0); break;}
		
	}

	
    3574:	14 c0       	rjmp	.+40     	; 0x359e <bms_error+0x44>
    3576:	8b e2       	ldi	r24, 0x2B	; 43
    3578:	90 e0       	ldi	r25, 0x00	; 0
    357a:	2b e2       	ldi	r18, 0x2B	; 43
    357c:	30 e0       	ldi	r19, 0x00	; 0
    357e:	f9 01       	movw	r30, r18
    3580:	20 81       	ld	r18, Z
    3582:	20 76       	andi	r18, 0x60	; 96
}
    3584:	fc 01       	movw	r30, r24
    3586:	20 83       	st	Z, r18
    3588:	0a c0       	rjmp	.+20     	; 0x359e <bms_error+0x44>
    358a:	8b e2       	ldi	r24, 0x2B	; 43
    358c:	90 e0       	ldi	r25, 0x00	; 0
    358e:	2b e2       	ldi	r18, 0x2B	; 43
    3590:	30 e0       	ldi	r19, 0x00	; 0
    3592:	f9 01       	movw	r30, r18
    3594:	20 81       	ld	r18, Z
    3596:	2f 69       	ori	r18, 0x9F	; 159

void bms_error(uint8_t error)
    3598:	fc 01       	movw	r30, r24
    359a:	20 83       	st	Z, r18
    359c:	00 00       	nop
    359e:	00 00       	nop
    35a0:	0f 90       	pop	r0
{
	switch (error)
	{
    35a2:	df 91       	pop	r29
    35a4:	cf 91       	pop	r28
    35a6:	08 95       	ret

000035a8 <led_startup_animation>:
    35a8:	cf 93       	push	r28
    35aa:	df 93       	push	r29
    35ac:	1f 92       	push	r1
		case 0: {PORTD &= (0b01100000); break;}	//Every 1 in this number represents an Pin which is connected to the bottom LED bar, 0 = on
		case 1: {PORTD |= (0b10011111); break;}	//Every 1 in this number represents an Pin which is connected to the bottom LED bar, 1 = on
    35ae:	cd b7       	in	r28, 0x3d	; 61
    35b0:	de b7       	in	r29, 0x3e	; 62
    35b2:	89 83       	std	Y+1, r24	; 0x01
    35b4:	89 81       	ldd	r24, Y+1	; 0x01
	}
    35b6:	89 5f       	subi	r24, 0xF9	; 249
    35b8:	64 de       	rcall	.-824    	; 0x3282 <led_top_light>
    35ba:	97 e0       	ldi	r25, 0x07	; 7
    35bc:	89 81       	ldd	r24, Y+1	; 0x01
    35be:	29 2f       	mov	r18, r25
    35c0:	28 1b       	sub	r18, r24
    35c2:	82 2f       	mov	r24, r18
}

void led_startup_animation(uint8_t frame)
{
    35c4:	5e de       	rcall	.-836    	; 0x3282 <led_top_light>
    35c6:	89 81       	ldd	r24, Y+1	; 0x01
    35c8:	88 30       	cpi	r24, 0x08	; 8
	
			led_top_light(7+frame);
    35ca:	10 f0       	brcs	.+4      	; 0x35d0 <led_startup_animation+0x28>
    35cc:	82 e0       	ldi	r24, 0x02	; 2
    35ce:	3e dc       	rcall	.-1924   	; 0x2e4c <pre_defined_led_colors>
			led_top_light(7-frame);
			
				
    35d0:	89 81       	ldd	r24, Y+1	; 0x01
    35d2:	89 30       	cpi	r24, 0x09	; 9
    35d4:	10 f0       	brcs	.+4      	; 0x35da <led_startup_animation+0x32>

			if(frame >= 8)
    35d6:	81 e0       	ldi	r24, 0x01	; 1
    35d8:	c0 df       	rcall	.-128    	; 0x355a <bms_error>
    35da:	89 81       	ldd	r24, Y+1	; 0x01
			{
				pre_defined_led_colors(PE_GREEN);
			}
    35dc:	8e 30       	cpi	r24, 0x0E	; 14
    35de:	20 f0       	brcs	.+8      	; 0x35e8 <led_startup_animation+0x40>
    35e0:	87 e0       	ldi	r24, 0x07	; 7
			
			if(frame >= 9)
    35e2:	34 dc       	rcall	.-1944   	; 0x2e4c <pre_defined_led_colors>
    35e4:	80 e0       	ldi	r24, 0x00	; 0
    35e6:	b9 df       	rcall	.-142    	; 0x355a <bms_error>
			{
    35e8:	00 00       	nop
    35ea:	0f 90       	pop	r0
    35ec:	df 91       	pop	r29
			
			
			
			
		/*
			if (frame >= 2)
    35ee:	cf 91       	pop	r28
    35f0:	08 95       	ret

000035f2 <port_config>:
    35f2:	cf 93       	push	r28
    35f4:	df 93       	push	r29
    35f6:	cd b7       	in	r28, 0x3d	; 61
    35f8:	de b7       	in	r29, 0x3e	; 62
    35fa:	81 e2       	ldi	r24, 0x21	; 33
    35fc:	90 e0       	ldi	r25, 0x00	; 0
    35fe:	21 e2       	ldi	r18, 0x21	; 33
    3600:	30 e0       	ldi	r19, 0x00	; 0
    3602:	f9 01       	movw	r30, r18
    3604:	20 81       	ld	r18, Z
    3606:	2c 6f       	ori	r18, 0xFC	; 252
    3608:	fc 01       	movw	r30, r24
    360a:	20 83       	st	Z, r18
    360c:	81 e2       	ldi	r24, 0x21	; 33
    360e:	90 e0       	ldi	r25, 0x00	; 0
    3610:	21 e2       	ldi	r18, 0x21	; 33
    3612:	30 e0       	ldi	r19, 0x00	; 0
    3614:	f9 01       	movw	r30, r18
    3616:	20 81       	ld	r18, Z
    3618:	2c 7f       	andi	r18, 0xFC	; 252
    361a:	fc 01       	movw	r30, r24
    361c:	20 83       	st	Z, r18
    361e:	84 e2       	ldi	r24, 0x24	; 36
    3620:	90 e0       	ldi	r25, 0x00	; 0
    3622:	24 e2       	ldi	r18, 0x24	; 36
    3624:	30 e0       	ldi	r19, 0x00	; 0
    3626:	f9 01       	movw	r30, r18
    3628:	20 81       	ld	r18, Z
    362a:	26 6f       	ori	r18, 0xF6	; 246
    362c:	fc 01       	movw	r30, r24
    362e:	20 83       	st	Z, r18
    3630:	84 e2       	ldi	r24, 0x24	; 36
    3632:	90 e0       	ldi	r25, 0x00	; 0
    3634:	24 e2       	ldi	r18, 0x24	; 36
    3636:	30 e0       	ldi	r19, 0x00	; 0
    3638:	f9 01       	movw	r30, r18
    363a:	20 81       	ld	r18, Z
    363c:	27 7f       	andi	r18, 0xF7	; 247
    363e:	fc 01       	movw	r30, r24
    3640:	20 83       	st	Z, r18
    3642:	87 e2       	ldi	r24, 0x27	; 39
    3644:	90 e0       	ldi	r25, 0x00	; 0
    3646:	2f ef       	ldi	r18, 0xFF	; 255
    3648:	fc 01       	movw	r30, r24
    364a:	20 83       	st	Z, r18
    364c:	8a e2       	ldi	r24, 0x2A	; 42
    364e:	90 e0       	ldi	r25, 0x00	; 0
    3650:	2a e2       	ldi	r18, 0x2A	; 42
    3652:	30 e0       	ldi	r19, 0x00	; 0
    3654:	f9 01       	movw	r30, r18
    3656:	20 81       	ld	r18, Z
    3658:	2f 69       	ori	r18, 0x9F	; 159
    365a:	fc 01       	movw	r30, r24
    365c:	20 83       	st	Z, r18
    365e:	8d e2       	ldi	r24, 0x2D	; 45
    3660:	90 e0       	ldi	r25, 0x00	; 0
    3662:	2f ef       	ldi	r18, 0xFF	; 255
    3664:	fc 01       	movw	r30, r24
    3666:	20 83       	st	Z, r18
    3668:	80 e3       	ldi	r24, 0x30	; 48
    366a:	90 e0       	ldi	r25, 0x00	; 0
    366c:	20 e3       	ldi	r18, 0x30	; 48
    366e:	30 e0       	ldi	r19, 0x00	; 0
    3670:	f9 01       	movw	r30, r18
    3672:	20 81       	ld	r18, Z
    3674:	21 7f       	andi	r18, 0xF1	; 241
    3676:	fc 01       	movw	r30, r24
    3678:	20 83       	st	Z, r18
    367a:	83 e3       	ldi	r24, 0x33	; 51
    367c:	90 e0       	ldi	r25, 0x00	; 0
    367e:	23 e3       	ldi	r18, 0x33	; 51
    3680:	30 e0       	ldi	r19, 0x00	; 0
    3682:	f9 01       	movw	r30, r18
    3684:	20 81       	ld	r18, Z
    3686:	2f 61       	ori	r18, 0x1F	; 31
    3688:	fc 01       	movw	r30, r24
    368a:	20 83       	st	Z, r18
    368c:	82 e2       	ldi	r24, 0x22	; 34
    368e:	90 e0       	ldi	r25, 0x00	; 0
    3690:	fc 01       	movw	r30, r24
    3692:	10 82       	st	Z, r1
    3694:	85 e2       	ldi	r24, 0x25	; 37
    3696:	90 e0       	ldi	r25, 0x00	; 0
    3698:	fc 01       	movw	r30, r24
    369a:	10 82       	st	Z, r1
    369c:	88 e2       	ldi	r24, 0x28	; 40
    369e:	90 e0       	ldi	r25, 0x00	; 0
    36a0:	fc 01       	movw	r30, r24
    36a2:	10 82       	st	Z, r1
    36a4:	8b e2       	ldi	r24, 0x2B	; 43
    36a6:	90 e0       	ldi	r25, 0x00	; 0
    36a8:	fc 01       	movw	r30, r24
    36aa:	10 82       	st	Z, r1
    36ac:	8e e2       	ldi	r24, 0x2E	; 46
    36ae:	90 e0       	ldi	r25, 0x00	; 0
    36b0:	fc 01       	movw	r30, r24
    36b2:	10 82       	st	Z, r1
    36b4:	81 e3       	ldi	r24, 0x31	; 49
    36b6:	90 e0       	ldi	r25, 0x00	; 0
    36b8:	fc 01       	movw	r30, r24
    36ba:	10 82       	st	Z, r1
    36bc:	84 e3       	ldi	r24, 0x34	; 52
    36be:	90 e0       	ldi	r25, 0x00	; 0
    36c0:	fc 01       	movw	r30, r24
    36c2:	10 82       	st	Z, r1
    36c4:	82 e2       	ldi	r24, 0x22	; 34
    36c6:	90 e0       	ldi	r25, 0x00	; 0
    36c8:	22 e2       	ldi	r18, 0x22	; 34
    36ca:	30 e0       	ldi	r19, 0x00	; 0
    36cc:	f9 01       	movw	r30, r18
    36ce:	20 81       	ld	r18, Z
    36d0:	23 60       	ori	r18, 0x03	; 3
    36d2:	fc 01       	movw	r30, r24
    36d4:	20 83       	st	Z, r18
    36d6:	00 00       	nop
    36d8:	df 91       	pop	r29
    36da:	cf 91       	pop	r28
    36dc:	08 95       	ret

000036de <sys_timer_config>:
    36de:	cf 93       	push	r28
    36e0:	df 93       	push	r29
    36e2:	cd b7       	in	r28, 0x3d	; 61
    36e4:	de b7       	in	r29, 0x3e	; 62
    36e6:	84 e4       	ldi	r24, 0x44	; 68
    36e8:	90 e0       	ldi	r25, 0x00	; 0
    36ea:	2b e0       	ldi	r18, 0x0B	; 11
    36ec:	fc 01       	movw	r30, r24
    36ee:	20 83       	st	Z, r18
    36f0:	8e e6       	ldi	r24, 0x6E	; 110
    36f2:	90 e0       	ldi	r25, 0x00	; 0
    36f4:	22 e0       	ldi	r18, 0x02	; 2
    36f6:	fc 01       	movw	r30, r24
    36f8:	20 83       	st	Z, r18
    36fa:	87 e4       	ldi	r24, 0x47	; 71
    36fc:	90 e0       	ldi	r25, 0x00	; 0
    36fe:	2a ef       	ldi	r18, 0xFA	; 250
    3700:	fc 01       	movw	r30, r24
    3702:	20 83       	st	Z, r18
    3704:	00 00       	nop
    3706:	df 91       	pop	r29
    3708:	cf 91       	pop	r28
    370a:	08 95       	ret

0000370c <__vector_16>:
    370c:	1f 92       	push	r1
    370e:	0f 92       	push	r0
    3710:	00 90 5f 00 	lds	r0, 0x005F	; 0x80005f <__TEXT_REGION_LENGTH__+0x7e005f>
    3714:	0f 92       	push	r0
    3716:	11 24       	eor	r1, r1
    3718:	8f 93       	push	r24
    371a:	9f 93       	push	r25
    371c:	af 93       	push	r26
    371e:	bf 93       	push	r27
    3720:	cf 93       	push	r28
    3722:	df 93       	push	r29
    3724:	cd b7       	in	r28, 0x3d	; 61
    3726:	de b7       	in	r29, 0x3e	; 62
    3728:	80 91 fe 02 	lds	r24, 0x02FE	; 0x8002fe <sys_time>
    372c:	90 91 ff 02 	lds	r25, 0x02FF	; 0x8002ff <sys_time+0x1>
    3730:	a0 91 00 03 	lds	r26, 0x0300	; 0x800300 <sys_time+0x2>
    3734:	b0 91 01 03 	lds	r27, 0x0301	; 0x800301 <sys_time+0x3>
    3738:	01 96       	adiw	r24, 0x01	; 1
    373a:	a1 1d       	adc	r26, r1
    373c:	b1 1d       	adc	r27, r1
    373e:	80 93 fe 02 	sts	0x02FE, r24	; 0x8002fe <sys_time>
    3742:	90 93 ff 02 	sts	0x02FF, r25	; 0x8002ff <sys_time+0x1>
    3746:	a0 93 00 03 	sts	0x0300, r26	; 0x800300 <sys_time+0x2>
    374a:	b0 93 01 03 	sts	0x0301, r27	; 0x800301 <sys_time+0x3>
    374e:	80 91 02 03 	lds	r24, 0x0302	; 0x800302 <draw_data>
    3752:	8f 5f       	subi	r24, 0xFF	; 255
    3754:	80 93 02 03 	sts	0x0302, r24	; 0x800302 <draw_data>
    3758:	00 00       	nop
    375a:	df 91       	pop	r29
    375c:	cf 91       	pop	r28
    375e:	bf 91       	pop	r27
    3760:	af 91       	pop	r26
    3762:	9f 91       	pop	r25
    3764:	8f 91       	pop	r24
    3766:	0f 90       	pop	r0
    3768:	00 92 5f 00 	sts	0x005F, r0	; 0x80005f <__TEXT_REGION_LENGTH__+0x7e005f>
    376c:	0f 90       	pop	r0
    376e:	1f 90       	pop	r1
    3770:	18 95       	reti

00003772 <__subsf3>:
    3772:	50 58       	subi	r21, 0x80	; 128

00003774 <__addsf3>:
    3774:	bb 27       	eor	r27, r27
    3776:	aa 27       	eor	r26, r26
    3778:	0e d0       	rcall	.+28     	; 0x3796 <__addsf3x>
    377a:	48 c1       	rjmp	.+656    	; 0x3a0c <__fp_round>
    377c:	39 d1       	rcall	.+626    	; 0x39f0 <__fp_pscA>
    377e:	30 f0       	brcs	.+12     	; 0x378c <__addsf3+0x18>
    3780:	3e d1       	rcall	.+636    	; 0x39fe <__fp_pscB>
    3782:	20 f0       	brcs	.+8      	; 0x378c <__addsf3+0x18>
    3784:	31 f4       	brne	.+12     	; 0x3792 <__addsf3+0x1e>
    3786:	9f 3f       	cpi	r25, 0xFF	; 255
    3788:	11 f4       	brne	.+4      	; 0x378e <__addsf3+0x1a>
    378a:	1e f4       	brtc	.+6      	; 0x3792 <__addsf3+0x1e>
    378c:	2e c1       	rjmp	.+604    	; 0x39ea <__fp_nan>
    378e:	0e f4       	brtc	.+2      	; 0x3792 <__addsf3+0x1e>
    3790:	e0 95       	com	r30
    3792:	e7 fb       	bst	r30, 7
    3794:	24 c1       	rjmp	.+584    	; 0x39de <__fp_inf>

00003796 <__addsf3x>:
    3796:	e9 2f       	mov	r30, r25
    3798:	4a d1       	rcall	.+660    	; 0x3a2e <__fp_split3>
    379a:	80 f3       	brcs	.-32     	; 0x377c <__addsf3+0x8>
    379c:	ba 17       	cp	r27, r26
    379e:	62 07       	cpc	r22, r18
    37a0:	73 07       	cpc	r23, r19
    37a2:	84 07       	cpc	r24, r20
    37a4:	95 07       	cpc	r25, r21
    37a6:	18 f0       	brcs	.+6      	; 0x37ae <__addsf3x+0x18>
    37a8:	71 f4       	brne	.+28     	; 0x37c6 <__addsf3x+0x30>
    37aa:	9e f5       	brtc	.+102    	; 0x3812 <__addsf3x+0x7c>
    37ac:	62 c1       	rjmp	.+708    	; 0x3a72 <__fp_zero>
    37ae:	0e f4       	brtc	.+2      	; 0x37b2 <__addsf3x+0x1c>
    37b0:	e0 95       	com	r30
    37b2:	0b 2e       	mov	r0, r27
    37b4:	ba 2f       	mov	r27, r26
    37b6:	a0 2d       	mov	r26, r0
    37b8:	0b 01       	movw	r0, r22
    37ba:	b9 01       	movw	r22, r18
    37bc:	90 01       	movw	r18, r0
    37be:	0c 01       	movw	r0, r24
    37c0:	ca 01       	movw	r24, r20
    37c2:	a0 01       	movw	r20, r0
    37c4:	11 24       	eor	r1, r1
    37c6:	ff 27       	eor	r31, r31
    37c8:	59 1b       	sub	r21, r25
    37ca:	99 f0       	breq	.+38     	; 0x37f2 <__addsf3x+0x5c>
    37cc:	59 3f       	cpi	r21, 0xF9	; 249
    37ce:	50 f4       	brcc	.+20     	; 0x37e4 <__addsf3x+0x4e>
    37d0:	50 3e       	cpi	r21, 0xE0	; 224
    37d2:	68 f1       	brcs	.+90     	; 0x382e <__addsf3x+0x98>
    37d4:	1a 16       	cp	r1, r26
    37d6:	f0 40       	sbci	r31, 0x00	; 0
    37d8:	a2 2f       	mov	r26, r18
    37da:	23 2f       	mov	r18, r19
    37dc:	34 2f       	mov	r19, r20
    37de:	44 27       	eor	r20, r20
    37e0:	58 5f       	subi	r21, 0xF8	; 248
    37e2:	f3 cf       	rjmp	.-26     	; 0x37ca <__addsf3x+0x34>
    37e4:	46 95       	lsr	r20
    37e6:	37 95       	ror	r19
    37e8:	27 95       	ror	r18
    37ea:	a7 95       	ror	r26
    37ec:	f0 40       	sbci	r31, 0x00	; 0
    37ee:	53 95       	inc	r21
    37f0:	c9 f7       	brne	.-14     	; 0x37e4 <__addsf3x+0x4e>
    37f2:	7e f4       	brtc	.+30     	; 0x3812 <__addsf3x+0x7c>
    37f4:	1f 16       	cp	r1, r31
    37f6:	ba 0b       	sbc	r27, r26
    37f8:	62 0b       	sbc	r22, r18
    37fa:	73 0b       	sbc	r23, r19
    37fc:	84 0b       	sbc	r24, r20
    37fe:	ba f0       	brmi	.+46     	; 0x382e <__addsf3x+0x98>
    3800:	91 50       	subi	r25, 0x01	; 1
    3802:	a1 f0       	breq	.+40     	; 0x382c <__addsf3x+0x96>
    3804:	ff 0f       	add	r31, r31
    3806:	bb 1f       	adc	r27, r27
    3808:	66 1f       	adc	r22, r22
    380a:	77 1f       	adc	r23, r23
    380c:	88 1f       	adc	r24, r24
    380e:	c2 f7       	brpl	.-16     	; 0x3800 <__addsf3x+0x6a>
    3810:	0e c0       	rjmp	.+28     	; 0x382e <__addsf3x+0x98>
    3812:	ba 0f       	add	r27, r26
    3814:	62 1f       	adc	r22, r18
    3816:	73 1f       	adc	r23, r19
    3818:	84 1f       	adc	r24, r20
    381a:	48 f4       	brcc	.+18     	; 0x382e <__addsf3x+0x98>
    381c:	87 95       	ror	r24
    381e:	77 95       	ror	r23
    3820:	67 95       	ror	r22
    3822:	b7 95       	ror	r27
    3824:	f7 95       	ror	r31
    3826:	9e 3f       	cpi	r25, 0xFE	; 254
    3828:	08 f0       	brcs	.+2      	; 0x382c <__addsf3x+0x96>
    382a:	b3 cf       	rjmp	.-154    	; 0x3792 <__addsf3+0x1e>
    382c:	93 95       	inc	r25
    382e:	88 0f       	add	r24, r24
    3830:	08 f0       	brcs	.+2      	; 0x3834 <__addsf3x+0x9e>
    3832:	99 27       	eor	r25, r25
    3834:	ee 0f       	add	r30, r30
    3836:	97 95       	ror	r25
    3838:	87 95       	ror	r24
    383a:	08 95       	ret

0000383c <__divsf3>:
    383c:	0c d0       	rcall	.+24     	; 0x3856 <__divsf3x>
    383e:	e6 c0       	rjmp	.+460    	; 0x3a0c <__fp_round>
    3840:	de d0       	rcall	.+444    	; 0x39fe <__fp_pscB>
    3842:	40 f0       	brcs	.+16     	; 0x3854 <__divsf3+0x18>
    3844:	d5 d0       	rcall	.+426    	; 0x39f0 <__fp_pscA>
    3846:	30 f0       	brcs	.+12     	; 0x3854 <__divsf3+0x18>
    3848:	21 f4       	brne	.+8      	; 0x3852 <__divsf3+0x16>
    384a:	5f 3f       	cpi	r21, 0xFF	; 255
    384c:	19 f0       	breq	.+6      	; 0x3854 <__divsf3+0x18>
    384e:	c7 c0       	rjmp	.+398    	; 0x39de <__fp_inf>
    3850:	51 11       	cpse	r21, r1
    3852:	10 c1       	rjmp	.+544    	; 0x3a74 <__fp_szero>
    3854:	ca c0       	rjmp	.+404    	; 0x39ea <__fp_nan>

00003856 <__divsf3x>:
    3856:	eb d0       	rcall	.+470    	; 0x3a2e <__fp_split3>
    3858:	98 f3       	brcs	.-26     	; 0x3840 <__divsf3+0x4>

0000385a <__divsf3_pse>:
    385a:	99 23       	and	r25, r25
    385c:	c9 f3       	breq	.-14     	; 0x3850 <__divsf3+0x14>
    385e:	55 23       	and	r21, r21
    3860:	b1 f3       	breq	.-20     	; 0x384e <__divsf3+0x12>
    3862:	95 1b       	sub	r25, r21
    3864:	55 0b       	sbc	r21, r21
    3866:	bb 27       	eor	r27, r27
    3868:	aa 27       	eor	r26, r26
    386a:	62 17       	cp	r22, r18
    386c:	73 07       	cpc	r23, r19
    386e:	84 07       	cpc	r24, r20
    3870:	38 f0       	brcs	.+14     	; 0x3880 <__divsf3_pse+0x26>
    3872:	9f 5f       	subi	r25, 0xFF	; 255
    3874:	5f 4f       	sbci	r21, 0xFF	; 255
    3876:	22 0f       	add	r18, r18
    3878:	33 1f       	adc	r19, r19
    387a:	44 1f       	adc	r20, r20
    387c:	aa 1f       	adc	r26, r26
    387e:	a9 f3       	breq	.-22     	; 0x386a <__divsf3_pse+0x10>
    3880:	33 d0       	rcall	.+102    	; 0x38e8 <__divsf3_pse+0x8e>
    3882:	0e 2e       	mov	r0, r30
    3884:	3a f0       	brmi	.+14     	; 0x3894 <__divsf3_pse+0x3a>
    3886:	e0 e8       	ldi	r30, 0x80	; 128
    3888:	30 d0       	rcall	.+96     	; 0x38ea <__divsf3_pse+0x90>
    388a:	91 50       	subi	r25, 0x01	; 1
    388c:	50 40       	sbci	r21, 0x00	; 0
    388e:	e6 95       	lsr	r30
    3890:	00 1c       	adc	r0, r0
    3892:	ca f7       	brpl	.-14     	; 0x3886 <__divsf3_pse+0x2c>
    3894:	29 d0       	rcall	.+82     	; 0x38e8 <__divsf3_pse+0x8e>
    3896:	fe 2f       	mov	r31, r30
    3898:	27 d0       	rcall	.+78     	; 0x38e8 <__divsf3_pse+0x8e>
    389a:	66 0f       	add	r22, r22
    389c:	77 1f       	adc	r23, r23
    389e:	88 1f       	adc	r24, r24
    38a0:	bb 1f       	adc	r27, r27
    38a2:	26 17       	cp	r18, r22
    38a4:	37 07       	cpc	r19, r23
    38a6:	48 07       	cpc	r20, r24
    38a8:	ab 07       	cpc	r26, r27
    38aa:	b0 e8       	ldi	r27, 0x80	; 128
    38ac:	09 f0       	breq	.+2      	; 0x38b0 <__divsf3_pse+0x56>
    38ae:	bb 0b       	sbc	r27, r27
    38b0:	80 2d       	mov	r24, r0
    38b2:	bf 01       	movw	r22, r30
    38b4:	ff 27       	eor	r31, r31
    38b6:	93 58       	subi	r25, 0x83	; 131
    38b8:	5f 4f       	sbci	r21, 0xFF	; 255
    38ba:	2a f0       	brmi	.+10     	; 0x38c6 <__divsf3_pse+0x6c>
    38bc:	9e 3f       	cpi	r25, 0xFE	; 254
    38be:	51 05       	cpc	r21, r1
    38c0:	68 f0       	brcs	.+26     	; 0x38dc <__divsf3_pse+0x82>
    38c2:	8d c0       	rjmp	.+282    	; 0x39de <__fp_inf>
    38c4:	d7 c0       	rjmp	.+430    	; 0x3a74 <__fp_szero>
    38c6:	5f 3f       	cpi	r21, 0xFF	; 255
    38c8:	ec f3       	brlt	.-6      	; 0x38c4 <__divsf3_pse+0x6a>
    38ca:	98 3e       	cpi	r25, 0xE8	; 232
    38cc:	dc f3       	brlt	.-10     	; 0x38c4 <__divsf3_pse+0x6a>
    38ce:	86 95       	lsr	r24
    38d0:	77 95       	ror	r23
    38d2:	67 95       	ror	r22
    38d4:	b7 95       	ror	r27
    38d6:	f7 95       	ror	r31
    38d8:	9f 5f       	subi	r25, 0xFF	; 255
    38da:	c9 f7       	brne	.-14     	; 0x38ce <__divsf3_pse+0x74>
    38dc:	88 0f       	add	r24, r24
    38de:	91 1d       	adc	r25, r1
    38e0:	96 95       	lsr	r25
    38e2:	87 95       	ror	r24
    38e4:	97 f9       	bld	r25, 7
    38e6:	08 95       	ret
    38e8:	e1 e0       	ldi	r30, 0x01	; 1
    38ea:	66 0f       	add	r22, r22
    38ec:	77 1f       	adc	r23, r23
    38ee:	88 1f       	adc	r24, r24
    38f0:	bb 1f       	adc	r27, r27
    38f2:	62 17       	cp	r22, r18
    38f4:	73 07       	cpc	r23, r19
    38f6:	84 07       	cpc	r24, r20
    38f8:	ba 07       	cpc	r27, r26
    38fa:	20 f0       	brcs	.+8      	; 0x3904 <__divsf3_pse+0xaa>
    38fc:	62 1b       	sub	r22, r18
    38fe:	73 0b       	sbc	r23, r19
    3900:	84 0b       	sbc	r24, r20
    3902:	ba 0b       	sbc	r27, r26
    3904:	ee 1f       	adc	r30, r30
    3906:	88 f7       	brcc	.-30     	; 0x38ea <__divsf3_pse+0x90>
    3908:	e0 95       	com	r30
    390a:	08 95       	ret

0000390c <__fixunssfsi>:
    390c:	98 d0       	rcall	.+304    	; 0x3a3e <__fp_splitA>
    390e:	88 f0       	brcs	.+34     	; 0x3932 <__fixunssfsi+0x26>
    3910:	9f 57       	subi	r25, 0x7F	; 127
    3912:	90 f0       	brcs	.+36     	; 0x3938 <__fixunssfsi+0x2c>
    3914:	b9 2f       	mov	r27, r25
    3916:	99 27       	eor	r25, r25
    3918:	b7 51       	subi	r27, 0x17	; 23
    391a:	a0 f0       	brcs	.+40     	; 0x3944 <__fixunssfsi+0x38>
    391c:	d1 f0       	breq	.+52     	; 0x3952 <__fixunssfsi+0x46>
    391e:	66 0f       	add	r22, r22
    3920:	77 1f       	adc	r23, r23
    3922:	88 1f       	adc	r24, r24
    3924:	99 1f       	adc	r25, r25
    3926:	1a f0       	brmi	.+6      	; 0x392e <__fixunssfsi+0x22>
    3928:	ba 95       	dec	r27
    392a:	c9 f7       	brne	.-14     	; 0x391e <__fixunssfsi+0x12>
    392c:	12 c0       	rjmp	.+36     	; 0x3952 <__fixunssfsi+0x46>
    392e:	b1 30       	cpi	r27, 0x01	; 1
    3930:	81 f0       	breq	.+32     	; 0x3952 <__fixunssfsi+0x46>
    3932:	9f d0       	rcall	.+318    	; 0x3a72 <__fp_zero>
    3934:	b1 e0       	ldi	r27, 0x01	; 1
    3936:	08 95       	ret
    3938:	9c c0       	rjmp	.+312    	; 0x3a72 <__fp_zero>
    393a:	67 2f       	mov	r22, r23
    393c:	78 2f       	mov	r23, r24
    393e:	88 27       	eor	r24, r24
    3940:	b8 5f       	subi	r27, 0xF8	; 248
    3942:	39 f0       	breq	.+14     	; 0x3952 <__fixunssfsi+0x46>
    3944:	b9 3f       	cpi	r27, 0xF9	; 249
    3946:	cc f3       	brlt	.-14     	; 0x393a <__fixunssfsi+0x2e>
    3948:	86 95       	lsr	r24
    394a:	77 95       	ror	r23
    394c:	67 95       	ror	r22
    394e:	b3 95       	inc	r27
    3950:	d9 f7       	brne	.-10     	; 0x3948 <__fixunssfsi+0x3c>
    3952:	3e f4       	brtc	.+14     	; 0x3962 <__fixunssfsi+0x56>
    3954:	90 95       	com	r25
    3956:	80 95       	com	r24
    3958:	70 95       	com	r23
    395a:	61 95       	neg	r22
    395c:	7f 4f       	sbci	r23, 0xFF	; 255
    395e:	8f 4f       	sbci	r24, 0xFF	; 255
    3960:	9f 4f       	sbci	r25, 0xFF	; 255
    3962:	08 95       	ret

00003964 <__floatunsisf>:
    3964:	e8 94       	clt
    3966:	09 c0       	rjmp	.+18     	; 0x397a <__floatsisf+0x12>

00003968 <__floatsisf>:
    3968:	97 fb       	bst	r25, 7
    396a:	3e f4       	brtc	.+14     	; 0x397a <__floatsisf+0x12>
    396c:	90 95       	com	r25
    396e:	80 95       	com	r24
    3970:	70 95       	com	r23
    3972:	61 95       	neg	r22
    3974:	7f 4f       	sbci	r23, 0xFF	; 255
    3976:	8f 4f       	sbci	r24, 0xFF	; 255
    3978:	9f 4f       	sbci	r25, 0xFF	; 255
    397a:	99 23       	and	r25, r25
    397c:	a9 f0       	breq	.+42     	; 0x39a8 <__floatsisf+0x40>
    397e:	f9 2f       	mov	r31, r25
    3980:	96 e9       	ldi	r25, 0x96	; 150
    3982:	bb 27       	eor	r27, r27
    3984:	93 95       	inc	r25
    3986:	f6 95       	lsr	r31
    3988:	87 95       	ror	r24
    398a:	77 95       	ror	r23
    398c:	67 95       	ror	r22
    398e:	b7 95       	ror	r27
    3990:	f1 11       	cpse	r31, r1
    3992:	f8 cf       	rjmp	.-16     	; 0x3984 <__floatsisf+0x1c>
    3994:	fa f4       	brpl	.+62     	; 0x39d4 <__floatsisf+0x6c>
    3996:	bb 0f       	add	r27, r27
    3998:	11 f4       	brne	.+4      	; 0x399e <__floatsisf+0x36>
    399a:	60 ff       	sbrs	r22, 0
    399c:	1b c0       	rjmp	.+54     	; 0x39d4 <__floatsisf+0x6c>
    399e:	6f 5f       	subi	r22, 0xFF	; 255
    39a0:	7f 4f       	sbci	r23, 0xFF	; 255
    39a2:	8f 4f       	sbci	r24, 0xFF	; 255
    39a4:	9f 4f       	sbci	r25, 0xFF	; 255
    39a6:	16 c0       	rjmp	.+44     	; 0x39d4 <__floatsisf+0x6c>
    39a8:	88 23       	and	r24, r24
    39aa:	11 f0       	breq	.+4      	; 0x39b0 <__floatsisf+0x48>
    39ac:	96 e9       	ldi	r25, 0x96	; 150
    39ae:	11 c0       	rjmp	.+34     	; 0x39d2 <__floatsisf+0x6a>
    39b0:	77 23       	and	r23, r23
    39b2:	21 f0       	breq	.+8      	; 0x39bc <__floatsisf+0x54>
    39b4:	9e e8       	ldi	r25, 0x8E	; 142
    39b6:	87 2f       	mov	r24, r23
    39b8:	76 2f       	mov	r23, r22
    39ba:	05 c0       	rjmp	.+10     	; 0x39c6 <__floatsisf+0x5e>
    39bc:	66 23       	and	r22, r22
    39be:	71 f0       	breq	.+28     	; 0x39dc <__floatsisf+0x74>
    39c0:	96 e8       	ldi	r25, 0x86	; 134
    39c2:	86 2f       	mov	r24, r22
    39c4:	70 e0       	ldi	r23, 0x00	; 0
    39c6:	60 e0       	ldi	r22, 0x00	; 0
    39c8:	2a f0       	brmi	.+10     	; 0x39d4 <__floatsisf+0x6c>
    39ca:	9a 95       	dec	r25
    39cc:	66 0f       	add	r22, r22
    39ce:	77 1f       	adc	r23, r23
    39d0:	88 1f       	adc	r24, r24
    39d2:	da f7       	brpl	.-10     	; 0x39ca <__floatsisf+0x62>
    39d4:	88 0f       	add	r24, r24
    39d6:	96 95       	lsr	r25
    39d8:	87 95       	ror	r24
    39da:	97 f9       	bld	r25, 7
    39dc:	08 95       	ret

000039de <__fp_inf>:
    39de:	97 f9       	bld	r25, 7
    39e0:	9f 67       	ori	r25, 0x7F	; 127
    39e2:	80 e8       	ldi	r24, 0x80	; 128
    39e4:	70 e0       	ldi	r23, 0x00	; 0
    39e6:	60 e0       	ldi	r22, 0x00	; 0
    39e8:	08 95       	ret

000039ea <__fp_nan>:
    39ea:	9f ef       	ldi	r25, 0xFF	; 255
    39ec:	80 ec       	ldi	r24, 0xC0	; 192
    39ee:	08 95       	ret

000039f0 <__fp_pscA>:
    39f0:	00 24       	eor	r0, r0
    39f2:	0a 94       	dec	r0
    39f4:	16 16       	cp	r1, r22
    39f6:	17 06       	cpc	r1, r23
    39f8:	18 06       	cpc	r1, r24
    39fa:	09 06       	cpc	r0, r25
    39fc:	08 95       	ret

000039fe <__fp_pscB>:
    39fe:	00 24       	eor	r0, r0
    3a00:	0a 94       	dec	r0
    3a02:	12 16       	cp	r1, r18
    3a04:	13 06       	cpc	r1, r19
    3a06:	14 06       	cpc	r1, r20
    3a08:	05 06       	cpc	r0, r21
    3a0a:	08 95       	ret

00003a0c <__fp_round>:
    3a0c:	09 2e       	mov	r0, r25
    3a0e:	03 94       	inc	r0
    3a10:	00 0c       	add	r0, r0
    3a12:	11 f4       	brne	.+4      	; 0x3a18 <__fp_round+0xc>
    3a14:	88 23       	and	r24, r24
    3a16:	52 f0       	brmi	.+20     	; 0x3a2c <__fp_round+0x20>
    3a18:	bb 0f       	add	r27, r27
    3a1a:	40 f4       	brcc	.+16     	; 0x3a2c <__fp_round+0x20>
    3a1c:	bf 2b       	or	r27, r31
    3a1e:	11 f4       	brne	.+4      	; 0x3a24 <__fp_round+0x18>
    3a20:	60 ff       	sbrs	r22, 0
    3a22:	04 c0       	rjmp	.+8      	; 0x3a2c <__fp_round+0x20>
    3a24:	6f 5f       	subi	r22, 0xFF	; 255
    3a26:	7f 4f       	sbci	r23, 0xFF	; 255
    3a28:	8f 4f       	sbci	r24, 0xFF	; 255
    3a2a:	9f 4f       	sbci	r25, 0xFF	; 255
    3a2c:	08 95       	ret

00003a2e <__fp_split3>:
    3a2e:	57 fd       	sbrc	r21, 7
    3a30:	90 58       	subi	r25, 0x80	; 128
    3a32:	44 0f       	add	r20, r20
    3a34:	55 1f       	adc	r21, r21
    3a36:	59 f0       	breq	.+22     	; 0x3a4e <__fp_splitA+0x10>
    3a38:	5f 3f       	cpi	r21, 0xFF	; 255
    3a3a:	71 f0       	breq	.+28     	; 0x3a58 <__fp_splitA+0x1a>
    3a3c:	47 95       	ror	r20

00003a3e <__fp_splitA>:
    3a3e:	88 0f       	add	r24, r24
    3a40:	97 fb       	bst	r25, 7
    3a42:	99 1f       	adc	r25, r25
    3a44:	61 f0       	breq	.+24     	; 0x3a5e <__fp_splitA+0x20>
    3a46:	9f 3f       	cpi	r25, 0xFF	; 255
    3a48:	79 f0       	breq	.+30     	; 0x3a68 <__fp_splitA+0x2a>
    3a4a:	87 95       	ror	r24
    3a4c:	08 95       	ret
    3a4e:	12 16       	cp	r1, r18
    3a50:	13 06       	cpc	r1, r19
    3a52:	14 06       	cpc	r1, r20
    3a54:	55 1f       	adc	r21, r21
    3a56:	f2 cf       	rjmp	.-28     	; 0x3a3c <__fp_split3+0xe>
    3a58:	46 95       	lsr	r20
    3a5a:	f1 df       	rcall	.-30     	; 0x3a3e <__fp_splitA>
    3a5c:	08 c0       	rjmp	.+16     	; 0x3a6e <__fp_splitA+0x30>
    3a5e:	16 16       	cp	r1, r22
    3a60:	17 06       	cpc	r1, r23
    3a62:	18 06       	cpc	r1, r24
    3a64:	99 1f       	adc	r25, r25
    3a66:	f1 cf       	rjmp	.-30     	; 0x3a4a <__fp_splitA+0xc>
    3a68:	86 95       	lsr	r24
    3a6a:	71 05       	cpc	r23, r1
    3a6c:	61 05       	cpc	r22, r1
    3a6e:	08 94       	sec
    3a70:	08 95       	ret

00003a72 <__fp_zero>:
    3a72:	e8 94       	clt

00003a74 <__fp_szero>:
    3a74:	bb 27       	eor	r27, r27
    3a76:	66 27       	eor	r22, r22
    3a78:	77 27       	eor	r23, r23
    3a7a:	cb 01       	movw	r24, r22
    3a7c:	97 f9       	bld	r25, 7
    3a7e:	08 95       	ret

00003a80 <__udivmodhi4>:
    3a80:	aa 1b       	sub	r26, r26
    3a82:	bb 1b       	sub	r27, r27
    3a84:	51 e1       	ldi	r21, 0x11	; 17
    3a86:	07 c0       	rjmp	.+14     	; 0x3a96 <__udivmodhi4_ep>

00003a88 <__udivmodhi4_loop>:
    3a88:	aa 1f       	adc	r26, r26
    3a8a:	bb 1f       	adc	r27, r27
    3a8c:	a6 17       	cp	r26, r22
    3a8e:	b7 07       	cpc	r27, r23
    3a90:	10 f0       	brcs	.+4      	; 0x3a96 <__udivmodhi4_ep>
    3a92:	a6 1b       	sub	r26, r22
    3a94:	b7 0b       	sbc	r27, r23

00003a96 <__udivmodhi4_ep>:
    3a96:	88 1f       	adc	r24, r24
    3a98:	99 1f       	adc	r25, r25
    3a9a:	5a 95       	dec	r21
    3a9c:	a9 f7       	brne	.-22     	; 0x3a88 <__udivmodhi4_loop>
    3a9e:	80 95       	com	r24
    3aa0:	90 95       	com	r25
    3aa2:	bc 01       	movw	r22, r24
    3aa4:	cd 01       	movw	r24, r26
    3aa6:	08 95       	ret

00003aa8 <__divmodhi4>:
    3aa8:	97 fb       	bst	r25, 7
    3aaa:	07 2e       	mov	r0, r23
    3aac:	16 f4       	brtc	.+4      	; 0x3ab2 <__divmodhi4+0xa>
    3aae:	00 94       	com	r0
    3ab0:	06 d0       	rcall	.+12     	; 0x3abe <__divmodhi4_neg1>
    3ab2:	77 fd       	sbrc	r23, 7
    3ab4:	08 d0       	rcall	.+16     	; 0x3ac6 <__divmodhi4_neg2>
    3ab6:	e4 df       	rcall	.-56     	; 0x3a80 <__udivmodhi4>
    3ab8:	07 fc       	sbrc	r0, 7
    3aba:	05 d0       	rcall	.+10     	; 0x3ac6 <__divmodhi4_neg2>
    3abc:	3e f4       	brtc	.+14     	; 0x3acc <__divmodhi4_exit>

00003abe <__divmodhi4_neg1>:
    3abe:	90 95       	com	r25
    3ac0:	81 95       	neg	r24
    3ac2:	9f 4f       	sbci	r25, 0xFF	; 255
    3ac4:	08 95       	ret

00003ac6 <__divmodhi4_neg2>:
    3ac6:	70 95       	com	r23
    3ac8:	61 95       	neg	r22
    3aca:	7f 4f       	sbci	r23, 0xFF	; 255

00003acc <__divmodhi4_exit>:
    3acc:	08 95       	ret

00003ace <__tablejump2__>:
    3ace:	ee 0f       	add	r30, r30
    3ad0:	ff 1f       	adc	r31, r31
    3ad2:	00 24       	eor	r0, r0
    3ad4:	00 1c       	adc	r0, r0
    3ad6:	0b be       	out	0x3b, r0	; 59
    3ad8:	07 90       	elpm	r0, Z+
    3ada:	f6 91       	elpm	r31, Z
    3adc:	e0 2d       	mov	r30, r0
    3ade:	09 94       	ijmp

00003ae0 <__umulhisi3>:
    3ae0:	a2 9f       	mul	r26, r18
    3ae2:	b0 01       	movw	r22, r0
    3ae4:	b3 9f       	mul	r27, r19
    3ae6:	c0 01       	movw	r24, r0
    3ae8:	a3 9f       	mul	r26, r19
    3aea:	70 0d       	add	r23, r0
    3aec:	81 1d       	adc	r24, r1
    3aee:	11 24       	eor	r1, r1
    3af0:	91 1d       	adc	r25, r1
    3af2:	b2 9f       	mul	r27, r18
    3af4:	70 0d       	add	r23, r0
    3af6:	81 1d       	adc	r24, r1
    3af8:	11 24       	eor	r1, r1
    3afa:	91 1d       	adc	r25, r1
    3afc:	08 95       	ret

00003afe <_exit>:
    3afe:	f8 94       	cli

00003b00 <__stop_program>:
    3b00:	ff cf       	rjmp	.-2      	; 0x3b00 <__stop_program>
