
DIC_23.elf:     file format elf32-avr

Sections:
Idx Name          Size      VMA       LMA       File off  Algn
  0 .data         00000158  00800100  00003620  000036b4  2**0
                  CONTENTS, ALLOC, LOAD, DATA
  1 .text         00003620  00000000  00000000  00000094  2**1
                  CONTENTS, ALLOC, LOAD, READONLY, CODE
  2 .bss          00000100  00800258  00800258  0000380c  2**0
                  ALLOC
  3 .comment      00000030  00000000  00000000  0000380c  2**0
                  CONTENTS, READONLY
  4 .note.gnu.avr.deviceinfo 00000040  00000000  00000000  0000383c  2**2
                  CONTENTS, READONLY
  5 .debug_aranges 00000100  00000000  00000000  0000387c  2**0
                  CONTENTS, READONLY, DEBUGGING
  6 .debug_info   0000221d  00000000  00000000  0000397c  2**0
                  CONTENTS, READONLY, DEBUGGING
  7 .debug_abbrev 0000118f  00000000  00000000  00005b99  2**0
                  CONTENTS, READONLY, DEBUGGING
  8 .debug_line   0000195d  00000000  00000000  00006d28  2**0
                  CONTENTS, READONLY, DEBUGGING
  9 .debug_frame  000007b8  00000000  00000000  00008688  2**2
                  CONTENTS, READONLY, DEBUGGING
 10 .debug_str    00000e77  00000000  00000000  00008e40  2**0
                  CONTENTS, READONLY, DEBUGGING
 11 .debug_loc    00000f5e  00000000  00000000  00009cb7  2**0
                  CONTENTS, READONLY, DEBUGGING

Disassembly of section .text:

00000000 <__vectors>:
       0:	97 c0       	rjmp	.+302    	; 0x130 <__ctors_end>
       2:	00 00       	nop
       4:	b4 c0       	rjmp	.+360    	; 0x16e <__bad_interrupt>
       6:	00 00       	nop
       8:	b2 c0       	rjmp	.+356    	; 0x16e <__bad_interrupt>
       a:	00 00       	nop
       c:	b0 c0       	rjmp	.+352    	; 0x16e <__bad_interrupt>
       e:	00 00       	nop
      10:	ae c0       	rjmp	.+348    	; 0x16e <__bad_interrupt>
      12:	00 00       	nop
      14:	ac c0       	rjmp	.+344    	; 0x16e <__bad_interrupt>
      16:	00 00       	nop
      18:	aa c0       	rjmp	.+340    	; 0x16e <__bad_interrupt>
      1a:	00 00       	nop
      1c:	a8 c0       	rjmp	.+336    	; 0x16e <__bad_interrupt>
      1e:	00 00       	nop
      20:	a6 c0       	rjmp	.+332    	; 0x16e <__bad_interrupt>
      22:	00 00       	nop
      24:	a4 c0       	rjmp	.+328    	; 0x16e <__bad_interrupt>
      26:	00 00       	nop
      28:	a2 c0       	rjmp	.+324    	; 0x16e <__bad_interrupt>
      2a:	00 00       	nop
      2c:	a0 c0       	rjmp	.+320    	; 0x16e <__bad_interrupt>
      2e:	00 00       	nop
      30:	9e c0       	rjmp	.+316    	; 0x16e <__bad_interrupt>
      32:	00 00       	nop
      34:	9c c0       	rjmp	.+312    	; 0x16e <__bad_interrupt>
      36:	00 00       	nop
      38:	9a c0       	rjmp	.+308    	; 0x16e <__bad_interrupt>
      3a:	00 00       	nop
      3c:	98 c0       	rjmp	.+304    	; 0x16e <__bad_interrupt>
      3e:	00 00       	nop
      40:	0c 94 9c 1a 	jmp	0x3538	; 0x3538 <__vector_16>
      44:	94 c0       	rjmp	.+296    	; 0x16e <__bad_interrupt>
      46:	00 00       	nop
      48:	92 c0       	rjmp	.+292    	; 0x16e <__bad_interrupt>
      4a:	00 00       	nop
      4c:	90 c0       	rjmp	.+288    	; 0x16e <__bad_interrupt>
      4e:	00 00       	nop
      50:	0c 94 c5 15 	jmp	0x2b8a	; 0x2b8a <__vector_20>
      54:	8c c0       	rjmp	.+280    	; 0x16e <__bad_interrupt>
      56:	00 00       	nop
      58:	8a c0       	rjmp	.+276    	; 0x16e <__bad_interrupt>
      5a:	00 00       	nop
      5c:	88 c0       	rjmp	.+272    	; 0x16e <__bad_interrupt>
      5e:	00 00       	nop
      60:	86 c0       	rjmp	.+268    	; 0x16e <__bad_interrupt>
      62:	00 00       	nop
      64:	84 c0       	rjmp	.+264    	; 0x16e <__bad_interrupt>
      66:	00 00       	nop
      68:	82 c0       	rjmp	.+260    	; 0x16e <__bad_interrupt>
      6a:	00 00       	nop
      6c:	80 c0       	rjmp	.+256    	; 0x16e <__bad_interrupt>
      6e:	00 00       	nop
      70:	7e c0       	rjmp	.+252    	; 0x16e <__bad_interrupt>
      72:	00 00       	nop
      74:	7c c0       	rjmp	.+248    	; 0x16e <__bad_interrupt>
      76:	00 00       	nop
      78:	7a c0       	rjmp	.+244    	; 0x16e <__bad_interrupt>
      7a:	00 00       	nop
      7c:	78 c0       	rjmp	.+240    	; 0x16e <__bad_interrupt>
      7e:	00 00       	nop
      80:	76 c0       	rjmp	.+236    	; 0x16e <__bad_interrupt>
      82:	00 00       	nop
      84:	74 c0       	rjmp	.+232    	; 0x16e <__bad_interrupt>
      86:	00 00       	nop
      88:	72 c0       	rjmp	.+228    	; 0x16e <__bad_interrupt>
      8a:	00 00       	nop
      8c:	70 c0       	rjmp	.+224    	; 0x16e <__bad_interrupt>
      8e:	00 00       	nop
      90:	6e c0       	rjmp	.+220    	; 0x16e <__bad_interrupt>
      92:	00 00       	nop
      94:	ff 10       	cpse	r15, r15
      96:	20 11       	cpse	r18, r0
      98:	41 11       	cpse	r20, r1
      9a:	62 11       	cpse	r22, r2
      9c:	83 11       	cpse	r24, r3
      9e:	a4 11       	cpse	r26, r4
      a0:	c5 11       	cpse	r28, r5
      a2:	e6 11       	cpse	r30, r6
      a4:	07 12       	cpse	r0, r23
      a6:	28 12       	cpse	r2, r24
      a8:	49 12       	cpse	r4, r25
      aa:	6a 12       	cpse	r6, r26
      ac:	8b 12       	cpse	r8, r27
      ae:	ac 12       	cpse	r10, r28
      b0:	17 13       	cpse	r17, r23
      b2:	20 13       	cpse	r18, r16
      b4:	29 13       	cpse	r18, r25
      b6:	32 13       	cpse	r19, r18
      b8:	3b 13       	cpse	r19, r27
      ba:	44 13       	cpse	r20, r20
      bc:	4d 13       	cpse	r20, r29
      be:	56 13       	cpse	r21, r22
      c0:	5f 13       	cpse	r21, r31
      c2:	68 13       	cpse	r22, r24
      c4:	57 16       	cp	r5, r23
      c6:	65 16       	cp	r6, r21
      c8:	5e 16       	cp	r5, r30
      ca:	7a 16       	cp	r7, r26
      cc:	6c 16       	cp	r6, r28
      ce:	73 16       	cp	r7, r19
      d0:	88 16       	cp	r8, r24
      d2:	81 16       	cp	r8, r17
      d4:	ae 16       	cp	r10, r30
      d6:	b6 16       	cp	r11, r22
      d8:	b2 16       	cp	r11, r18
      da:	c2 16       	cp	r12, r18
      dc:	ba 16       	cp	r11, r26
      de:	be 16       	cp	r11, r30
      e0:	ca 16       	cp	r12, r26
      e2:	c6 16       	cp	r12, r22
      e4:	ed 16       	cp	r14, r29
      e6:	f5 16       	cp	r15, r21
      e8:	f1 16       	cp	r15, r17
      ea:	01 17       	cp	r16, r17
      ec:	f9 16       	cp	r15, r25
      ee:	fd 16       	cp	r15, r29
      f0:	09 17       	cp	r16, r25
      f2:	05 17       	cp	r16, r21
      f4:	72 18       	sub	r7, r2
      f6:	7c 18       	sub	r7, r12
      f8:	86 18       	sub	r8, r6
      fa:	90 18       	sub	r9, r0
      fc:	9a 18       	sub	r9, r10
      fe:	a4 18       	sub	r10, r4
     100:	ae 18       	sub	r10, r14
     102:	b8 18       	sub	r11, r8
     104:	c2 18       	sub	r12, r2
     106:	cc 18       	sub	r12, r12
     108:	d6 18       	sub	r13, r6
     10a:	e0 18       	sub	r14, r0
     10c:	ea 18       	sub	r14, r10
     10e:	f4 18       	sub	r15, r4
     110:	fe 18       	sub	r15, r14
     112:	28 19       	sub	r18, r8
     114:	32 19       	sub	r19, r2
     116:	3c 19       	sub	r19, r12
     118:	46 19       	sub	r20, r6
     11a:	50 19       	sub	r21, r0
     11c:	5a 19       	sub	r21, r10
     11e:	64 19       	sub	r22, r4
     120:	6e 19       	sub	r22, r14
     122:	78 19       	sub	r23, r8
     124:	82 19       	sub	r24, r2
     126:	8c 19       	sub	r24, r12
     128:	96 19       	sub	r25, r6
     12a:	a0 19       	sub	r26, r0
     12c:	aa 19       	sub	r26, r10
     12e:	b4 19       	sub	r27, r4

00000130 <__ctors_end>:
     130:	11 24       	eor	r1, r1
     132:	1f be       	out	0x3f, r1	; 63
     134:	cf ef       	ldi	r28, 0xFF	; 255
     136:	d0 e1       	ldi	r29, 0x10	; 16
     138:	de bf       	out	0x3e, r29	; 62
     13a:	cd bf       	out	0x3d, r28	; 61

0000013c <__do_copy_data>:
     13c:	12 e0       	ldi	r17, 0x02	; 2
     13e:	a0 e0       	ldi	r26, 0x00	; 0
     140:	b1 e0       	ldi	r27, 0x01	; 1
     142:	e0 e2       	ldi	r30, 0x20	; 32
     144:	f6 e3       	ldi	r31, 0x36	; 54
     146:	00 e0       	ldi	r16, 0x00	; 0
     148:	0b bf       	out	0x3b, r16	; 59
     14a:	02 c0       	rjmp	.+4      	; 0x150 <__do_copy_data+0x14>
     14c:	07 90       	elpm	r0, Z+
     14e:	0d 92       	st	X+, r0
     150:	a8 35       	cpi	r26, 0x58	; 88
     152:	b1 07       	cpc	r27, r17
     154:	d9 f7       	brne	.-10     	; 0x14c <__do_copy_data+0x10>

00000156 <__do_clear_bss>:
     156:	23 e0       	ldi	r18, 0x03	; 3
     158:	a8 e5       	ldi	r26, 0x58	; 88
     15a:	b2 e0       	ldi	r27, 0x02	; 2
     15c:	01 c0       	rjmp	.+2      	; 0x160 <.do_clear_bss_start>

0000015e <.do_clear_bss_loop>:
     15e:	1d 92       	st	X+, r1

00000160 <.do_clear_bss_start>:
     160:	a8 35       	cpi	r26, 0x58	; 88
     162:	b2 07       	cpc	r27, r18
     164:	e1 f7       	brne	.-8      	; 0x15e <.do_clear_bss_loop>
     166:	0e 94 b9 13 	call	0x2772	; 0x2772 <main>
     16a:	0c 94 0e 1b 	jmp	0x361c	; 0x361c <_exit>

0000016e <__bad_interrupt>:
     16e:	48 cf       	rjmp	.-368    	; 0x0 <__vectors>

00000170 <init_mobs>:
// 0: MCU Temperature
struct CAN_MOB inv11_mob;



void init_mobs(){
     170:	cf 93       	push	r28
     172:	df 93       	push	r29
     174:	cd b7       	in	r28, 0x3d	; 61
     176:	de b7       	in	r29, 0x3e	; 62
	
	ams0_mob.mob_id = AMS_0_MOB_ID;
     178:	80 e0       	ldi	r24, 0x00	; 0
     17a:	92 e0       	ldi	r25, 0x02	; 2
     17c:	90 93 e9 02 	sts	0x02E9, r25	; 0x8002e9 <ams0_mob+0x1>
     180:	80 93 e8 02 	sts	0x02E8, r24	; 0x8002e8 <ams0_mob>
	ams0_mob.mob_idmask = 0xffff;
     184:	8f ef       	ldi	r24, 0xFF	; 255
     186:	9f ef       	ldi	r25, 0xFF	; 255
     188:	90 93 eb 02 	sts	0x02EB, r25	; 0x8002eb <ams0_mob+0x3>
     18c:	80 93 ea 02 	sts	0x02EA, r24	; 0x8002ea <ams0_mob+0x2>
	ams0_mob.mob_number = 0;
     190:	10 92 ed 02 	sts	0x02ED, r1	; 0x8002ed <ams0_mob+0x5>
     194:	10 92 ec 02 	sts	0x02EC, r1	; 0x8002ec <ams0_mob+0x4>
	
	ams1_mob.mob_id = AMS_1_MOB_ID;
     198:	81 e0       	ldi	r24, 0x01	; 1
     19a:	92 e0       	ldi	r25, 0x02	; 2
     19c:	90 93 d1 02 	sts	0x02D1, r25	; 0x8002d1 <ams1_mob+0x1>
     1a0:	80 93 d0 02 	sts	0x02D0, r24	; 0x8002d0 <ams1_mob>
	ams1_mob.mob_idmask = 0xffff;
     1a4:	8f ef       	ldi	r24, 0xFF	; 255
     1a6:	9f ef       	ldi	r25, 0xFF	; 255
     1a8:	90 93 d3 02 	sts	0x02D3, r25	; 0x8002d3 <ams1_mob+0x3>
     1ac:	80 93 d2 02 	sts	0x02D2, r24	; 0x8002d2 <ams1_mob+0x2>
	ams1_mob.mob_number = 1;
     1b0:	81 e0       	ldi	r24, 0x01	; 1
     1b2:	90 e0       	ldi	r25, 0x00	; 0
     1b4:	90 93 d5 02 	sts	0x02D5, r25	; 0x8002d5 <ams1_mob+0x5>
     1b8:	80 93 d4 02 	sts	0x02D4, r24	; 0x8002d4 <ams1_mob+0x4>
	
	shr_mob.mob_id = SHR_MOB_ID;
     1bc:	80 e0       	ldi	r24, 0x00	; 0
     1be:	94 e0       	ldi	r25, 0x04	; 4
     1c0:	90 93 b9 02 	sts	0x02B9, r25	; 0x8002b9 <shr_mob+0x1>
     1c4:	80 93 b8 02 	sts	0x02B8, r24	; 0x8002b8 <shr_mob>
	shr_mob.mob_idmask = 0xffff;
     1c8:	8f ef       	ldi	r24, 0xFF	; 255
     1ca:	9f ef       	ldi	r25, 0xFF	; 255
     1cc:	90 93 bb 02 	sts	0x02BB, r25	; 0x8002bb <shr_mob+0x3>
     1d0:	80 93 ba 02 	sts	0x02BA, r24	; 0x8002ba <shr_mob+0x2>
	shr_mob.mob_number = 2;
     1d4:	82 e0       	ldi	r24, 0x02	; 2
     1d6:	90 e0       	ldi	r25, 0x00	; 0
     1d8:	90 93 bd 02 	sts	0x02BD, r25	; 0x8002bd <shr_mob+0x5>
     1dc:	80 93 bc 02 	sts	0x02BC, r24	; 0x8002bc <shr_mob+0x4>
	
	shl_mob.mob_id = SHL_MOB_ID;
     1e0:	80 e1       	ldi	r24, 0x10	; 16
     1e2:	94 e0       	ldi	r25, 0x04	; 4
     1e4:	90 93 e3 02 	sts	0x02E3, r25	; 0x8002e3 <shl_mob+0x1>
     1e8:	80 93 e2 02 	sts	0x02E2, r24	; 0x8002e2 <shl_mob>
	shl_mob.mob_idmask = 0xffff;
     1ec:	8f ef       	ldi	r24, 0xFF	; 255
     1ee:	9f ef       	ldi	r25, 0xFF	; 255
     1f0:	90 93 e5 02 	sts	0x02E5, r25	; 0x8002e5 <shl_mob+0x3>
     1f4:	80 93 e4 02 	sts	0x02E4, r24	; 0x8002e4 <shl_mob+0x2>
	shl_mob.mob_number = 3;
     1f8:	83 e0       	ldi	r24, 0x03	; 3
     1fa:	90 e0       	ldi	r25, 0x00	; 0
     1fc:	90 93 e7 02 	sts	0x02E7, r25	; 0x8002e7 <shl_mob+0x5>
     200:	80 93 e6 02 	sts	0x02E6, r24	; 0x8002e6 <shl_mob+0x4>
	
	shb_mob.mob_id = SHB_MOB_ID;
     204:	80 e2       	ldi	r24, 0x20	; 32
     206:	94 e0       	ldi	r25, 0x04	; 4
     208:	90 93 c5 02 	sts	0x02C5, r25	; 0x8002c5 <shb_mob+0x1>
     20c:	80 93 c4 02 	sts	0x02C4, r24	; 0x8002c4 <shb_mob>
	shb_mob.mob_idmask = 0xffff;
     210:	8f ef       	ldi	r24, 0xFF	; 255
     212:	9f ef       	ldi	r25, 0xFF	; 255
     214:	90 93 c7 02 	sts	0x02C7, r25	; 0x8002c7 <shb_mob+0x3>
     218:	80 93 c6 02 	sts	0x02C6, r24	; 0x8002c6 <shb_mob+0x2>
	shb_mob.mob_number = 4;
     21c:	84 e0       	ldi	r24, 0x04	; 4
     21e:	90 e0       	ldi	r25, 0x00	; 0
     220:	90 93 c9 02 	sts	0x02C9, r25	; 0x8002c9 <shb_mob+0x5>
     224:	80 93 c8 02 	sts	0x02C8, r24	; 0x8002c8 <shb_mob+0x4>
	
	dic_mob.mob_id = DIC_MOB_ID;
     228:	80 e0       	ldi	r24, 0x00	; 0
     22a:	95 e0       	ldi	r25, 0x05	; 5
     22c:	90 93 ad 02 	sts	0x02AD, r25	; 0x8002ad <dic_mob+0x1>
     230:	80 93 ac 02 	sts	0x02AC, r24	; 0x8002ac <dic_mob>
	dic_mob.mob_idmask = 0xffff;
     234:	8f ef       	ldi	r24, 0xFF	; 255
     236:	9f ef       	ldi	r25, 0xFF	; 255
     238:	90 93 af 02 	sts	0x02AF, r25	; 0x8002af <dic_mob+0x3>
     23c:	80 93 ae 02 	sts	0x02AE, r24	; 0x8002ae <dic_mob+0x2>
	dic_mob.mob_number = 5;
     240:	85 e0       	ldi	r24, 0x05	; 5
     242:	90 e0       	ldi	r25, 0x00	; 0
     244:	90 93 b1 02 	sts	0x02B1, r25	; 0x8002b1 <dic_mob+0x5>
     248:	80 93 b0 02 	sts	0x02B0, r24	; 0x8002b0 <dic_mob+0x4>
	
	fusebox_mob.mob_id = FUSEBOX_MOB_ID;
     24c:	80 e0       	ldi	r24, 0x00	; 0
     24e:	96 e0       	ldi	r25, 0x06	; 6
     250:	90 93 4f 03 	sts	0x034F, r25	; 0x80034f <fusebox_mob+0x1>
     254:	80 93 4e 03 	sts	0x034E, r24	; 0x80034e <fusebox_mob>
	fusebox_mob.mob_idmask = 0xffff;
     258:	8f ef       	ldi	r24, 0xFF	; 255
     25a:	9f ef       	ldi	r25, 0xFF	; 255
     25c:	90 93 51 03 	sts	0x0351, r25	; 0x800351 <fusebox_mob+0x3>
     260:	80 93 50 03 	sts	0x0350, r24	; 0x800350 <fusebox_mob+0x2>
	fusebox_mob.mob_number = 6;
     264:	86 e0       	ldi	r24, 0x06	; 6
     266:	90 e0       	ldi	r25, 0x00	; 0
     268:	90 93 53 03 	sts	0x0353, r25	; 0x800353 <fusebox_mob+0x5>
     26c:	80 93 52 03 	sts	0x0352, r24	; 0x800352 <fusebox_mob+0x4>
	
	swc_mob.mob_id = SWC_MOB_ID;
     270:	80 e5       	ldi	r24, 0x50	; 80
     272:	97 e0       	ldi	r25, 0x07	; 7
     274:	90 93 b3 02 	sts	0x02B3, r25	; 0x8002b3 <swc_mob+0x1>
     278:	80 93 b2 02 	sts	0x02B2, r24	; 0x8002b2 <swc_mob>
	swc_mob.mob_idmask = 0xffff;
     27c:	8f ef       	ldi	r24, 0xFF	; 255
     27e:	9f ef       	ldi	r25, 0xFF	; 255
     280:	90 93 b5 02 	sts	0x02B5, r25	; 0x8002b5 <swc_mob+0x3>
     284:	80 93 b4 02 	sts	0x02B4, r24	; 0x8002b4 <swc_mob+0x2>
	swc_mob.mob_number = 7;
     288:	87 e0       	ldi	r24, 0x07	; 7
     28a:	90 e0       	ldi	r25, 0x00	; 0
     28c:	90 93 b7 02 	sts	0x02B7, r25	; 0x8002b7 <swc_mob+0x5>
     290:	80 93 b6 02 	sts	0x02B6, r24	; 0x8002b6 <swc_mob+0x4>
	
	
	inv00_mob.mob_id = INV0_0_MOB_ID;
     294:	10 92 bf 02 	sts	0x02BF, r1	; 0x8002bf <inv00_mob+0x1>
     298:	10 92 be 02 	sts	0x02BE, r1	; 0x8002be <inv00_mob>
	inv00_mob.mob_idmask = 0xffff;
     29c:	8f ef       	ldi	r24, 0xFF	; 255
     29e:	9f ef       	ldi	r25, 0xFF	; 255
     2a0:	90 93 c1 02 	sts	0x02C1, r25	; 0x8002c1 <inv00_mob+0x3>
     2a4:	80 93 c0 02 	sts	0x02C0, r24	; 0x8002c0 <inv00_mob+0x2>
	inv00_mob.mob_number = 8;
     2a8:	88 e0       	ldi	r24, 0x08	; 8
     2aa:	90 e0       	ldi	r25, 0x00	; 0
     2ac:	90 93 c3 02 	sts	0x02C3, r25	; 0x8002c3 <inv00_mob+0x5>
     2b0:	80 93 c2 02 	sts	0x02C2, r24	; 0x8002c2 <inv00_mob+0x4>
	
	inv01_mob.mob_id = INV0_1_MOB_ID;
     2b4:	8a e5       	ldi	r24, 0x5A	; 90
     2b6:	94 e0       	ldi	r25, 0x04	; 4
     2b8:	90 93 dd 02 	sts	0x02DD, r25	; 0x8002dd <inv01_mob+0x1>
     2bc:	80 93 dc 02 	sts	0x02DC, r24	; 0x8002dc <inv01_mob>
	inv01_mob.mob_idmask = 0xffff;
     2c0:	8f ef       	ldi	r24, 0xFF	; 255
     2c2:	9f ef       	ldi	r25, 0xFF	; 255
     2c4:	90 93 df 02 	sts	0x02DF, r25	; 0x8002df <inv01_mob+0x3>
     2c8:	80 93 de 02 	sts	0x02DE, r24	; 0x8002de <inv01_mob+0x2>
	inv01_mob.mob_number = 9;
     2cc:	89 e0       	ldi	r24, 0x09	; 9
     2ce:	90 e0       	ldi	r25, 0x00	; 0
     2d0:	90 93 e1 02 	sts	0x02E1, r25	; 0x8002e1 <inv01_mob+0x5>
     2d4:	80 93 e0 02 	sts	0x02E0, r24	; 0x8002e0 <inv01_mob+0x4>
	
	inv10_mob.mob_id = INV0_1_MOB_ID;
     2d8:	8a e5       	ldi	r24, 0x5A	; 90
     2da:	94 e0       	ldi	r25, 0x04	; 4
     2dc:	90 93 cb 02 	sts	0x02CB, r25	; 0x8002cb <inv10_mob+0x1>
     2e0:	80 93 ca 02 	sts	0x02CA, r24	; 0x8002ca <inv10_mob>
	inv10_mob.mob_idmask = 0xffff;
     2e4:	8f ef       	ldi	r24, 0xFF	; 255
     2e6:	9f ef       	ldi	r25, 0xFF	; 255
     2e8:	90 93 cd 02 	sts	0x02CD, r25	; 0x8002cd <inv10_mob+0x3>
     2ec:	80 93 cc 02 	sts	0x02CC, r24	; 0x8002cc <inv10_mob+0x2>
	inv10_mob.mob_number = 10;
     2f0:	8a e0       	ldi	r24, 0x0A	; 10
     2f2:	90 e0       	ldi	r25, 0x00	; 0
     2f4:	90 93 cf 02 	sts	0x02CF, r25	; 0x8002cf <inv10_mob+0x5>
     2f8:	80 93 ce 02 	sts	0x02CE, r24	; 0x8002ce <inv10_mob+0x4>
	
	inv11_mob.mob_id = INV1_1_MOB_ID;
     2fc:	8a e4       	ldi	r24, 0x4A	; 74
     2fe:	94 e0       	ldi	r25, 0x04	; 4
     300:	90 93 d7 02 	sts	0x02D7, r25	; 0x8002d7 <inv11_mob+0x1>
     304:	80 93 d6 02 	sts	0x02D6, r24	; 0x8002d6 <inv11_mob>
	inv11_mob.mob_idmask = 0xffff;
     308:	8f ef       	ldi	r24, 0xFF	; 255
     30a:	9f ef       	ldi	r25, 0xFF	; 255
     30c:	90 93 d9 02 	sts	0x02D9, r25	; 0x8002d9 <inv11_mob+0x3>
     310:	80 93 d8 02 	sts	0x02D8, r24	; 0x8002d8 <inv11_mob+0x2>
	inv11_mob.mob_number = 11;
     314:	8b e0       	ldi	r24, 0x0B	; 11
     316:	90 e0       	ldi	r25, 0x00	; 0
     318:	90 93 db 02 	sts	0x02DB, r25	; 0x8002db <inv11_mob+0x5>
     31c:	80 93 da 02 	sts	0x02DA, r24	; 0x8002da <inv11_mob+0x4>
	
	
	
}
     320:	00 00       	nop
     322:	df 91       	pop	r29
     324:	cf 91       	pop	r28
     326:	08 95       	ret

00000328 <can_receive>:

void can_receive(){
     328:	cf 93       	push	r28
     32a:	df 93       	push	r29
     32c:	1f 92       	push	r1
     32e:	cd b7       	in	r28, 0x3d	; 61
     330:	de b7       	in	r29, 0x3e	; 62
	
	can_rx(&ams0_mob, mob_databytes[AMS0_DATA]);
     332:	6e ee       	ldi	r22, 0xEE	; 238
     334:	72 e0       	ldi	r23, 0x02	; 2
     336:	88 ee       	ldi	r24, 0xE8	; 232
     338:	92 e0       	ldi	r25, 0x02	; 2
     33a:	33 d3       	rcall	.+1638   	; 0x9a2 <can_rx>
	uint8_t ams_counter = mob_databytes[AMS0_DATA][7];
     33c:	80 91 f5 02 	lds	r24, 0x02F5	; 0x8002f5 <mob_databytes+0x7>
     340:	89 83       	std	Y+1, r24	; 0x01
	if (ams_counter == last_ams_counter){
     342:	80 91 a0 02 	lds	r24, 0x02A0	; 0x8002a0 <last_ams_counter>
     346:	99 81       	ldd	r25, Y+1	; 0x01
     348:	98 17       	cp	r25, r24
     34a:	31 f4       	brne	.+12     	; 0x358 <can_receive+0x30>
		ams_error_counter++;
     34c:	80 91 9f 02 	lds	r24, 0x029F	; 0x80029f <ams_error_counter>
     350:	8f 5f       	subi	r24, 0xFF	; 255
     352:	80 93 9f 02 	sts	0x029F, r24	; 0x80029f <ams_error_counter>
     356:	02 c0       	rjmp	.+4      	; 0x35c <can_receive+0x34>
	} else {
		ams_error_counter = 0;
     358:	10 92 9f 02 	sts	0x029F, r1	; 0x80029f <ams_error_counter>
	}
	last_ams_counter = ams_counter;			// AMS error muss 100 mal kommen, dann dann leuchtet led bar 
     35c:	89 81       	ldd	r24, Y+1	; 0x01
     35e:	80 93 a0 02 	sts	0x02A0, r24	; 0x8002a0 <last_ams_counter>
	if (ams_error_counter > 100  || ams_error != 0){
     362:	80 91 9f 02 	lds	r24, 0x029F	; 0x80029f <ams_error_counter>
     366:	85 36       	cpi	r24, 0x65	; 101
     368:	20 f4       	brcc	.+8      	; 0x372 <can_receive+0x4a>
     36a:	80 91 5e 02 	lds	r24, 0x025E	; 0x80025e <ams_error>
     36e:	88 23       	and	r24, r24
     370:	21 f0       	breq	.+8      	; 0x37a <can_receive+0x52>
		//LED anschalten
		bms_error(1);
     372:	81 e0       	ldi	r24, 0x01	; 1
     374:	0e 94 c3 19 	call	0x3386	; 0x3386 <bms_error>
     378:	03 c0       	rjmp	.+6      	; 0x380 <can_receive+0x58>
	} else {
		bms_error(0);
     37a:	80 e0       	ldi	r24, 0x00	; 0
     37c:	0e 94 c3 19 	call	0x3386	; 0x3386 <bms_error>
	}
	
	can_rx(&ams1_mob, mob_databytes[AMS1_DATA]);
     380:	66 ef       	ldi	r22, 0xF6	; 246
     382:	72 e0       	ldi	r23, 0x02	; 2
     384:	80 ed       	ldi	r24, 0xD0	; 208
     386:	92 e0       	ldi	r25, 0x02	; 2
     388:	0c d3       	rcall	.+1560   	; 0x9a2 <can_rx>
	can_rx(&shr_mob, mob_databytes[SHR_DATA]);
     38a:	6e ef       	ldi	r22, 0xFE	; 254
     38c:	72 e0       	ldi	r23, 0x02	; 2
     38e:	88 eb       	ldi	r24, 0xB8	; 184
     390:	92 e0       	ldi	r25, 0x02	; 2
     392:	07 d3       	rcall	.+1550   	; 0x9a2 <can_rx>
	can_rx(&shl_mob, mob_databytes[SHL_DATA]);
     394:	66 e0       	ldi	r22, 0x06	; 6
     396:	73 e0       	ldi	r23, 0x03	; 3
     398:	82 ee       	ldi	r24, 0xE2	; 226
     39a:	92 e0       	ldi	r25, 0x02	; 2
     39c:	02 d3       	rcall	.+1540   	; 0x9a2 <can_rx>
	can_rx(&shb_mob, mob_databytes[SHB_DATA]);
     39e:	6e e0       	ldi	r22, 0x0E	; 14
     3a0:	73 e0       	ldi	r23, 0x03	; 3
     3a2:	84 ec       	ldi	r24, 0xC4	; 196
     3a4:	92 e0       	ldi	r25, 0x02	; 2
     3a6:	fd d2       	rcall	.+1530   	; 0x9a2 <can_rx>
	can_rx(&fusebox_mob, mob_databytes[FUSEBOX_DATA]);
     3a8:	6e e1       	ldi	r22, 0x1E	; 30
     3aa:	73 e0       	ldi	r23, 0x03	; 3
     3ac:	8e e4       	ldi	r24, 0x4E	; 78
     3ae:	93 e0       	ldi	r25, 0x03	; 3
     3b0:	f8 d2       	rcall	.+1520   	; 0x9a2 <can_rx>
	can_rx(&swc_mob, mob_databytes[SWC_DATA]);
     3b2:	66 e2       	ldi	r22, 0x26	; 38
     3b4:	73 e0       	ldi	r23, 0x03	; 3
     3b6:	82 eb       	ldi	r24, 0xB2	; 178
     3b8:	92 e0       	ldi	r25, 0x02	; 2
     3ba:	f3 d2       	rcall	.+1510   	; 0x9a2 <can_rx>
	can_rx(&inv01_mob, mob_databytes[INV01_DATA]);
     3bc:	66 e3       	ldi	r22, 0x36	; 54
     3be:	73 e0       	ldi	r23, 0x03	; 3
     3c0:	8c ed       	ldi	r24, 0xDC	; 220
     3c2:	92 e0       	ldi	r25, 0x02	; 2
     3c4:	ee d2       	rcall	.+1500   	; 0x9a2 <can_rx>
	can_rx(&inv11_mob, mob_databytes[INV11_DATA]);
     3c6:	66 e4       	ldi	r22, 0x46	; 70
     3c8:	73 e0       	ldi	r23, 0x03	; 3
     3ca:	86 ed       	ldi	r24, 0xD6	; 214
     3cc:	92 e0       	ldi	r25, 0x02	; 2
     3ce:	e9 d2       	rcall	.+1490   	; 0x9a2 <can_rx>
     3d0:	00 00       	nop
	
	
}
     3d2:	0f 90       	pop	r0
     3d4:	df 91       	pop	r29
     3d6:	cf 91       	pop	r28
     3d8:	08 95       	ret

000003da <can_transmit>:

void can_transmit(){
     3da:	cf 93       	push	r28
     3dc:	df 93       	push	r29
     3de:	cd b7       	in	r28, 0x3d	; 61
     3e0:	de b7       	in	r29, 0x3e	; 62
	can_tx(&dic_mob, mob_databytes[DIC_DATA]);
     3e2:	66 e1       	ldi	r22, 0x16	; 22
     3e4:	73 e0       	ldi	r23, 0x03	; 3
     3e6:	8c ea       	ldi	r24, 0xAC	; 172
     3e8:	92 e0       	ldi	r25, 0x02	; 2
     3ea:	77 d3       	rcall	.+1774   	; 0xada <can_tx>
     3ec:	00 00       	nop
}
     3ee:	df 91       	pop	r29
     3f0:	cf 91       	pop	r28
     3f2:	08 95       	ret

000003f4 <get_dsp_mode>:
     3f4:	cf 93       	push	r28

uint8_t get_dsp_mode(){
     3f6:	df 93       	push	r29
     3f8:	cd b7       	in	r28, 0x3d	; 61
     3fa:	de b7       	in	r29, 0x3e	; 62
     3fc:	80 91 26 03 	lds	r24, 0x0326	; 0x800326 <mob_databytes+0x38>
	return mob_databytes[SWC_DATA][DSP_MODE_BYTE];
     400:	df 91       	pop	r29
}
     402:	cf 91       	pop	r28
     404:	08 95       	ret

00000406 <get_mob_data>:
     406:	cf 93       	push	r28

uint8_t* get_mob_data(uint8_t mob){
     408:	df 93       	push	r29
     40a:	1f 92       	push	r1
     40c:	cd b7       	in	r28, 0x3d	; 61
     40e:	de b7       	in	r29, 0x3e	; 62
     410:	89 83       	std	Y+1, r24	; 0x01
     412:	89 81       	ldd	r24, Y+1	; 0x01
	return mob_databytes[mob];
     414:	88 2f       	mov	r24, r24
     416:	90 e0       	ldi	r25, 0x00	; 0
     418:	88 0f       	add	r24, r24
     41a:	99 1f       	adc	r25, r25
     41c:	88 0f       	add	r24, r24
     41e:	99 1f       	adc	r25, r25
     420:	88 0f       	add	r24, r24
     422:	99 1f       	adc	r25, r25
     424:	82 51       	subi	r24, 0x12	; 18
     426:	9d 4f       	sbci	r25, 0xFD	; 253
     428:	0f 90       	pop	r0
}
     42a:	df 91       	pop	r29
     42c:	cf 91       	pop	r28
     42e:	08 95       	ret

00000430 <can_put_data>:
     430:	cf 93       	push	r28

void can_put_data(){
     432:	df 93       	push	r29
     434:	cd b7       	in	r28, 0x3d	; 61
     436:	de b7       	in	r29, 0x3e	; 62
     438:	80 91 ee 02 	lds	r24, 0x02EE	; 0x8002ee <mob_databytes>
	
	ts_voltage = (mob_databytes[AMS0_DATA][0] | (mob_databytes[AMS0_DATA][1] << 8));
     43c:	28 2f       	mov	r18, r24
     43e:	30 e0       	ldi	r19, 0x00	; 0
     440:	80 91 ef 02 	lds	r24, 0x02EF	; 0x8002ef <mob_databytes+0x1>
     444:	88 2f       	mov	r24, r24
     446:	90 e0       	ldi	r25, 0x00	; 0
     448:	98 2f       	mov	r25, r24
     44a:	88 27       	eor	r24, r24
     44c:	82 2b       	or	r24, r18
     44e:	93 2b       	or	r25, r19
     450:	90 93 59 02 	sts	0x0259, r25	; 0x800259 <__data_end+0x1>
     454:	80 93 58 02 	sts	0x0258, r24	; 0x800258 <__data_end>
     458:	80 91 58 02 	lds	r24, 0x0258	; 0x800258 <__data_end>
	ts_voltage = ts_voltage/100;
     45c:	90 91 59 02 	lds	r25, 0x0259	; 0x800259 <__data_end+0x1>
     460:	96 95       	lsr	r25
     462:	87 95       	ror	r24
     464:	96 95       	lsr	r25
     466:	87 95       	ror	r24
     468:	9c 01       	movw	r18, r24
     46a:	ab e7       	ldi	r26, 0x7B	; 123
     46c:	b4 e1       	ldi	r27, 0x14	; 20
     46e:	0e 94 ff 1a 	call	0x35fe	; 0x35fe <__umulhisi3>
     472:	96 95       	lsr	r25
     474:	87 95       	ror	r24
     476:	90 93 59 02 	sts	0x0259, r25	; 0x800259 <__data_end+0x1>
     47a:	80 93 58 02 	sts	0x0258, r24	; 0x800258 <__data_end>
     47e:	80 91 f4 02 	lds	r24, 0x02F4	; 0x8002f4 <mob_databytes+0x6>
	//ts_current = mob_databytes[AMS0_DATA][2] | (mob_databytes[AMS0_DATA][3] << 8);
	//state_of_charge = mob_databytes[AMS0_DATA][4] | (mob_databytes[AMS0_DATA][5] << 8);
	ams_error = ((mob_databytes[AMS0_DATA][6]>>7) & 1);
     482:	88 1f       	adc	r24, r24
     484:	88 27       	eor	r24, r24
     486:	88 1f       	adc	r24, r24
     488:	80 93 5e 02 	sts	0x025E, r24	; 0x80025e <ams_error>
     48c:	80 91 f4 02 	lds	r24, 0x02F4	; 0x8002f4 <mob_databytes+0x6>
	imd_error = ((mob_databytes[AMS0_DATA][6]>>6) & 1);
     490:	82 95       	swap	r24
     492:	86 95       	lsr	r24
     494:	86 95       	lsr	r24
     496:	83 70       	andi	r24, 0x03	; 3
     498:	81 70       	andi	r24, 0x01	; 1
     49a:	80 93 5f 02 	sts	0x025F, r24	; 0x80025f <imd_error>
     49e:	80 91 5f 02 	lds	r24, 0x025F	; 0x80025f <imd_error>
	if (imd_error == 0){
     4a2:	88 23       	and	r24, r24
     4a4:	49 f4       	brne	.+18     	; 0x4b8 <can_put_data+0x88>
     4a6:	82 e2       	ldi	r24, 0x22	; 34
		//pre_defined_led_colors(PE_RED);
		PORTA |= (0<<PA2);
     4a8:	90 e0       	ldi	r25, 0x00	; 0
     4aa:	22 e2       	ldi	r18, 0x22	; 34
     4ac:	30 e0       	ldi	r19, 0x00	; 0
     4ae:	f9 01       	movw	r30, r18
     4b0:	20 81       	ld	r18, Z
     4b2:	fc 01       	movw	r30, r24
     4b4:	20 83       	st	Z, r18
     4b6:	09 c0       	rjmp	.+18     	; 0x4ca <can_put_data+0x9a>
     4b8:	82 e2       	ldi	r24, 0x22	; 34
		//extender_leds_blocking(RGB_LEFT,0|(0<<F_RED));
	}
	else
	{
		//pre_defined_led_colors(PE_OFF);
		PORTA |= (1<<PA2);
     4ba:	90 e0       	ldi	r25, 0x00	; 0
     4bc:	22 e2       	ldi	r18, 0x22	; 34
     4be:	30 e0       	ldi	r19, 0x00	; 0
     4c0:	f9 01       	movw	r30, r18
     4c2:	20 81       	ld	r18, Z
     4c4:	24 60       	ori	r18, 0x04	; 4
     4c6:	fc 01       	movw	r30, r24
     4c8:	20 83       	st	Z, r18
     4ca:	80 91 f4 02 	lds	r24, 0x02F4	; 0x8002f4 <mob_databytes+0x6>
		//extender_leds_blocking(RGB_LEFT,0|(1<<F_RED));
	}
	//can_ok = ((mob_databytes[AMS0_DATA][6]>>5) & 1);
	precharge_active = ((mob_databytes[AMS0_DATA][6]>>4) & 1);
     4ce:	82 95       	swap	r24
     4d0:	8f 70       	andi	r24, 0x0F	; 15
     4d2:	81 70       	andi	r24, 0x01	; 1
     4d4:	80 93 61 02 	sts	0x0261, r24	; 0x800261 <precharge_active>
     4d8:	80 91 fc 02 	lds	r24, 0x02FC	; 0x8002fc <mob_databytes+0xe>
    //TS_RDY = ((mob_databytes[AMS0_DATA][6]>>3) & 1);
	
	//bms_min_voltage = mob_databytes[AMS1_DATA][0] | (mob_databytes[AMS1_DATA][1] << 8);
	//bms_max_voltage = mob_databytes[AMS1_DATA][2] | (mob_databytes[AMS1_DATA][3] << 8);
	//bms_min_temp = (mob_databytes[AMS1_DATA][4] | (mob_databytes[AMS1_DATA][5] << 8))/100;
	bms_max_temp = (mob_databytes[AMS1_DATA][6] | (mob_databytes[AMS1_DATA][7] << 8))/100;
     4dc:	28 2f       	mov	r18, r24
     4de:	30 e0       	ldi	r19, 0x00	; 0
     4e0:	80 91 fd 02 	lds	r24, 0x02FD	; 0x8002fd <mob_databytes+0xf>
     4e4:	88 2f       	mov	r24, r24
     4e6:	90 e0       	ldi	r25, 0x00	; 0
     4e8:	98 2f       	mov	r25, r24
     4ea:	88 27       	eor	r24, r24
     4ec:	82 2b       	or	r24, r18
     4ee:	93 2b       	or	r25, r19
     4f0:	24 e6       	ldi	r18, 0x64	; 100
     4f2:	30 e0       	ldi	r19, 0x00	; 0
     4f4:	b9 01       	movw	r22, r18
     4f6:	0e 94 e3 1a 	call	0x35c6	; 0x35c6 <__divmodhi4>
     4fa:	cb 01       	movw	r24, r22
     4fc:	90 93 68 02 	sts	0x0268, r25	; 0x800268 <bms_max_temp+0x1>
     500:	80 93 67 02 	sts	0x0267, r24	; 0x800267 <bms_max_temp>
     504:	80 91 fe 02 	lds	r24, 0x02FE	; 0x8002fe <mob_databytes+0x10>
	
	APPS1 = mob_databytes[SHR_DATA][0] | (mob_databytes[SHR_DATA][1] << 8);
     508:	28 2f       	mov	r18, r24
     50a:	30 e0       	ldi	r19, 0x00	; 0
     50c:	80 91 ff 02 	lds	r24, 0x02FF	; 0x8002ff <mob_databytes+0x11>
     510:	88 2f       	mov	r24, r24
     512:	90 e0       	ldi	r25, 0x00	; 0
     514:	98 2f       	mov	r25, r24
     516:	88 27       	eor	r24, r24
     518:	82 2b       	or	r24, r18
     51a:	93 2b       	or	r25, r19
     51c:	90 93 6c 02 	sts	0x026C, r25	; 0x80026c <APPS1+0x1>
     520:	80 93 6b 02 	sts	0x026B, r24	; 0x80026b <APPS1>
     524:	80 91 00 03 	lds	r24, 0x0300	; 0x800300 <mob_databytes+0x12>
	APPS2 = mob_databytes[SHR_DATA][2] | (mob_databytes[SHR_DATA][3] << 8);
     528:	28 2f       	mov	r18, r24
     52a:	30 e0       	ldi	r19, 0x00	; 0
     52c:	80 91 01 03 	lds	r24, 0x0301	; 0x800301 <mob_databytes+0x13>
     530:	88 2f       	mov	r24, r24
     532:	90 e0       	ldi	r25, 0x00	; 0
     534:	98 2f       	mov	r25, r24
     536:	88 27       	eor	r24, r24
     538:	82 2b       	or	r24, r18
     53a:	93 2b       	or	r25, r19
     53c:	90 93 6e 02 	sts	0x026E, r25	; 0x80026e <APPS2+0x1>
     540:	80 93 6d 02 	sts	0x026D, r24	; 0x80026d <APPS2>
     544:	80 91 06 03 	lds	r24, 0x0306	; 0x800306 <mob_databytes+0x18>
	BPSF = mob_databytes[SHL_DATA][0] | (mob_databytes[SHL_DATA][1] << 8);
     548:	28 2f       	mov	r18, r24
     54a:	30 e0       	ldi	r19, 0x00	; 0
     54c:	80 91 07 03 	lds	r24, 0x0307	; 0x800307 <mob_databytes+0x19>
     550:	88 2f       	mov	r24, r24
     552:	90 e0       	ldi	r25, 0x00	; 0
     554:	98 2f       	mov	r25, r24
     556:	88 27       	eor	r24, r24
     558:	82 2b       	or	r24, r18
     55a:	93 2b       	or	r25, r19
     55c:	90 93 70 02 	sts	0x0270, r25	; 0x800270 <BPSF+0x1>
     560:	80 93 6f 02 	sts	0x026F, r24	; 0x80026f <BPSF>
     564:	80 91 08 03 	lds	r24, 0x0308	; 0x800308 <mob_databytes+0x1a>
	BPSR = mob_databytes[SHL_DATA][2] | (mob_databytes[SHL_DATA][3] << 8);
     568:	28 2f       	mov	r18, r24
     56a:	30 e0       	ldi	r19, 0x00	; 0
     56c:	80 91 09 03 	lds	r24, 0x0309	; 0x800309 <mob_databytes+0x1b>
     570:	88 2f       	mov	r24, r24
     572:	90 e0       	ldi	r25, 0x00	; 0
     574:	98 2f       	mov	r25, r24
     576:	88 27       	eor	r24, r24
     578:	82 2b       	or	r24, r18
     57a:	93 2b       	or	r25, r19
     57c:	90 93 72 02 	sts	0x0272, r25	; 0x800272 <BPSR+0x1>
     580:	80 93 71 02 	sts	0x0271, r24	; 0x800271 <BPSR>
     584:	80 91 23 03 	lds	r24, 0x0323	; 0x800323 <mob_databytes+0x35>
	
	Akku_fan = ((mob_databytes[FUSEBOX_DATA][5]>>7) & 1);
     588:	88 1f       	adc	r24, r24
     58a:	88 27       	eor	r24, r24
     58c:	88 1f       	adc	r24, r24
     58e:	80 93 a1 02 	sts	0x02A1, r24	; 0x8002a1 <Akku_fan>
     592:	80 91 27 03 	lds	r24, 0x0327	; 0x800327 <mob_databytes+0x39>
	//Cooling_fan = ((mob_databytes[FUSEBOX_DATA][5]>>6) & 1);
	Rotary_right = (mob_databytes[SWC_DATA][1]);
     596:	80 93 a4 02 	sts	0x02A4, r24	; 0x8002a4 <Rotary_right>
     59a:	80 91 26 03 	lds	r24, 0x0326	; 0x800326 <mob_databytes+0x38>
	Rotary_left = (mob_databytes[SWC_DATA][0]);
     59e:	80 93 a5 02 	sts	0x02A5, r24	; 0x8002a5 <Rotary_left>
     5a2:	80 e2       	ldi	r24, 0x20	; 32
	//cooling_1 = (mob_databytes[SHB_DATA][0] | (mob_databytes[SHB_DATA][1] << 8));
	//cooling_2 = mob_databytes[SHB_DATA][2] | (mob_databytes[SHB_DATA][3] << 8);
	//cooling_temp = (cooling_1 + cooling_2) / 2 ;		//Mittelwert aus cooling 1 und 2
	//cooling_temp_deg =  ((0.128*cooling_1) - (8.137))*10; // NTC Kurve ist linearisiert im Bereich 80°-20°, außerhalb ungenauer
	
	TS_ON = (~PINA & (1 << PA0));
     5a4:	90 e0       	ldi	r25, 0x00	; 0
     5a6:	fc 01       	movw	r30, r24
     5a8:	80 81       	ld	r24, Z
     5aa:	88 2f       	mov	r24, r24
     5ac:	90 e0       	ldi	r25, 0x00	; 0
     5ae:	81 70       	andi	r24, 0x01	; 1
     5b0:	99 27       	eor	r25, r25
     5b2:	21 e0       	ldi	r18, 0x01	; 1
     5b4:	89 2b       	or	r24, r25
     5b6:	09 f0       	breq	.+2      	; 0x5ba <can_put_data+0x18a>
     5b8:	20 e0       	ldi	r18, 0x00	; 0
     5ba:	82 2f       	mov	r24, r18
     5bc:	80 93 82 02 	sts	0x0282, r24	; 0x800282 <TS_ON>
     5c0:	10 92 81 02 	sts	0x0281, r1	; 0x800281 <Ready_2_Drive>
	Ready_2_Drive = 0;
     5c4:	80 91 71 02 	lds	r24, 0x0271	; 0x800271 <BPSR>
	/*
	if (BPSR >= 10 && precharge_active){
		Ready_2_Drive = (~PINA >> PA1) & PA1;
	}
	*/
	if (BPSR >= 10){
     5c8:	90 91 72 02 	lds	r25, 0x0272	; 0x800272 <BPSR+0x1>
     5cc:	0a 97       	sbiw	r24, 0x0a	; 10
     5ce:	68 f0       	brcs	.+26     	; 0x5ea <can_put_data+0x1ba>
     5d0:	80 e2       	ldi	r24, 0x20	; 32
		Ready_2_Drive = (~PINA >> PA1) & PA1;
     5d2:	90 e0       	ldi	r25, 0x00	; 0
     5d4:	fc 01       	movw	r30, r24
     5d6:	80 81       	ld	r24, Z
     5d8:	88 2f       	mov	r24, r24
     5da:	90 e0       	ldi	r25, 0x00	; 0
     5dc:	80 95       	com	r24
     5de:	90 95       	com	r25
     5e0:	95 95       	asr	r25
     5e2:	87 95       	ror	r24
     5e4:	81 70       	andi	r24, 0x01	; 1
     5e6:	80 93 81 02 	sts	0x0281, r24	; 0x800281 <Ready_2_Drive>
     5ea:	80 91 20 03 	lds	r24, 0x0320	; 0x800320 <mob_databytes+0x32>
	}
	
	battery_voltage = mob_databytes[FUSEBOX_DATA][2] | (mob_databytes[FUSEBOX_DATA][3] << 8);
     5ee:	28 2f       	mov	r18, r24
     5f0:	30 e0       	ldi	r19, 0x00	; 0
     5f2:	80 91 21 03 	lds	r24, 0x0321	; 0x800321 <mob_databytes+0x33>
     5f6:	88 2f       	mov	r24, r24
     5f8:	90 e0       	ldi	r25, 0x00	; 0
     5fa:	98 2f       	mov	r25, r24
     5fc:	88 27       	eor	r24, r24
     5fe:	82 2b       	or	r24, r18
     600:	93 2b       	or	r25, r19
     602:	90 93 85 02 	sts	0x0285, r25	; 0x800285 <battery_voltage+0x1>
     606:	80 93 84 02 	sts	0x0284, r24	; 0x800284 <battery_voltage>
     60a:	80 91 31 03 	lds	r24, 0x0331	; 0x800331 <mob_databytes+0x43>
	//SDCIFB = mob_databytes[FUSEBOX_DATA][4];
	//fuse_readout = mob_databytes[FUSEBOX_DATA][6] | (mob_databytes[FUSEBOX_DATA][7] << 8);
	
	
	ERPM_0 = (mob_databytes[INV00_DATA][3] | (mob_databytes[INV00_DATA][2] << 8) | (mob_databytes[INV00_DATA][1] << 16) | (mob_databytes[INV00_DATA][0] << 24));
     60e:	28 2f       	mov	r18, r24
     610:	30 e0       	ldi	r19, 0x00	; 0
     612:	80 91 30 03 	lds	r24, 0x0330	; 0x800330 <mob_databytes+0x42>
     616:	88 2f       	mov	r24, r24
     618:	90 e0       	ldi	r25, 0x00	; 0
     61a:	98 2f       	mov	r25, r24
     61c:	88 27       	eor	r24, r24
     61e:	28 2b       	or	r18, r24
     620:	39 2b       	or	r19, r25
     622:	80 91 2f 03 	lds	r24, 0x032F	; 0x80032f <mob_databytes+0x41>
     626:	88 2f       	mov	r24, r24
     628:	90 e0       	ldi	r25, 0x00	; 0
     62a:	40 e1       	ldi	r20, 0x10	; 16
     62c:	50 e0       	ldi	r21, 0x00	; 0
     62e:	02 c0       	rjmp	.+4      	; 0x634 <can_put_data+0x204>
     630:	88 0f       	add	r24, r24
     632:	99 1f       	adc	r25, r25
     634:	4a 95       	dec	r20
     636:	e2 f7       	brpl	.-8      	; 0x630 <can_put_data+0x200>
     638:	28 2b       	or	r18, r24
     63a:	39 2b       	or	r19, r25
     63c:	80 91 2e 03 	lds	r24, 0x032E	; 0x80032e <mob_databytes+0x40>
     640:	88 2f       	mov	r24, r24
     642:	90 e0       	ldi	r25, 0x00	; 0
     644:	48 e1       	ldi	r20, 0x18	; 24
     646:	50 e0       	ldi	r21, 0x00	; 0
     648:	02 c0       	rjmp	.+4      	; 0x64e <can_put_data+0x21e>
     64a:	88 0f       	add	r24, r24
     64c:	99 1f       	adc	r25, r25
     64e:	4a 95       	dec	r20
     650:	e2 f7       	brpl	.-8      	; 0x64a <can_put_data+0x21a>
     652:	82 2b       	or	r24, r18
     654:	93 2b       	or	r25, r19
     656:	09 2e       	mov	r0, r25
     658:	00 0c       	add	r0, r0
     65a:	aa 0b       	sbc	r26, r26
     65c:	bb 0b       	sbc	r27, r27
     65e:	80 93 8b 02 	sts	0x028B, r24	; 0x80028b <ERPM_0>
     662:	90 93 8c 02 	sts	0x028C, r25	; 0x80028c <ERPM_0+0x1>
     666:	a0 93 8d 02 	sts	0x028D, r26	; 0x80028d <ERPM_0+0x2>
     66a:	b0 93 8e 02 	sts	0x028E, r27	; 0x80028e <ERPM_0+0x3>
     66e:	80 91 41 03 	lds	r24, 0x0341	; 0x800341 <mob_databytes+0x53>
	ERPM_1 = (mob_databytes[INV10_DATA][3] | (mob_databytes[INV10_DATA][2] << 8) | (mob_databytes[INV10_DATA][1] << 16) | (mob_databytes[INV10_DATA][0] << 24));
     672:	28 2f       	mov	r18, r24
     674:	30 e0       	ldi	r19, 0x00	; 0
     676:	80 91 40 03 	lds	r24, 0x0340	; 0x800340 <mob_databytes+0x52>
     67a:	88 2f       	mov	r24, r24
     67c:	90 e0       	ldi	r25, 0x00	; 0
     67e:	98 2f       	mov	r25, r24
     680:	88 27       	eor	r24, r24
     682:	28 2b       	or	r18, r24
     684:	39 2b       	or	r19, r25
     686:	80 91 3f 03 	lds	r24, 0x033F	; 0x80033f <mob_databytes+0x51>
     68a:	88 2f       	mov	r24, r24
     68c:	90 e0       	ldi	r25, 0x00	; 0
     68e:	40 e1       	ldi	r20, 0x10	; 16
     690:	50 e0       	ldi	r21, 0x00	; 0
     692:	02 c0       	rjmp	.+4      	; 0x698 <can_put_data+0x268>
     694:	88 0f       	add	r24, r24
     696:	99 1f       	adc	r25, r25
     698:	4a 95       	dec	r20
     69a:	e2 f7       	brpl	.-8      	; 0x694 <can_put_data+0x264>
     69c:	28 2b       	or	r18, r24
     69e:	39 2b       	or	r19, r25
     6a0:	80 91 3e 03 	lds	r24, 0x033E	; 0x80033e <mob_databytes+0x50>
     6a4:	88 2f       	mov	r24, r24
     6a6:	90 e0       	ldi	r25, 0x00	; 0
     6a8:	48 e1       	ldi	r20, 0x18	; 24
     6aa:	50 e0       	ldi	r21, 0x00	; 0
     6ac:	02 c0       	rjmp	.+4      	; 0x6b2 <can_put_data+0x282>
     6ae:	88 0f       	add	r24, r24
     6b0:	99 1f       	adc	r25, r25
     6b2:	4a 95       	dec	r20
     6b4:	e2 f7       	brpl	.-8      	; 0x6ae <can_put_data+0x27e>
     6b6:	82 2b       	or	r24, r18
     6b8:	93 2b       	or	r25, r19
     6ba:	09 2e       	mov	r0, r25
     6bc:	00 0c       	add	r0, r0
     6be:	aa 0b       	sbc	r26, r26
     6c0:	bb 0b       	sbc	r27, r27
     6c2:	80 93 8f 02 	sts	0x028F, r24	; 0x80028f <ERPM_1>
     6c6:	90 93 90 02 	sts	0x0290, r25	; 0x800290 <ERPM_1+0x1>
     6ca:	a0 93 91 02 	sts	0x0291, r26	; 0x800291 <ERPM_1+0x2>
     6ce:	b0 93 92 02 	sts	0x0292, r27	; 0x800292 <ERPM_1+0x3>
     6d2:	20 91 8b 02 	lds	r18, 0x028B	; 0x80028b <ERPM_0>
	
	RPM = (ERPM_0 + ERPM_1)/2;
     6d6:	30 91 8c 02 	lds	r19, 0x028C	; 0x80028c <ERPM_0+0x1>
     6da:	40 91 8d 02 	lds	r20, 0x028D	; 0x80028d <ERPM_0+0x2>
     6de:	50 91 8e 02 	lds	r21, 0x028E	; 0x80028e <ERPM_0+0x3>
     6e2:	80 91 8f 02 	lds	r24, 0x028F	; 0x80028f <ERPM_1>
     6e6:	90 91 90 02 	lds	r25, 0x0290	; 0x800290 <ERPM_1+0x1>
     6ea:	a0 91 91 02 	lds	r26, 0x0291	; 0x800291 <ERPM_1+0x2>
     6ee:	b0 91 92 02 	lds	r27, 0x0292	; 0x800292 <ERPM_1+0x3>
     6f2:	82 0f       	add	r24, r18
     6f4:	93 1f       	adc	r25, r19
     6f6:	a4 1f       	adc	r26, r20
     6f8:	b5 1f       	adc	r27, r21
     6fa:	b6 95       	lsr	r27
     6fc:	a7 95       	ror	r26
     6fe:	97 95       	ror	r25
     700:	87 95       	ror	r24
     702:	90 93 94 02 	sts	0x0294, r25	; 0x800294 <RPM+0x1>
     706:	80 93 93 02 	sts	0x0293, r24	; 0x800293 <RPM>
     70a:	80 91 39 03 	lds	r24, 0x0339	; 0x800339 <mob_databytes+0x4b>
	
	motor_temp_1 = (mob_databytes[INV01_DATA][3] | (mob_databytes[INV01_DATA][2] << 8));
     70e:	28 2f       	mov	r18, r24
     710:	30 e0       	ldi	r19, 0x00	; 0
     712:	80 91 38 03 	lds	r24, 0x0338	; 0x800338 <mob_databytes+0x4a>
     716:	88 2f       	mov	r24, r24
     718:	90 e0       	ldi	r25, 0x00	; 0
     71a:	98 2f       	mov	r25, r24
     71c:	88 27       	eor	r24, r24
     71e:	82 2b       	or	r24, r18
     720:	93 2b       	or	r25, r19
     722:	90 93 9d 02 	sts	0x029D, r25	; 0x80029d <motor_temp_1+0x1>
     726:	80 93 9c 02 	sts	0x029C, r24	; 0x80029c <motor_temp_1>
     72a:	80 91 49 03 	lds	r24, 0x0349	; 0x800349 <mob_databytes+0x5b>
	motor_temp_0 = (mob_databytes[INV11_DATA][3] | (mob_databytes[INV11_DATA][2] << 8));
     72e:	28 2f       	mov	r18, r24
     730:	30 e0       	ldi	r19, 0x00	; 0
     732:	80 91 48 03 	lds	r24, 0x0348	; 0x800348 <mob_databytes+0x5a>
     736:	88 2f       	mov	r24, r24
     738:	90 e0       	ldi	r25, 0x00	; 0
     73a:	98 2f       	mov	r25, r24
     73c:	88 27       	eor	r24, r24
     73e:	82 2b       	or	r24, r18
     740:	93 2b       	or	r25, r19
     742:	90 93 98 02 	sts	0x0298, r25	; 0x800298 <motor_temp_0+0x1>
     746:	80 93 97 02 	sts	0x0297, r24	; 0x800297 <motor_temp_0>
     74a:	20 91 9c 02 	lds	r18, 0x029C	; 0x80029c <motor_temp_1>
	
	if (motor_temp_1>motor_temp_0)
     74e:	30 91 9d 02 	lds	r19, 0x029D	; 0x80029d <motor_temp_1+0x1>
     752:	80 91 97 02 	lds	r24, 0x0297	; 0x800297 <motor_temp_0>
     756:	90 91 98 02 	lds	r25, 0x0298	; 0x800298 <motor_temp_0+0x1>
     75a:	82 17       	cp	r24, r18
     75c:	93 07       	cpc	r25, r19
     75e:	48 f4       	brcc	.+18     	; 0x772 <can_put_data+0x342>
     760:	80 91 9c 02 	lds	r24, 0x029C	; 0x80029c <motor_temp_1>
	{
		motor_temp = motor_temp_1;
     764:	90 91 9d 02 	lds	r25, 0x029D	; 0x80029d <motor_temp_1+0x1>
     768:	90 93 7e 02 	sts	0x027E, r25	; 0x80027e <motor_temp+0x1>
     76c:	80 93 7d 02 	sts	0x027D, r24	; 0x80027d <motor_temp>
     770:	08 c0       	rjmp	.+16     	; 0x782 <can_put_data+0x352>
     772:	80 91 97 02 	lds	r24, 0x0297	; 0x800297 <motor_temp_0>
	} 
	else
	{
		motor_temp = motor_temp_0;
     776:	90 91 98 02 	lds	r25, 0x0298	; 0x800298 <motor_temp_0+0x1>
     77a:	90 93 7e 02 	sts	0x027E, r25	; 0x80027e <motor_temp+0x1>
     77e:	80 93 7d 02 	sts	0x027D, r24	; 0x80027d <motor_temp>
     782:	80 91 37 03 	lds	r24, 0x0337	; 0x800337 <mob_databytes+0x49>
	}
	
	mcu_temp_0 = (mob_databytes[INV01_DATA][1] | (mob_databytes[INV01_DATA][0] << 8));
     786:	28 2f       	mov	r18, r24
     788:	30 e0       	ldi	r19, 0x00	; 0
     78a:	80 91 36 03 	lds	r24, 0x0336	; 0x800336 <mob_databytes+0x48>
     78e:	88 2f       	mov	r24, r24
     790:	90 e0       	ldi	r25, 0x00	; 0
     792:	98 2f       	mov	r25, r24
     794:	88 27       	eor	r24, r24
     796:	82 2b       	or	r24, r18
     798:	93 2b       	or	r25, r19
     79a:	90 93 96 02 	sts	0x0296, r25	; 0x800296 <mcu_temp_0+0x1>
     79e:	80 93 95 02 	sts	0x0295, r24	; 0x800295 <mcu_temp_0>
     7a2:	80 91 47 03 	lds	r24, 0x0347	; 0x800347 <mob_databytes+0x59>
	mcu_temp_1 = (mob_databytes[INV11_DATA][1] | (mob_databytes[INV11_DATA][0] << 8));
     7a6:	28 2f       	mov	r18, r24
     7a8:	30 e0       	ldi	r19, 0x00	; 0
     7aa:	80 91 46 03 	lds	r24, 0x0346	; 0x800346 <mob_databytes+0x58>
     7ae:	88 2f       	mov	r24, r24
     7b0:	90 e0       	ldi	r25, 0x00	; 0
     7b2:	98 2f       	mov	r25, r24
     7b4:	88 27       	eor	r24, r24
     7b6:	82 2b       	or	r24, r18
     7b8:	93 2b       	or	r25, r19
     7ba:	90 93 9b 02 	sts	0x029B, r25	; 0x80029b <mcu_temp_1+0x1>
     7be:	80 93 9a 02 	sts	0x029A, r24	; 0x80029a <mcu_temp_1>
     7c2:	20 91 9a 02 	lds	r18, 0x029A	; 0x80029a <mcu_temp_1>
	
	if (mcu_temp_1>mcu_temp_0)
     7c6:	30 91 9b 02 	lds	r19, 0x029B	; 0x80029b <mcu_temp_1+0x1>
     7ca:	80 91 95 02 	lds	r24, 0x0295	; 0x800295 <mcu_temp_0>
     7ce:	90 91 96 02 	lds	r25, 0x0296	; 0x800296 <mcu_temp_0+0x1>
     7d2:	82 17       	cp	r24, r18
     7d4:	93 07       	cpc	r25, r19
     7d6:	48 f4       	brcc	.+18     	; 0x7ea <can_put_data+0x3ba>
     7d8:	80 91 9a 02 	lds	r24, 0x029A	; 0x80029a <mcu_temp_1>
	{
		mcu_temp = mcu_temp_1;
     7dc:	90 91 9b 02 	lds	r25, 0x029B	; 0x80029b <mcu_temp_1+0x1>
     7e0:	90 93 80 02 	sts	0x0280, r25	; 0x800280 <mcu_temp+0x1>
     7e4:	80 93 7f 02 	sts	0x027F, r24	; 0x80027f <mcu_temp>
     7e8:	08 c0       	rjmp	.+16     	; 0x7fa <can_put_data+0x3ca>
     7ea:	80 91 95 02 	lds	r24, 0x0295	; 0x800295 <mcu_temp_0>
	}
	else
	{
		mcu_temp = mcu_temp_0;
     7ee:	90 91 96 02 	lds	r25, 0x0296	; 0x800296 <mcu_temp_0+0x1>
     7f2:	90 93 80 02 	sts	0x0280, r25	; 0x800280 <mcu_temp+0x1>
     7f6:	80 93 7f 02 	sts	0x027F, r24	; 0x80027f <mcu_temp>
     7fa:	80 91 82 02 	lds	r24, 0x0282	; 0x800282 <TS_ON>
	}
	mob_databytes[DIC_DATA][0] = TS_ON;
     7fe:	80 93 16 03 	sts	0x0316, r24	; 0x800316 <mob_databytes+0x28>
     802:	80 91 81 02 	lds	r24, 0x0281	; 0x800281 <Ready_2_Drive>
	mob_databytes[DIC_DATA][1] = Ready_2_Drive;
     806:	80 93 17 03 	sts	0x0317, r24	; 0x800317 <mob_databytes+0x29>
     80a:	80 91 83 02 	lds	r24, 0x0283	; 0x800283 <SDCIDIC>
	mob_databytes[DIC_DATA][2] = SDCIDIC;
     80e:	80 93 18 03 	sts	0x0318, r24	; 0x800318 <mob_databytes+0x2a>
     812:	00 00       	nop
	
	
	
	
}
     814:	df 91       	pop	r29
     816:	cf 91       	pop	r28
     818:	08 95       	ret

0000081a <can_check_free>:
     81a:	cf 93       	push	r28
     81c:	df 93       	push	r29
     81e:	00 d0       	rcall	.+0      	; 0x820 <can_check_free+0x6>
     820:	cd b7       	in	r28, 0x3d	; 61
     822:	de b7       	in	r29, 0x3e	; 62
     824:	8a 83       	std	Y+2, r24	; 0x02
     826:	19 82       	std	Y+1, r1	; 0x01
     828:	8a 81       	ldd	r24, Y+2	; 0x02
     82a:	88 30       	cpi	r24, 0x08	; 8
     82c:	c0 f0       	brcs	.+48     	; 0x85e <can_check_free+0x44>
     82e:	8d ed       	ldi	r24, 0xDD	; 221
     830:	90 e0       	ldi	r25, 0x00	; 0
     832:	fc 01       	movw	r30, r24
     834:	80 81       	ld	r24, Z
     836:	88 2f       	mov	r24, r24
     838:	90 e0       	ldi	r25, 0x00	; 0
     83a:	2a 81       	ldd	r18, Y+2	; 0x02
     83c:	22 2f       	mov	r18, r18
     83e:	30 e0       	ldi	r19, 0x00	; 0
     840:	28 50       	subi	r18, 0x08	; 8
     842:	31 09       	sbc	r19, r1
     844:	02 c0       	rjmp	.+4      	; 0x84a <can_check_free+0x30>
     846:	95 95       	asr	r25
     848:	87 95       	ror	r24
     84a:	2a 95       	dec	r18
     84c:	e2 f7       	brpl	.-8      	; 0x846 <can_check_free+0x2c>
     84e:	81 70       	andi	r24, 0x01	; 1
     850:	99 27       	eor	r25, r25
     852:	21 e0       	ldi	r18, 0x01	; 1
     854:	89 2b       	or	r24, r25
     856:	09 f0       	breq	.+2      	; 0x85a <can_check_free+0x40>
     858:	20 e0       	ldi	r18, 0x00	; 0
     85a:	29 83       	std	Y+1, r18	; 0x01
     85c:	15 c0       	rjmp	.+42     	; 0x888 <can_check_free+0x6e>
     85e:	8c ed       	ldi	r24, 0xDC	; 220
     860:	90 e0       	ldi	r25, 0x00	; 0
     862:	fc 01       	movw	r30, r24
     864:	80 81       	ld	r24, Z
     866:	88 2f       	mov	r24, r24
     868:	90 e0       	ldi	r25, 0x00	; 0
     86a:	2a 81       	ldd	r18, Y+2	; 0x02
     86c:	22 2f       	mov	r18, r18
     86e:	30 e0       	ldi	r19, 0x00	; 0
     870:	02 c0       	rjmp	.+4      	; 0x876 <can_check_free+0x5c>
     872:	95 95       	asr	r25
     874:	87 95       	ror	r24
     876:	2a 95       	dec	r18
     878:	e2 f7       	brpl	.-8      	; 0x872 <can_check_free+0x58>
     87a:	81 70       	andi	r24, 0x01	; 1
     87c:	99 27       	eor	r25, r25
     87e:	21 e0       	ldi	r18, 0x01	; 1
     880:	89 2b       	or	r24, r25
     882:	09 f0       	breq	.+2      	; 0x886 <can_check_free+0x6c>
     884:	20 e0       	ldi	r18, 0x00	; 0
     886:	29 83       	std	Y+1, r18	; 0x01
     888:	89 81       	ldd	r24, Y+1	; 0x01
     88a:	0f 90       	pop	r0
     88c:	0f 90       	pop	r0
     88e:	df 91       	pop	r29
     890:	cf 91       	pop	r28
     892:	08 95       	ret

00000894 <can_cfg>:
     894:	cf 93       	push	r28
     896:	df 93       	push	r29
     898:	00 d0       	rcall	.+0      	; 0x89a <can_cfg+0x6>
     89a:	cd b7       	in	r28, 0x3d	; 61
     89c:	de b7       	in	r29, 0x3e	; 62
     89e:	88 ed       	ldi	r24, 0xD8	; 216
     8a0:	90 e0       	ldi	r25, 0x00	; 0
     8a2:	fc 01       	movw	r30, r24
     8a4:	10 82       	st	Z, r1
     8a6:	19 82       	std	Y+1, r1	; 0x01
     8a8:	56 c0       	rjmp	.+172    	; 0x956 <can_cfg+0xc2>
     8aa:	8d ee       	ldi	r24, 0xED	; 237
     8ac:	90 e0       	ldi	r25, 0x00	; 0
     8ae:	29 81       	ldd	r18, Y+1	; 0x01
     8b0:	22 2f       	mov	r18, r18
     8b2:	30 e0       	ldi	r19, 0x00	; 0
     8b4:	22 95       	swap	r18
     8b6:	32 95       	swap	r19
     8b8:	30 7f       	andi	r19, 0xF0	; 240
     8ba:	32 27       	eor	r19, r18
     8bc:	20 7f       	andi	r18, 0xF0	; 240
     8be:	32 27       	eor	r19, r18
     8c0:	28 60       	ori	r18, 0x08	; 8
     8c2:	fc 01       	movw	r30, r24
     8c4:	20 83       	st	Z, r18
     8c6:	8e ee       	ldi	r24, 0xEE	; 238
     8c8:	90 e0       	ldi	r25, 0x00	; 0
     8ca:	fc 01       	movw	r30, r24
     8cc:	10 82       	st	Z, r1
     8ce:	8f ee       	ldi	r24, 0xEF	; 239
     8d0:	90 e0       	ldi	r25, 0x00	; 0
     8d2:	fc 01       	movw	r30, r24
     8d4:	10 82       	st	Z, r1
     8d6:	80 ef       	ldi	r24, 0xF0	; 240
     8d8:	90 e0       	ldi	r25, 0x00	; 0
     8da:	fc 01       	movw	r30, r24
     8dc:	10 82       	st	Z, r1
     8de:	81 ef       	ldi	r24, 0xF1	; 241
     8e0:	90 e0       	ldi	r25, 0x00	; 0
     8e2:	fc 01       	movw	r30, r24
     8e4:	10 82       	st	Z, r1
     8e6:	82 ef       	ldi	r24, 0xF2	; 242
     8e8:	90 e0       	ldi	r25, 0x00	; 0
     8ea:	fc 01       	movw	r30, r24
     8ec:	10 82       	st	Z, r1
     8ee:	83 ef       	ldi	r24, 0xF3	; 243
     8f0:	90 e0       	ldi	r25, 0x00	; 0
     8f2:	fc 01       	movw	r30, r24
     8f4:	10 82       	st	Z, r1
     8f6:	84 ef       	ldi	r24, 0xF4	; 244
     8f8:	90 e0       	ldi	r25, 0x00	; 0
     8fa:	fc 01       	movw	r30, r24
     8fc:	10 82       	st	Z, r1
     8fe:	85 ef       	ldi	r24, 0xF5	; 245
     900:	90 e0       	ldi	r25, 0x00	; 0
     902:	fc 01       	movw	r30, r24
     904:	10 82       	st	Z, r1
     906:	86 ef       	ldi	r24, 0xF6	; 246
     908:	90 e0       	ldi	r25, 0x00	; 0
     90a:	fc 01       	movw	r30, r24
     90c:	10 82       	st	Z, r1
     90e:	87 ef       	ldi	r24, 0xF7	; 247
     910:	90 e0       	ldi	r25, 0x00	; 0
     912:	fc 01       	movw	r30, r24
     914:	10 82       	st	Z, r1
     916:	1a 82       	std	Y+2, r1	; 0x02
     918:	18 c0       	rjmp	.+48     	; 0x94a <can_cfg+0xb6>
     91a:	8d ee       	ldi	r24, 0xED	; 237
     91c:	90 e0       	ldi	r25, 0x00	; 0
     91e:	29 81       	ldd	r18, Y+1	; 0x01
     920:	22 2f       	mov	r18, r18
     922:	30 e0       	ldi	r19, 0x00	; 0
     924:	22 95       	swap	r18
     926:	32 95       	swap	r19
     928:	30 7f       	andi	r19, 0xF0	; 240
     92a:	32 27       	eor	r19, r18
     92c:	20 7f       	andi	r18, 0xF0	; 240
     92e:	32 27       	eor	r19, r18
     930:	32 2f       	mov	r19, r18
     932:	2a 81       	ldd	r18, Y+2	; 0x02
     934:	23 2b       	or	r18, r19
     936:	28 60       	ori	r18, 0x08	; 8
     938:	fc 01       	movw	r30, r24
     93a:	20 83       	st	Z, r18
     93c:	8a ef       	ldi	r24, 0xFA	; 250
     93e:	90 e0       	ldi	r25, 0x00	; 0
     940:	fc 01       	movw	r30, r24
     942:	10 82       	st	Z, r1
     944:	8a 81       	ldd	r24, Y+2	; 0x02
     946:	8f 5f       	subi	r24, 0xFF	; 255
     948:	8a 83       	std	Y+2, r24	; 0x02
     94a:	8a 81       	ldd	r24, Y+2	; 0x02
     94c:	88 30       	cpi	r24, 0x08	; 8
     94e:	28 f3       	brcs	.-54     	; 0x91a <can_cfg+0x86>
     950:	89 81       	ldd	r24, Y+1	; 0x01
     952:	8f 5f       	subi	r24, 0xFF	; 255
     954:	89 83       	std	Y+1, r24	; 0x01
     956:	89 81       	ldd	r24, Y+1	; 0x01
     958:	8f 30       	cpi	r24, 0x0F	; 15
     95a:	08 f4       	brcc	.+2      	; 0x95e <can_cfg+0xca>
     95c:	a6 cf       	rjmp	.-180    	; 0x8aa <can_cfg+0x16>
     95e:	82 ee       	ldi	r24, 0xE2	; 226
     960:	90 e0       	ldi	r25, 0x00	; 0
     962:	22 e0       	ldi	r18, 0x02	; 2
     964:	fc 01       	movw	r30, r24
     966:	20 83       	st	Z, r18
     968:	83 ee       	ldi	r24, 0xE3	; 227
     96a:	90 e0       	ldi	r25, 0x00	; 0
     96c:	2c e0       	ldi	r18, 0x0C	; 12
     96e:	fc 01       	movw	r30, r24
     970:	20 83       	st	Z, r18
     972:	84 ee       	ldi	r24, 0xE4	; 228
     974:	90 e0       	ldi	r25, 0x00	; 0
     976:	27 e3       	ldi	r18, 0x37	; 55
     978:	fc 01       	movw	r30, r24
     97a:	20 83       	st	Z, r18
     97c:	8b ed       	ldi	r24, 0xDB	; 219
     97e:	90 e0       	ldi	r25, 0x00	; 0
     980:	fc 01       	movw	r30, r24
     982:	10 82       	st	Z, r1
     984:	88 ed       	ldi	r24, 0xD8	; 216
     986:	90 e0       	ldi	r25, 0x00	; 0
     988:	28 ed       	ldi	r18, 0xD8	; 216
     98a:	30 e0       	ldi	r19, 0x00	; 0
     98c:	f9 01       	movw	r30, r18
     98e:	20 81       	ld	r18, Z
     990:	22 60       	ori	r18, 0x02	; 2
     992:	fc 01       	movw	r30, r24
     994:	20 83       	st	Z, r18
     996:	00 00       	nop
     998:	0f 90       	pop	r0
     99a:	0f 90       	pop	r0
     99c:	df 91       	pop	r29
     99e:	cf 91       	pop	r28
     9a0:	08 95       	ret

000009a2 <can_rx>:
     9a2:	cf 93       	push	r28
     9a4:	df 93       	push	r29
     9a6:	00 d0       	rcall	.+0      	; 0x9a8 <can_rx+0x6>
     9a8:	00 d0       	rcall	.+0      	; 0x9aa <can_rx+0x8>
     9aa:	1f 92       	push	r1
     9ac:	cd b7       	in	r28, 0x3d	; 61
     9ae:	de b7       	in	r29, 0x3e	; 62
     9b0:	9b 83       	std	Y+3, r25	; 0x03
     9b2:	8a 83       	std	Y+2, r24	; 0x02
     9b4:	7d 83       	std	Y+5, r23	; 0x05
     9b6:	6c 83       	std	Y+4, r22	; 0x04
     9b8:	8d ee       	ldi	r24, 0xED	; 237
     9ba:	90 e0       	ldi	r25, 0x00	; 0
     9bc:	2a 81       	ldd	r18, Y+2	; 0x02
     9be:	3b 81       	ldd	r19, Y+3	; 0x03
     9c0:	f9 01       	movw	r30, r18
     9c2:	24 81       	ldd	r18, Z+4	; 0x04
     9c4:	35 81       	ldd	r19, Z+5	; 0x05
     9c6:	22 95       	swap	r18
     9c8:	20 7f       	andi	r18, 0xF0	; 240
     9ca:	fc 01       	movw	r30, r24
     9cc:	20 83       	st	Z, r18
     9ce:	8a 81       	ldd	r24, Y+2	; 0x02
     9d0:	9b 81       	ldd	r25, Y+3	; 0x03
     9d2:	fc 01       	movw	r30, r24
     9d4:	84 81       	ldd	r24, Z+4	; 0x04
     9d6:	95 81       	ldd	r25, Z+5	; 0x05
     9d8:	20 df       	rcall	.-448    	; 0x81a <can_check_free>
     9da:	88 23       	and	r24, r24
     9dc:	09 f4       	brne	.+2      	; 0x9e0 <can_rx+0x3e>
     9de:	50 c0       	rjmp	.+160    	; 0xa80 <can_rx+0xde>
     9e0:	83 ef       	ldi	r24, 0xF3	; 243
     9e2:	90 e0       	ldi	r25, 0x00	; 0
     9e4:	2a 81       	ldd	r18, Y+2	; 0x02
     9e6:	3b 81       	ldd	r19, Y+3	; 0x03
     9e8:	f9 01       	movw	r30, r18
     9ea:	20 81       	ld	r18, Z
     9ec:	31 81       	ldd	r19, Z+1	; 0x01
     9ee:	36 95       	lsr	r19
     9f0:	27 95       	ror	r18
     9f2:	36 95       	lsr	r19
     9f4:	27 95       	ror	r18
     9f6:	36 95       	lsr	r19
     9f8:	27 95       	ror	r18
     9fa:	fc 01       	movw	r30, r24
     9fc:	20 83       	st	Z, r18
     9fe:	82 ef       	ldi	r24, 0xF2	; 242
     a00:	90 e0       	ldi	r25, 0x00	; 0
     a02:	2a 81       	ldd	r18, Y+2	; 0x02
     a04:	3b 81       	ldd	r19, Y+3	; 0x03
     a06:	f9 01       	movw	r30, r18
     a08:	20 81       	ld	r18, Z
     a0a:	31 81       	ldd	r19, Z+1	; 0x01
     a0c:	22 95       	swap	r18
     a0e:	22 0f       	add	r18, r18
     a10:	20 7e       	andi	r18, 0xE0	; 224
     a12:	fc 01       	movw	r30, r24
     a14:	20 83       	st	Z, r18
     a16:	81 ef       	ldi	r24, 0xF1	; 241
     a18:	90 e0       	ldi	r25, 0x00	; 0
     a1a:	fc 01       	movw	r30, r24
     a1c:	10 82       	st	Z, r1
     a1e:	80 ef       	ldi	r24, 0xF0	; 240
     a20:	90 e0       	ldi	r25, 0x00	; 0
     a22:	24 e0       	ldi	r18, 0x04	; 4
     a24:	fc 01       	movw	r30, r24
     a26:	20 83       	st	Z, r18
     a28:	87 ef       	ldi	r24, 0xF7	; 247
     a2a:	90 e0       	ldi	r25, 0x00	; 0
     a2c:	2a 81       	ldd	r18, Y+2	; 0x02
     a2e:	3b 81       	ldd	r19, Y+3	; 0x03
     a30:	f9 01       	movw	r30, r18
     a32:	22 81       	ldd	r18, Z+2	; 0x02
     a34:	33 81       	ldd	r19, Z+3	; 0x03
     a36:	36 95       	lsr	r19
     a38:	27 95       	ror	r18
     a3a:	36 95       	lsr	r19
     a3c:	27 95       	ror	r18
     a3e:	36 95       	lsr	r19
     a40:	27 95       	ror	r18
     a42:	fc 01       	movw	r30, r24
     a44:	20 83       	st	Z, r18
     a46:	86 ef       	ldi	r24, 0xF6	; 246
     a48:	90 e0       	ldi	r25, 0x00	; 0
     a4a:	2a 81       	ldd	r18, Y+2	; 0x02
     a4c:	3b 81       	ldd	r19, Y+3	; 0x03
     a4e:	f9 01       	movw	r30, r18
     a50:	22 81       	ldd	r18, Z+2	; 0x02
     a52:	33 81       	ldd	r19, Z+3	; 0x03
     a54:	22 95       	swap	r18
     a56:	22 0f       	add	r18, r18
     a58:	20 7e       	andi	r18, 0xE0	; 224
     a5a:	fc 01       	movw	r30, r24
     a5c:	20 83       	st	Z, r18
     a5e:	85 ef       	ldi	r24, 0xF5	; 245
     a60:	90 e0       	ldi	r25, 0x00	; 0
     a62:	fc 01       	movw	r30, r24
     a64:	10 82       	st	Z, r1
     a66:	84 ef       	ldi	r24, 0xF4	; 244
     a68:	90 e0       	ldi	r25, 0x00	; 0
     a6a:	fc 01       	movw	r30, r24
     a6c:	10 82       	st	Z, r1
     a6e:	8f ee       	ldi	r24, 0xEF	; 239
     a70:	90 e0       	ldi	r25, 0x00	; 0
     a72:	28 ec       	ldi	r18, 0xC8	; 200
     a74:	fc 01       	movw	r30, r24
     a76:	20 83       	st	Z, r18
     a78:	8e ee       	ldi	r24, 0xEE	; 238
     a7a:	90 e0       	ldi	r25, 0x00	; 0
     a7c:	fc 01       	movw	r30, r24
     a7e:	10 82       	st	Z, r1
     a80:	19 82       	std	Y+1, r1	; 0x01
     a82:	1f c0       	rjmp	.+62     	; 0xac2 <can_rx+0x120>
     a84:	8d ee       	ldi	r24, 0xED	; 237
     a86:	90 e0       	ldi	r25, 0x00	; 0
     a88:	2a 81       	ldd	r18, Y+2	; 0x02
     a8a:	3b 81       	ldd	r19, Y+3	; 0x03
     a8c:	f9 01       	movw	r30, r18
     a8e:	24 81       	ldd	r18, Z+4	; 0x04
     a90:	35 81       	ldd	r19, Z+5	; 0x05
     a92:	32 2f       	mov	r19, r18
     a94:	32 95       	swap	r19
     a96:	30 7f       	andi	r19, 0xF0	; 240
     a98:	29 81       	ldd	r18, Y+1	; 0x01
     a9a:	23 2b       	or	r18, r19
     a9c:	28 60       	ori	r18, 0x08	; 8
     a9e:	fc 01       	movw	r30, r24
     aa0:	20 83       	st	Z, r18
     aa2:	89 81       	ldd	r24, Y+1	; 0x01
     aa4:	88 2f       	mov	r24, r24
     aa6:	90 e0       	ldi	r25, 0x00	; 0
     aa8:	2c 81       	ldd	r18, Y+4	; 0x04
     aaa:	3d 81       	ldd	r19, Y+5	; 0x05
     aac:	82 0f       	add	r24, r18
     aae:	93 1f       	adc	r25, r19
     ab0:	2a ef       	ldi	r18, 0xFA	; 250
     ab2:	30 e0       	ldi	r19, 0x00	; 0
     ab4:	f9 01       	movw	r30, r18
     ab6:	20 81       	ld	r18, Z
     ab8:	fc 01       	movw	r30, r24
     aba:	20 83       	st	Z, r18
     abc:	89 81       	ldd	r24, Y+1	; 0x01
     abe:	8f 5f       	subi	r24, 0xFF	; 255
     ac0:	89 83       	std	Y+1, r24	; 0x01
     ac2:	89 81       	ldd	r24, Y+1	; 0x01
     ac4:	88 30       	cpi	r24, 0x08	; 8
     ac6:	f0 f2       	brcs	.-68     	; 0xa84 <can_rx+0xe2>
     ac8:	00 00       	nop
     aca:	0f 90       	pop	r0
     acc:	0f 90       	pop	r0
     ace:	0f 90       	pop	r0
     ad0:	0f 90       	pop	r0
     ad2:	0f 90       	pop	r0
     ad4:	df 91       	pop	r29
     ad6:	cf 91       	pop	r28
     ad8:	08 95       	ret

00000ada <can_tx>:
     ada:	cf 93       	push	r28
     adc:	df 93       	push	r29
     ade:	00 d0       	rcall	.+0      	; 0xae0 <can_tx+0x6>
     ae0:	00 d0       	rcall	.+0      	; 0xae2 <can_tx+0x8>
     ae2:	1f 92       	push	r1
     ae4:	cd b7       	in	r28, 0x3d	; 61
     ae6:	de b7       	in	r29, 0x3e	; 62
     ae8:	9b 83       	std	Y+3, r25	; 0x03
     aea:	8a 83       	std	Y+2, r24	; 0x02
     aec:	7d 83       	std	Y+5, r23	; 0x05
     aee:	6c 83       	std	Y+4, r22	; 0x04
     af0:	19 82       	std	Y+1, r1	; 0x01
     af2:	1f c0       	rjmp	.+62     	; 0xb32 <can_tx+0x58>
     af4:	8d ee       	ldi	r24, 0xED	; 237
     af6:	90 e0       	ldi	r25, 0x00	; 0
     af8:	2a 81       	ldd	r18, Y+2	; 0x02
     afa:	3b 81       	ldd	r19, Y+3	; 0x03
     afc:	f9 01       	movw	r30, r18
     afe:	24 81       	ldd	r18, Z+4	; 0x04
     b00:	35 81       	ldd	r19, Z+5	; 0x05
     b02:	32 2f       	mov	r19, r18
     b04:	32 95       	swap	r19
     b06:	30 7f       	andi	r19, 0xF0	; 240
     b08:	29 81       	ldd	r18, Y+1	; 0x01
     b0a:	23 2b       	or	r18, r19
     b0c:	28 60       	ori	r18, 0x08	; 8
     b0e:	fc 01       	movw	r30, r24
     b10:	20 83       	st	Z, r18
     b12:	8a ef       	ldi	r24, 0xFA	; 250
     b14:	90 e0       	ldi	r25, 0x00	; 0
     b16:	29 81       	ldd	r18, Y+1	; 0x01
     b18:	22 2f       	mov	r18, r18
     b1a:	30 e0       	ldi	r19, 0x00	; 0
     b1c:	4c 81       	ldd	r20, Y+4	; 0x04
     b1e:	5d 81       	ldd	r21, Y+5	; 0x05
     b20:	24 0f       	add	r18, r20
     b22:	35 1f       	adc	r19, r21
     b24:	f9 01       	movw	r30, r18
     b26:	20 81       	ld	r18, Z
     b28:	fc 01       	movw	r30, r24
     b2a:	20 83       	st	Z, r18
     b2c:	89 81       	ldd	r24, Y+1	; 0x01
     b2e:	8f 5f       	subi	r24, 0xFF	; 255
     b30:	89 83       	std	Y+1, r24	; 0x01
     b32:	89 81       	ldd	r24, Y+1	; 0x01
     b34:	88 30       	cpi	r24, 0x08	; 8
     b36:	f0 f2       	brcs	.-68     	; 0xaf4 <can_tx+0x1a>
     b38:	8d ee       	ldi	r24, 0xED	; 237
     b3a:	90 e0       	ldi	r25, 0x00	; 0
     b3c:	2a 81       	ldd	r18, Y+2	; 0x02
     b3e:	3b 81       	ldd	r19, Y+3	; 0x03
     b40:	f9 01       	movw	r30, r18
     b42:	24 81       	ldd	r18, Z+4	; 0x04
     b44:	35 81       	ldd	r19, Z+5	; 0x05
     b46:	22 95       	swap	r18
     b48:	20 7f       	andi	r18, 0xF0	; 240
     b4a:	fc 01       	movw	r30, r24
     b4c:	20 83       	st	Z, r18
     b4e:	8a 81       	ldd	r24, Y+2	; 0x02
     b50:	9b 81       	ldd	r25, Y+3	; 0x03
     b52:	fc 01       	movw	r30, r24
     b54:	84 81       	ldd	r24, Z+4	; 0x04
     b56:	95 81       	ldd	r25, Z+5	; 0x05
     b58:	60 de       	rcall	.-832    	; 0x81a <can_check_free>
     b5a:	88 23       	and	r24, r24
     b5c:	09 f4       	brne	.+2      	; 0xb60 <can_tx+0x86>
     b5e:	44 c0       	rjmp	.+136    	; 0xbe8 <can_tx+0x10e>
     b60:	8e ee       	ldi	r24, 0xEE	; 238
     b62:	90 e0       	ldi	r25, 0x00	; 0
     b64:	fc 01       	movw	r30, r24
     b66:	10 82       	st	Z, r1
     b68:	83 ef       	ldi	r24, 0xF3	; 243
     b6a:	90 e0       	ldi	r25, 0x00	; 0
     b6c:	2a 81       	ldd	r18, Y+2	; 0x02
     b6e:	3b 81       	ldd	r19, Y+3	; 0x03
     b70:	f9 01       	movw	r30, r18
     b72:	20 81       	ld	r18, Z
     b74:	31 81       	ldd	r19, Z+1	; 0x01
     b76:	36 95       	lsr	r19
     b78:	27 95       	ror	r18
     b7a:	36 95       	lsr	r19
     b7c:	27 95       	ror	r18
     b7e:	36 95       	lsr	r19
     b80:	27 95       	ror	r18
     b82:	fc 01       	movw	r30, r24
     b84:	20 83       	st	Z, r18
     b86:	82 ef       	ldi	r24, 0xF2	; 242
     b88:	90 e0       	ldi	r25, 0x00	; 0
     b8a:	2a 81       	ldd	r18, Y+2	; 0x02
     b8c:	3b 81       	ldd	r19, Y+3	; 0x03
     b8e:	f9 01       	movw	r30, r18
     b90:	20 81       	ld	r18, Z
     b92:	31 81       	ldd	r19, Z+1	; 0x01
     b94:	22 95       	swap	r18
     b96:	22 0f       	add	r18, r18
     b98:	20 7e       	andi	r18, 0xE0	; 224
     b9a:	fc 01       	movw	r30, r24
     b9c:	20 83       	st	Z, r18
     b9e:	81 ef       	ldi	r24, 0xF1	; 241
     ba0:	90 e0       	ldi	r25, 0x00	; 0
     ba2:	fc 01       	movw	r30, r24
     ba4:	10 82       	st	Z, r1
     ba6:	80 ef       	ldi	r24, 0xF0	; 240
     ba8:	90 e0       	ldi	r25, 0x00	; 0
     baa:	fc 01       	movw	r30, r24
     bac:	10 82       	st	Z, r1
     bae:	87 ef       	ldi	r24, 0xF7	; 247
     bb0:	90 e0       	ldi	r25, 0x00	; 0
     bb2:	fc 01       	movw	r30, r24
     bb4:	10 82       	st	Z, r1
     bb6:	86 ef       	ldi	r24, 0xF6	; 246
     bb8:	90 e0       	ldi	r25, 0x00	; 0
     bba:	fc 01       	movw	r30, r24
     bbc:	10 82       	st	Z, r1
     bbe:	85 ef       	ldi	r24, 0xF5	; 245
     bc0:	90 e0       	ldi	r25, 0x00	; 0
     bc2:	fc 01       	movw	r30, r24
     bc4:	10 82       	st	Z, r1
     bc6:	84 ef       	ldi	r24, 0xF4	; 244
     bc8:	90 e0       	ldi	r25, 0x00	; 0
     bca:	fc 01       	movw	r30, r24
     bcc:	10 82       	st	Z, r1
     bce:	8e ee       	ldi	r24, 0xEE	; 238
     bd0:	90 e0       	ldi	r25, 0x00	; 0
     bd2:	fc 01       	movw	r30, r24
     bd4:	10 82       	st	Z, r1
     bd6:	8f ee       	ldi	r24, 0xEF	; 239
     bd8:	90 e0       	ldi	r25, 0x00	; 0
     bda:	28 e4       	ldi	r18, 0x48	; 72
     bdc:	fc 01       	movw	r30, r24
     bde:	20 83       	st	Z, r18
     be0:	8e ee       	ldi	r24, 0xEE	; 238
     be2:	90 e0       	ldi	r25, 0x00	; 0
     be4:	fc 01       	movw	r30, r24
     be6:	10 82       	st	Z, r1
     be8:	00 00       	nop
     bea:	0f 90       	pop	r0
     bec:	0f 90       	pop	r0
     bee:	0f 90       	pop	r0
     bf0:	0f 90       	pop	r0
     bf2:	0f 90       	pop	r0
     bf4:	df 91       	pop	r29
     bf6:	cf 91       	pop	r28
     bf8:	08 95       	ret

00000bfa <draw_char>:
     bfa:	cf 93       	push	r28
     bfc:	df 93       	push	r29
     bfe:	00 d0       	rcall	.+0      	; 0xc00 <draw_char+0x6>
     c00:	00 d0       	rcall	.+0      	; 0xc02 <draw_char+0x8>
     c02:	cd b7       	in	r28, 0x3d	; 61
     c04:	de b7       	in	r29, 0x3e	; 62
     c06:	9a 83       	std	Y+2, r25	; 0x02
     c08:	89 83       	std	Y+1, r24	; 0x01
     c0a:	7c 83       	std	Y+4, r23	; 0x04
     c0c:	6b 83       	std	Y+3, r22	; 0x03
     c0e:	8b 81       	ldd	r24, Y+3	; 0x03
     c10:	9c 81       	ldd	r25, Y+4	; 0x04
     c12:	fc 01       	movw	r30, r24
     c14:	81 81       	ldd	r24, Z+1	; 0x01
     c16:	84 31       	cpi	r24, 0x14	; 20
     c18:	d1 f4       	brne	.+52     	; 0xc4e <draw_char+0x54>
     c1a:	8b 81       	ldd	r24, Y+3	; 0x03
     c1c:	9c 81       	ldd	r25, Y+4	; 0x04
     c1e:	fc 01       	movw	r30, r24
     c20:	80 81       	ld	r24, Z
     c22:	88 2f       	mov	r24, r24
     c24:	90 e0       	ldi	r25, 0x00	; 0
     c26:	89 5f       	subi	r24, 0xF9	; 249
     c28:	9e 4f       	sbci	r25, 0xFE	; 254
     c2a:	fc 01       	movw	r30, r24
     c2c:	80 81       	ld	r24, Z
     c2e:	60 e0       	ldi	r22, 0x00	; 0
     c30:	aa d0       	rcall	.+340    	; 0xd86 <display_write_data>
     c32:	8b 81       	ldd	r24, Y+3	; 0x03
     c34:	9c 81       	ldd	r25, Y+4	; 0x04
     c36:	fc 01       	movw	r30, r24
     c38:	11 82       	std	Z+1, r1	; 0x01
     c3a:	8b 81       	ldd	r24, Y+3	; 0x03
     c3c:	9c 81       	ldd	r25, Y+4	; 0x04
     c3e:	fc 01       	movw	r30, r24
     c40:	80 81       	ld	r24, Z
     c42:	21 e0       	ldi	r18, 0x01	; 1
     c44:	28 0f       	add	r18, r24
     c46:	8b 81       	ldd	r24, Y+3	; 0x03
     c48:	9c 81       	ldd	r25, Y+4	; 0x04
     c4a:	fc 01       	movw	r30, r24
     c4c:	20 83       	st	Z, r18
     c4e:	8b 81       	ldd	r24, Y+3	; 0x03
     c50:	9c 81       	ldd	r25, Y+4	; 0x04
     c52:	fc 01       	movw	r30, r24
     c54:	80 81       	ld	r24, Z
     c56:	84 30       	cpi	r24, 0x04	; 4
     c58:	21 f4       	brne	.+8      	; 0xc62 <draw_char+0x68>
     c5a:	8b 81       	ldd	r24, Y+3	; 0x03
     c5c:	9c 81       	ldd	r25, Y+4	; 0x04
     c5e:	fc 01       	movw	r30, r24
     c60:	10 82       	st	Z, r1
     c62:	8b 81       	ldd	r24, Y+3	; 0x03
     c64:	9c 81       	ldd	r25, Y+4	; 0x04
     c66:	fc 01       	movw	r30, r24
     c68:	80 81       	ld	r24, Z
     c6a:	68 2f       	mov	r22, r24
     c6c:	70 e0       	ldi	r23, 0x00	; 0
     c6e:	8b 81       	ldd	r24, Y+3	; 0x03
     c70:	9c 81       	ldd	r25, Y+4	; 0x04
     c72:	fc 01       	movw	r30, r24
     c74:	81 81       	ldd	r24, Z+1	; 0x01
     c76:	88 2f       	mov	r24, r24
     c78:	90 e0       	ldi	r25, 0x00	; 0
     c7a:	49 81       	ldd	r20, Y+1	; 0x01
     c7c:	5a 81       	ldd	r21, Y+2	; 0x02
     c7e:	e4 e1       	ldi	r30, 0x14	; 20
     c80:	e6 9f       	mul	r30, r22
     c82:	90 01       	movw	r18, r0
     c84:	e7 9f       	mul	r30, r23
     c86:	30 0d       	add	r19, r0
     c88:	11 24       	eor	r1, r1
     c8a:	24 0f       	add	r18, r20
     c8c:	35 1f       	adc	r19, r21
     c8e:	82 0f       	add	r24, r18
     c90:	93 1f       	adc	r25, r19
     c92:	fc 01       	movw	r30, r24
     c94:	80 81       	ld	r24, Z
     c96:	61 e0       	ldi	r22, 0x01	; 1
     c98:	76 d0       	rcall	.+236    	; 0xd86 <display_write_data>
     c9a:	8b 81       	ldd	r24, Y+3	; 0x03
     c9c:	9c 81       	ldd	r25, Y+4	; 0x04
     c9e:	fc 01       	movw	r30, r24
     ca0:	81 81       	ldd	r24, Z+1	; 0x01
     ca2:	21 e0       	ldi	r18, 0x01	; 1
     ca4:	28 0f       	add	r18, r24
     ca6:	8b 81       	ldd	r24, Y+3	; 0x03
     ca8:	9c 81       	ldd	r25, Y+4	; 0x04
     caa:	fc 01       	movw	r30, r24
     cac:	21 83       	std	Z+1, r18	; 0x01
     cae:	00 00       	nop
     cb0:	0f 90       	pop	r0
     cb2:	0f 90       	pop	r0
     cb4:	0f 90       	pop	r0
     cb6:	0f 90       	pop	r0
     cb8:	df 91       	pop	r29
     cba:	cf 91       	pop	r28
     cbc:	08 95       	ret

00000cbe <get_empty_state>:
     cbe:	cf 93       	push	r28
     cc0:	df 93       	push	r29
     cc2:	00 d0       	rcall	.+0      	; 0xcc4 <get_empty_state+0x6>
     cc4:	cd b7       	in	r28, 0x3d	; 61
     cc6:	de b7       	in	r29, 0x3e	; 62
     cc8:	19 82       	std	Y+1, r1	; 0x01
     cca:	1a 82       	std	Y+2, r1	; 0x02
     ccc:	89 81       	ldd	r24, Y+1	; 0x01
     cce:	9a 81       	ldd	r25, Y+2	; 0x02
     cd0:	0f 90       	pop	r0
     cd2:	0f 90       	pop	r0
     cd4:	df 91       	pop	r29
     cd6:	cf 91       	pop	r28
     cd8:	08 95       	ret

00000cda <get_empty_display>:
     cda:	cf 93       	push	r28
     cdc:	df 93       	push	r29
     cde:	cd b7       	in	r28, 0x3d	; 61
     ce0:	de b7       	in	r29, 0x3e	; 62
     ce2:	c4 55       	subi	r28, 0x54	; 84
     ce4:	d1 09       	sbc	r29, r1
     ce6:	0f b6       	in	r0, 0x3f	; 63
     ce8:	f8 94       	cli
     cea:	de bf       	out	0x3e, r29	; 62
     cec:	0f be       	out	0x3f, r0	; 63
     cee:	cd bf       	out	0x3d, r28	; 61
     cf0:	9e 01       	movw	r18, r28
     cf2:	2d 5a       	subi	r18, 0xAD	; 173
     cf4:	3f 4f       	sbci	r19, 0xFF	; 255
     cf6:	f9 01       	movw	r30, r18
     cf8:	91 83       	std	Z+1, r25	; 0x01
     cfa:	80 83       	st	Z, r24
     cfc:	19 82       	std	Y+1, r1	; 0x01
     cfe:	22 c0       	rjmp	.+68     	; 0xd44 <get_empty_display+0x6a>
     d00:	1a 82       	std	Y+2, r1	; 0x02
     d02:	1a c0       	rjmp	.+52     	; 0xd38 <get_empty_display+0x5e>
     d04:	89 81       	ldd	r24, Y+1	; 0x01
     d06:	48 2f       	mov	r20, r24
     d08:	50 e0       	ldi	r21, 0x00	; 0
     d0a:	8a 81       	ldd	r24, Y+2	; 0x02
     d0c:	88 2f       	mov	r24, r24
     d0e:	90 e0       	ldi	r25, 0x00	; 0
     d10:	64 e1       	ldi	r22, 0x14	; 20
     d12:	64 9f       	mul	r22, r20
     d14:	90 01       	movw	r18, r0
     d16:	65 9f       	mul	r22, r21
     d18:	30 0d       	add	r19, r0
     d1a:	11 24       	eor	r1, r1
     d1c:	ae 01       	movw	r20, r28
     d1e:	4f 5f       	subi	r20, 0xFF	; 255
     d20:	5f 4f       	sbci	r21, 0xFF	; 255
     d22:	24 0f       	add	r18, r20
     d24:	35 1f       	adc	r19, r21
     d26:	82 0f       	add	r24, r18
     d28:	93 1f       	adc	r25, r19
     d2a:	02 96       	adiw	r24, 0x02	; 2
     d2c:	20 e1       	ldi	r18, 0x10	; 16
     d2e:	fc 01       	movw	r30, r24
     d30:	20 83       	st	Z, r18
     d32:	8a 81       	ldd	r24, Y+2	; 0x02
     d34:	8f 5f       	subi	r24, 0xFF	; 255
     d36:	8a 83       	std	Y+2, r24	; 0x02
     d38:	8a 81       	ldd	r24, Y+2	; 0x02
     d3a:	84 31       	cpi	r24, 0x14	; 20
     d3c:	18 f3       	brcs	.-58     	; 0xd04 <get_empty_display+0x2a>
     d3e:	89 81       	ldd	r24, Y+1	; 0x01
     d40:	8f 5f       	subi	r24, 0xFF	; 255
     d42:	89 83       	std	Y+1, r24	; 0x01
     d44:	89 81       	ldd	r24, Y+1	; 0x01
     d46:	84 30       	cpi	r24, 0x04	; 4
     d48:	d8 f2       	brcs	.-74     	; 0xd00 <get_empty_display+0x26>
     d4a:	ce 01       	movw	r24, r28
     d4c:	8d 5a       	subi	r24, 0xAD	; 173
     d4e:	9f 4f       	sbci	r25, 0xFF	; 255
     d50:	fc 01       	movw	r30, r24
     d52:	80 81       	ld	r24, Z
     d54:	91 81       	ldd	r25, Z+1	; 0x01
     d56:	20 e5       	ldi	r18, 0x50	; 80
     d58:	fe 01       	movw	r30, r28
     d5a:	33 96       	adiw	r30, 0x03	; 3
     d5c:	dc 01       	movw	r26, r24
     d5e:	01 90       	ld	r0, Z+
     d60:	0d 92       	st	X+, r0
     d62:	2a 95       	dec	r18
     d64:	e1 f7       	brne	.-8      	; 0xd5e <get_empty_display+0x84>
     d66:	ce 01       	movw	r24, r28
     d68:	8d 5a       	subi	r24, 0xAD	; 173
     d6a:	9f 4f       	sbci	r25, 0xFF	; 255
     d6c:	fc 01       	movw	r30, r24
     d6e:	80 81       	ld	r24, Z
     d70:	91 81       	ldd	r25, Z+1	; 0x01
     d72:	cc 5a       	subi	r28, 0xAC	; 172
     d74:	df 4f       	sbci	r29, 0xFF	; 255
     d76:	0f b6       	in	r0, 0x3f	; 63
     d78:	f8 94       	cli
     d7a:	de bf       	out	0x3e, r29	; 62
     d7c:	0f be       	out	0x3f, r0	; 63
     d7e:	cd bf       	out	0x3d, r28	; 61
     d80:	df 91       	pop	r29
     d82:	cf 91       	pop	r28
     d84:	08 95       	ret

00000d86 <display_write_data>:
     d86:	0f 93       	push	r16
     d88:	1f 93       	push	r17
     d8a:	cf 93       	push	r28
     d8c:	df 93       	push	r29
     d8e:	00 d0       	rcall	.+0      	; 0xd90 <display_write_data+0xa>
     d90:	00 d0       	rcall	.+0      	; 0xd92 <display_write_data+0xc>
     d92:	cd b7       	in	r28, 0x3d	; 61
     d94:	de b7       	in	r29, 0x3e	; 62
     d96:	8b 83       	std	Y+3, r24	; 0x03
     d98:	6c 83       	std	Y+4, r22	; 0x04
     d9a:	0e e2       	ldi	r16, 0x2E	; 46
     d9c:	10 e0       	ldi	r17, 0x00	; 0
     d9e:	8b 81       	ldd	r24, Y+3	; 0x03
     da0:	0e 94 83 13 	call	0x2706	; 0x2706 <invert_binary_number>
     da4:	f8 01       	movw	r30, r16
     da6:	80 83       	st	Z, r24
     da8:	8c 81       	ldd	r24, Y+4	; 0x04
     daa:	81 30       	cpi	r24, 0x01	; 1
     dac:	51 f4       	brne	.+20     	; 0xdc2 <display_write_data+0x3c>
     dae:	85 e2       	ldi	r24, 0x25	; 37
     db0:	90 e0       	ldi	r25, 0x00	; 0
     db2:	25 e2       	ldi	r18, 0x25	; 37
     db4:	30 e0       	ldi	r19, 0x00	; 0
     db6:	f9 01       	movw	r30, r18
     db8:	20 81       	ld	r18, Z
     dba:	20 64       	ori	r18, 0x40	; 64
     dbc:	fc 01       	movw	r30, r24
     dbe:	20 83       	st	Z, r18
     dc0:	09 c0       	rjmp	.+18     	; 0xdd4 <display_write_data+0x4e>
     dc2:	85 e2       	ldi	r24, 0x25	; 37
     dc4:	90 e0       	ldi	r25, 0x00	; 0
     dc6:	25 e2       	ldi	r18, 0x25	; 37
     dc8:	30 e0       	ldi	r19, 0x00	; 0
     dca:	f9 01       	movw	r30, r18
     dcc:	20 81       	ld	r18, Z
     dce:	2f 7b       	andi	r18, 0xBF	; 191
     dd0:	fc 01       	movw	r30, r24
     dd2:	20 83       	st	Z, r18
     dd4:	85 e2       	ldi	r24, 0x25	; 37
     dd6:	90 e0       	ldi	r25, 0x00	; 0
     dd8:	25 e2       	ldi	r18, 0x25	; 37
     dda:	30 e0       	ldi	r19, 0x00	; 0
     ddc:	f9 01       	movw	r30, r18
     dde:	20 81       	ld	r18, Z
     de0:	20 61       	ori	r18, 0x10	; 16
     de2:	fc 01       	movw	r30, r24
     de4:	20 83       	st	Z, r18
     de6:	1a 82       	std	Y+2, r1	; 0x02
     de8:	19 82       	std	Y+1, r1	; 0x01
     dea:	0e c0       	rjmp	.+28     	; 0xe08 <display_write_data+0x82>
     dec:	85 e2       	ldi	r24, 0x25	; 37
     dee:	90 e0       	ldi	r25, 0x00	; 0
     df0:	25 e2       	ldi	r18, 0x25	; 37
     df2:	30 e0       	ldi	r19, 0x00	; 0
     df4:	f9 01       	movw	r30, r18
     df6:	20 81       	ld	r18, Z
     df8:	2f 7e       	andi	r18, 0xEF	; 239
     dfa:	fc 01       	movw	r30, r24
     dfc:	20 83       	st	Z, r18
     dfe:	89 81       	ldd	r24, Y+1	; 0x01
     e00:	9a 81       	ldd	r25, Y+2	; 0x02
     e02:	01 96       	adiw	r24, 0x01	; 1
     e04:	9a 83       	std	Y+2, r25	; 0x02
     e06:	89 83       	std	Y+1, r24	; 0x01
     e08:	89 81       	ldd	r24, Y+1	; 0x01
     e0a:	9a 81       	ldd	r25, Y+2	; 0x02
     e0c:	84 36       	cpi	r24, 0x64	; 100
     e0e:	91 05       	cpc	r25, r1
     e10:	6c f3       	brlt	.-38     	; 0xdec <display_write_data+0x66>
     e12:	00 00       	nop
     e14:	0f 90       	pop	r0
     e16:	0f 90       	pop	r0
     e18:	0f 90       	pop	r0
     e1a:	0f 90       	pop	r0
     e1c:	df 91       	pop	r29
     e1e:	cf 91       	pop	r28
     e20:	1f 91       	pop	r17
     e22:	0f 91       	pop	r16
     e24:	08 95       	ret

00000e26 <display_definechars>:
     e26:	8f 92       	push	r8
     e28:	af 92       	push	r10
     e2a:	cf 92       	push	r12
     e2c:	ef 92       	push	r14
     e2e:	0f 93       	push	r16
     e30:	cf 93       	push	r28
     e32:	df 93       	push	r29
     e34:	cd b7       	in	r28, 0x3d	; 61
     e36:	de b7       	in	r29, 0x3e	; 62
     e38:	81 2c       	mov	r8, r1
     e3a:	a1 2c       	mov	r10, r1
     e3c:	c1 2c       	mov	r12, r1
     e3e:	e1 2c       	mov	r14, r1
     e40:	00 e0       	ldi	r16, 0x00	; 0
     e42:	20 e0       	ldi	r18, 0x00	; 0
     e44:	4f e1       	ldi	r20, 0x1F	; 31
     e46:	6f e1       	ldi	r22, 0x1F	; 31
     e48:	81 e0       	ldi	r24, 0x01	; 1
     e4a:	7a d0       	rcall	.+244    	; 0xf40 <display_customchar>
     e4c:	0f 2e       	mov	r0, r31
     e4e:	ff ee       	ldi	r31, 0xEF	; 239
     e50:	8f 2e       	mov	r8, r31
     e52:	f0 2d       	mov	r31, r0
     e54:	0f 2e       	mov	r0, r31
     e56:	ff ee       	ldi	r31, 0xEF	; 239
     e58:	af 2e       	mov	r10, r31
     e5a:	f0 2d       	mov	r31, r0
     e5c:	0f 2e       	mov	r0, r31
     e5e:	ff ee       	ldi	r31, 0xEF	; 239
     e60:	cf 2e       	mov	r12, r31
     e62:	f0 2d       	mov	r31, r0
     e64:	0f 2e       	mov	r0, r31
     e66:	ff ee       	ldi	r31, 0xEF	; 239
     e68:	ef 2e       	mov	r14, r31
     e6a:	f0 2d       	mov	r31, r0
     e6c:	0f ee       	ldi	r16, 0xEF	; 239
     e6e:	2f ee       	ldi	r18, 0xEF	; 239
     e70:	4f ee       	ldi	r20, 0xEF	; 239
     e72:	6f ee       	ldi	r22, 0xEF	; 239
     e74:	82 e0       	ldi	r24, 0x02	; 2
     e76:	64 d0       	rcall	.+200    	; 0xf40 <display_customchar>
     e78:	0f 2e       	mov	r0, r31
     e7a:	fe e1       	ldi	r31, 0x1E	; 30
     e7c:	8f 2e       	mov	r8, r31
     e7e:	f0 2d       	mov	r31, r0
     e80:	0f 2e       	mov	r0, r31
     e82:	fe e1       	ldi	r31, 0x1E	; 30
     e84:	af 2e       	mov	r10, r31
     e86:	f0 2d       	mov	r31, r0
     e88:	0f 2e       	mov	r0, r31
     e8a:	fe e1       	ldi	r31, 0x1E	; 30
     e8c:	cf 2e       	mov	r12, r31
     e8e:	f0 2d       	mov	r31, r0
     e90:	0f 2e       	mov	r0, r31
     e92:	fe e1       	ldi	r31, 0x1E	; 30
     e94:	ef 2e       	mov	r14, r31
     e96:	f0 2d       	mov	r31, r0
     e98:	0e e1       	ldi	r16, 0x1E	; 30
     e9a:	2e e1       	ldi	r18, 0x1E	; 30
     e9c:	4e e1       	ldi	r20, 0x1E	; 30
     e9e:	6e e1       	ldi	r22, 0x1E	; 30
     ea0:	83 e0       	ldi	r24, 0x03	; 3
     ea2:	4e d0       	rcall	.+156    	; 0xf40 <display_customchar>
     ea4:	81 2c       	mov	r8, r1
     ea6:	a1 2c       	mov	r10, r1
     ea8:	c1 2c       	mov	r12, r1
     eaa:	e1 2c       	mov	r14, r1
     eac:	0f ef       	ldi	r16, 0xFF	; 255
     eae:	2f ef       	ldi	r18, 0xFF	; 255
     eb0:	4f ef       	ldi	r20, 0xFF	; 255
     eb2:	6f ef       	ldi	r22, 0xFF	; 255
     eb4:	84 e0       	ldi	r24, 0x04	; 4
     eb6:	44 d0       	rcall	.+136    	; 0xf40 <display_customchar>
     eb8:	0f 2e       	mov	r0, r31
     eba:	ff ee       	ldi	r31, 0xEF	; 239
     ebc:	8f 2e       	mov	r8, r31
     ebe:	f0 2d       	mov	r31, r0
     ec0:	0f 2e       	mov	r0, r31
     ec2:	ff ee       	ldi	r31, 0xEF	; 239
     ec4:	af 2e       	mov	r10, r31
     ec6:	f0 2d       	mov	r31, r0
     ec8:	0f 2e       	mov	r0, r31
     eca:	ff ee       	ldi	r31, 0xEF	; 239
     ecc:	cf 2e       	mov	r12, r31
     ece:	f0 2d       	mov	r31, r0
     ed0:	0f 2e       	mov	r0, r31
     ed2:	ff ee       	ldi	r31, 0xEF	; 239
     ed4:	ef 2e       	mov	r14, r31
     ed6:	f0 2d       	mov	r31, r0
     ed8:	0f ef       	ldi	r16, 0xFF	; 255
     eda:	2f ef       	ldi	r18, 0xFF	; 255
     edc:	4f ef       	ldi	r20, 0xFF	; 255
     ede:	6f ef       	ldi	r22, 0xFF	; 255
     ee0:	85 e0       	ldi	r24, 0x05	; 5
     ee2:	2e d0       	rcall	.+92     	; 0xf40 <display_customchar>
     ee4:	81 2c       	mov	r8, r1
     ee6:	68 94       	set
     ee8:	aa 24       	eor	r10, r10
     eea:	a1 f8       	bld	r10, 1
     eec:	0f 2e       	mov	r0, r31
     eee:	f5 e1       	ldi	r31, 0x15	; 21
     ef0:	cf 2e       	mov	r12, r31
     ef2:	f0 2d       	mov	r31, r0
     ef4:	0f 2e       	mov	r0, r31
     ef6:	fa e0       	ldi	r31, 0x0A	; 10
     ef8:	ef 2e       	mov	r14, r31
     efa:	f0 2d       	mov	r31, r0
     efc:	04 e0       	ldi	r16, 0x04	; 4
     efe:	2a e0       	ldi	r18, 0x0A	; 10
     f00:	45 e1       	ldi	r20, 0x15	; 21
     f02:	68 e0       	ldi	r22, 0x08	; 8
     f04:	86 e0       	ldi	r24, 0x06	; 6
     f06:	1c d0       	rcall	.+56     	; 0xf40 <display_customchar>
     f08:	0f 2e       	mov	r0, r31
     f0a:	ff e1       	ldi	r31, 0x1F	; 31
     f0c:	8f 2e       	mov	r8, r31
     f0e:	f0 2d       	mov	r31, r0
     f10:	0f 2e       	mov	r0, r31
     f12:	ff e1       	ldi	r31, 0x1F	; 31
     f14:	af 2e       	mov	r10, r31
     f16:	f0 2d       	mov	r31, r0
     f18:	0f 2e       	mov	r0, r31
     f1a:	ff e1       	ldi	r31, 0x1F	; 31
     f1c:	cf 2e       	mov	r12, r31
     f1e:	f0 2d       	mov	r31, r0
     f20:	e1 2c       	mov	r14, r1
     f22:	00 e0       	ldi	r16, 0x00	; 0
     f24:	20 e0       	ldi	r18, 0x00	; 0
     f26:	40 e0       	ldi	r20, 0x00	; 0
     f28:	60 e0       	ldi	r22, 0x00	; 0
     f2a:	87 e0       	ldi	r24, 0x07	; 7
     f2c:	09 d0       	rcall	.+18     	; 0xf40 <display_customchar>
     f2e:	00 00       	nop
     f30:	df 91       	pop	r29
     f32:	cf 91       	pop	r28
     f34:	0f 91       	pop	r16
     f36:	ef 90       	pop	r14
     f38:	cf 90       	pop	r12
     f3a:	af 90       	pop	r10
     f3c:	8f 90       	pop	r8
     f3e:	08 95       	ret

00000f40 <display_customchar>:
     f40:	8f 92       	push	r8
     f42:	af 92       	push	r10
     f44:	cf 92       	push	r12
     f46:	ef 92       	push	r14
     f48:	0f 93       	push	r16
     f4a:	cf 93       	push	r28
     f4c:	df 93       	push	r29
     f4e:	cd b7       	in	r28, 0x3d	; 61
     f50:	de b7       	in	r29, 0x3e	; 62
     f52:	29 97       	sbiw	r28, 0x09	; 9
     f54:	0f b6       	in	r0, 0x3f	; 63
     f56:	f8 94       	cli
     f58:	de bf       	out	0x3e, r29	; 62
     f5a:	0f be       	out	0x3f, r0	; 63
     f5c:	cd bf       	out	0x3d, r28	; 61
     f5e:	89 83       	std	Y+1, r24	; 0x01
     f60:	6a 83       	std	Y+2, r22	; 0x02
     f62:	4b 83       	std	Y+3, r20	; 0x03
     f64:	2c 83       	std	Y+4, r18	; 0x04
     f66:	0d 83       	std	Y+5, r16	; 0x05
     f68:	ee 82       	std	Y+6, r14	; 0x06
     f6a:	cf 82       	std	Y+7, r12	; 0x07
     f6c:	a8 86       	std	Y+8, r10	; 0x08
     f6e:	89 86       	std	Y+9, r8	; 0x09
     f70:	89 81       	ldd	r24, Y+1	; 0x01
     f72:	88 2f       	mov	r24, r24
     f74:	90 e0       	ldi	r25, 0x00	; 0
     f76:	08 96       	adiw	r24, 0x08	; 8
     f78:	88 0f       	add	r24, r24
     f7a:	88 0f       	add	r24, r24
     f7c:	88 0f       	add	r24, r24
     f7e:	60 e0       	ldi	r22, 0x00	; 0
     f80:	02 df       	rcall	.-508    	; 0xd86 <display_write_data>
     f82:	61 e0       	ldi	r22, 0x01	; 1
     f84:	8a 81       	ldd	r24, Y+2	; 0x02
     f86:	ff de       	rcall	.-514    	; 0xd86 <display_write_data>
     f88:	61 e0       	ldi	r22, 0x01	; 1
     f8a:	8b 81       	ldd	r24, Y+3	; 0x03
     f8c:	fc de       	rcall	.-520    	; 0xd86 <display_write_data>
     f8e:	61 e0       	ldi	r22, 0x01	; 1
     f90:	8c 81       	ldd	r24, Y+4	; 0x04
     f92:	f9 de       	rcall	.-526    	; 0xd86 <display_write_data>
     f94:	61 e0       	ldi	r22, 0x01	; 1
     f96:	8d 81       	ldd	r24, Y+5	; 0x05
     f98:	f6 de       	rcall	.-532    	; 0xd86 <display_write_data>
     f9a:	61 e0       	ldi	r22, 0x01	; 1
     f9c:	8e 81       	ldd	r24, Y+6	; 0x06
     f9e:	f3 de       	rcall	.-538    	; 0xd86 <display_write_data>
     fa0:	61 e0       	ldi	r22, 0x01	; 1
     fa2:	8f 81       	ldd	r24, Y+7	; 0x07
     fa4:	f0 de       	rcall	.-544    	; 0xd86 <display_write_data>
     fa6:	61 e0       	ldi	r22, 0x01	; 1
     fa8:	88 85       	ldd	r24, Y+8	; 0x08
     faa:	ed de       	rcall	.-550    	; 0xd86 <display_write_data>
     fac:	61 e0       	ldi	r22, 0x01	; 1
     fae:	89 85       	ldd	r24, Y+9	; 0x09
     fb0:	ea de       	rcall	.-556    	; 0xd86 <display_write_data>
     fb2:	60 e0       	ldi	r22, 0x00	; 0
     fb4:	82 e0       	ldi	r24, 0x02	; 2
     fb6:	e7 de       	rcall	.-562    	; 0xd86 <display_write_data>
     fb8:	00 00       	nop
     fba:	29 96       	adiw	r28, 0x09	; 9
     fbc:	0f b6       	in	r0, 0x3f	; 63
     fbe:	f8 94       	cli
     fc0:	de bf       	out	0x3e, r29	; 62
     fc2:	0f be       	out	0x3f, r0	; 63
     fc4:	cd bf       	out	0x3d, r28	; 61
     fc6:	df 91       	pop	r29
     fc8:	cf 91       	pop	r28
     fca:	0f 91       	pop	r16
     fcc:	ef 90       	pop	r14
     fce:	cf 90       	pop	r12
     fd0:	af 90       	pop	r10
     fd2:	8f 90       	pop	r8
     fd4:	08 95       	ret

00000fd6 <display_write_str>:
     fd6:	cf 93       	push	r28
     fd8:	df 93       	push	r29
     fda:	cd b7       	in	r28, 0x3d	; 61
     fdc:	de b7       	in	r29, 0x3e	; 62
     fde:	27 97       	sbiw	r28, 0x07	; 7
     fe0:	0f b6       	in	r0, 0x3f	; 63
     fe2:	f8 94       	cli
     fe4:	de bf       	out	0x3e, r29	; 62
     fe6:	0f be       	out	0x3f, r0	; 63
     fe8:	cd bf       	out	0x3d, r28	; 61
     fea:	9b 83       	std	Y+3, r25	; 0x03
     fec:	8a 83       	std	Y+2, r24	; 0x02
     fee:	7d 83       	std	Y+5, r23	; 0x05
     ff0:	6c 83       	std	Y+4, r22	; 0x04
     ff2:	4e 83       	std	Y+6, r20	; 0x06
     ff4:	2f 83       	std	Y+7, r18	; 0x07
     ff6:	19 82       	std	Y+1, r1	; 0x01
     ff8:	25 c0       	rjmp	.+74     	; 0x1044 <__DATA_REGION_LENGTH__+0x44>
     ffa:	8e 81       	ldd	r24, Y+6	; 0x06
     ffc:	68 2f       	mov	r22, r24
     ffe:	70 e0       	ldi	r23, 0x00	; 0
    1000:	89 81       	ldd	r24, Y+1	; 0x01
    1002:	28 2f       	mov	r18, r24
    1004:	30 e0       	ldi	r19, 0x00	; 0
    1006:	8f 81       	ldd	r24, Y+7	; 0x07
    1008:	88 2f       	mov	r24, r24
    100a:	90 e0       	ldi	r25, 0x00	; 0
    100c:	82 0f       	add	r24, r18
    100e:	93 1f       	adc	r25, r19
    1010:	29 81       	ldd	r18, Y+1	; 0x01
    1012:	22 2f       	mov	r18, r18
    1014:	30 e0       	ldi	r19, 0x00	; 0
    1016:	4c 81       	ldd	r20, Y+4	; 0x04
    1018:	5d 81       	ldd	r21, Y+5	; 0x05
    101a:	24 0f       	add	r18, r20
    101c:	35 1f       	adc	r19, r21
    101e:	d9 01       	movw	r26, r18
    1020:	ec 91       	ld	r30, X
    1022:	4a 81       	ldd	r20, Y+2	; 0x02
    1024:	5b 81       	ldd	r21, Y+3	; 0x03
    1026:	f4 e1       	ldi	r31, 0x14	; 20
    1028:	f6 9f       	mul	r31, r22
    102a:	90 01       	movw	r18, r0
    102c:	f7 9f       	mul	r31, r23
    102e:	30 0d       	add	r19, r0
    1030:	11 24       	eor	r1, r1
    1032:	24 0f       	add	r18, r20
    1034:	35 1f       	adc	r19, r21
    1036:	82 0f       	add	r24, r18
    1038:	93 1f       	adc	r25, r19
    103a:	dc 01       	movw	r26, r24
    103c:	ec 93       	st	X, r30
    103e:	89 81       	ldd	r24, Y+1	; 0x01
    1040:	8f 5f       	subi	r24, 0xFF	; 255
    1042:	89 83       	std	Y+1, r24	; 0x01
    1044:	89 81       	ldd	r24, Y+1	; 0x01
    1046:	88 2f       	mov	r24, r24
    1048:	90 e0       	ldi	r25, 0x00	; 0
    104a:	2c 81       	ldd	r18, Y+4	; 0x04
    104c:	3d 81       	ldd	r19, Y+5	; 0x05
    104e:	82 0f       	add	r24, r18
    1050:	93 1f       	adc	r25, r19
    1052:	fc 01       	movw	r30, r24
    1054:	80 81       	ld	r24, Z
    1056:	88 23       	and	r24, r24
    1058:	51 f0       	breq	.+20     	; 0x106e <__DATA_REGION_LENGTH__+0x6e>
    105a:	8f 81       	ldd	r24, Y+7	; 0x07
    105c:	28 2f       	mov	r18, r24
    105e:	30 e0       	ldi	r19, 0x00	; 0
    1060:	89 81       	ldd	r24, Y+1	; 0x01
    1062:	88 2f       	mov	r24, r24
    1064:	90 e0       	ldi	r25, 0x00	; 0
    1066:	82 0f       	add	r24, r18
    1068:	93 1f       	adc	r25, r19
    106a:	44 97       	sbiw	r24, 0x14	; 20
    106c:	34 f2       	brlt	.-116    	; 0xffa <display_write_str+0x24>
    106e:	00 00       	nop
    1070:	27 96       	adiw	r28, 0x07	; 7
    1072:	0f b6       	in	r0, 0x3f	; 63
    1074:	f8 94       	cli
    1076:	de bf       	out	0x3e, r29	; 62
    1078:	0f be       	out	0x3f, r0	; 63
    107a:	cd bf       	out	0x3d, r28	; 61
    107c:	df 91       	pop	r29
    107e:	cf 91       	pop	r28
    1080:	08 95       	ret

00001082 <init_display>:
    1082:	cf 93       	push	r28
    1084:	df 93       	push	r29
    1086:	00 d0       	rcall	.+0      	; 0x1088 <init_display+0x6>
    1088:	cd b7       	in	r28, 0x3d	; 61
    108a:	de b7       	in	r29, 0x3e	; 62
    108c:	1a 82       	std	Y+2, r1	; 0x02
    108e:	19 82       	std	Y+1, r1	; 0x01
    1090:	0d c0       	rjmp	.+26     	; 0x10ac <init_display+0x2a>
    1092:	89 81       	ldd	r24, Y+1	; 0x01
    1094:	9a 81       	ldd	r25, Y+2	; 0x02
    1096:	80 50       	subi	r24, 0x00	; 0
    1098:	9f 4f       	sbci	r25, 0xFF	; 255
    109a:	fc 01       	movw	r30, r24
    109c:	80 81       	ld	r24, Z
    109e:	60 e0       	ldi	r22, 0x00	; 0
    10a0:	72 de       	rcall	.-796    	; 0xd86 <display_write_data>
    10a2:	89 81       	ldd	r24, Y+1	; 0x01
    10a4:	9a 81       	ldd	r25, Y+2	; 0x02
    10a6:	01 96       	adiw	r24, 0x01	; 1
    10a8:	9a 83       	std	Y+2, r25	; 0x02
    10aa:	89 83       	std	Y+1, r24	; 0x01
    10ac:	89 81       	ldd	r24, Y+1	; 0x01
    10ae:	9a 81       	ldd	r25, Y+2	; 0x02
    10b0:	07 97       	sbiw	r24, 0x07	; 7
    10b2:	7c f3       	brlt	.-34     	; 0x1092 <init_display+0x10>
    10b4:	00 00       	nop
    10b6:	0f 90       	pop	r0
    10b8:	0f 90       	pop	r0
    10ba:	df 91       	pop	r29
    10bc:	cf 91       	pop	r28
    10be:	08 95       	ret

000010c0 <display_main>:
    10c0:	cf 93       	push	r28
    10c2:	df 93       	push	r29
    10c4:	00 d0       	rcall	.+0      	; 0x10c6 <display_main+0x6>
    10c6:	00 d0       	rcall	.+0      	; 0x10c8 <display_main+0x8>
    10c8:	cd b7       	in	r28, 0x3d	; 61
    10ca:	de b7       	in	r29, 0x3e	; 62
    10cc:	9c 83       	std	Y+4, r25	; 0x04
    10ce:	8b 83       	std	Y+3, r24	; 0x03
    10d0:	19 82       	std	Y+1, r1	; 0x01
    10d2:	1a 82       	std	Y+2, r1	; 0x02
    10d4:	80 e2       	ldi	r24, 0x20	; 32
    10d6:	90 e0       	ldi	r25, 0x00	; 0
    10d8:	fc 01       	movw	r30, r24
    10da:	80 81       	ld	r24, Z
    10dc:	88 2f       	mov	r24, r24
    10de:	90 e0       	ldi	r25, 0x00	; 0
    10e0:	81 70       	andi	r24, 0x01	; 1
    10e2:	99 27       	eor	r25, r25
    10e4:	21 e0       	ldi	r18, 0x01	; 1
    10e6:	89 2b       	or	r24, r25
    10e8:	09 f0       	breq	.+2      	; 0x10ec <display_main+0x2c>
    10ea:	20 e0       	ldi	r18, 0x00	; 0
    10ec:	29 83       	std	Y+1, r18	; 0x01
    10ee:	80 e2       	ldi	r24, 0x20	; 32
    10f0:	90 e0       	ldi	r25, 0x00	; 0
    10f2:	fc 01       	movw	r30, r24
    10f4:	80 81       	ld	r24, Z
    10f6:	88 2f       	mov	r24, r24
    10f8:	90 e0       	ldi	r25, 0x00	; 0
    10fa:	80 95       	com	r24
    10fc:	90 95       	com	r25
    10fe:	82 70       	andi	r24, 0x02	; 2
    1100:	99 27       	eor	r25, r25
    1102:	95 95       	asr	r25
    1104:	87 95       	ror	r24
    1106:	8a 83       	std	Y+2, r24	; 0x02
    1108:	8b 81       	ldd	r24, Y+3	; 0x03
    110a:	9c 81       	ldd	r25, Y+4	; 0x04
    110c:	20 e0       	ldi	r18, 0x00	; 0
    110e:	40 e0       	ldi	r20, 0x00	; 0
    1110:	6c e0       	ldi	r22, 0x0C	; 12
    1112:	71 e0       	ldi	r23, 0x01	; 1
    1114:	60 df       	rcall	.-320    	; 0xfd6 <display_write_str>
    1116:	8b 81       	ldd	r24, Y+3	; 0x03
    1118:	9c 81       	ldd	r25, Y+4	; 0x04
    111a:	20 e0       	ldi	r18, 0x00	; 0
    111c:	41 e0       	ldi	r20, 0x01	; 1
    111e:	61 e2       	ldi	r22, 0x21	; 33
    1120:	71 e0       	ldi	r23, 0x01	; 1
    1122:	59 df       	rcall	.-334    	; 0xfd6 <display_write_str>
    1124:	8b 81       	ldd	r24, Y+3	; 0x03
    1126:	9c 81       	ldd	r25, Y+4	; 0x04
    1128:	20 e0       	ldi	r18, 0x00	; 0
    112a:	42 e0       	ldi	r20, 0x02	; 2
    112c:	66 e3       	ldi	r22, 0x36	; 54
    112e:	71 e0       	ldi	r23, 0x01	; 1
    1130:	52 df       	rcall	.-348    	; 0xfd6 <display_write_str>
    1132:	8b 81       	ldd	r24, Y+3	; 0x03
    1134:	9c 81       	ldd	r25, Y+4	; 0x04
    1136:	20 e0       	ldi	r18, 0x00	; 0
    1138:	43 e0       	ldi	r20, 0x03	; 3
    113a:	6b e4       	ldi	r22, 0x4B	; 75
    113c:	71 e0       	ldi	r23, 0x01	; 1
    113e:	4b df       	rcall	.-362    	; 0xfd6 <display_write_str>
    1140:	40 91 7d 02 	lds	r20, 0x027D	; 0x80027d <motor_temp>
    1144:	50 91 7e 02 	lds	r21, 0x027E	; 0x80027e <motor_temp+0x1>
    1148:	9a 01       	movw	r18, r20
    114a:	ad ec       	ldi	r26, 0xCD	; 205
    114c:	bc ec       	ldi	r27, 0xCC	; 204
    114e:	0e 94 ff 1a 	call	0x35fe	; 0x35fe <__umulhisi3>
    1152:	96 95       	lsr	r25
    1154:	87 95       	ror	r24
    1156:	96 95       	lsr	r25
    1158:	87 95       	ror	r24
    115a:	96 95       	lsr	r25
    115c:	87 95       	ror	r24
    115e:	88 0f       	add	r24, r24
    1160:	99 1f       	adc	r25, r25
    1162:	9c 01       	movw	r18, r24
    1164:	22 0f       	add	r18, r18
    1166:	33 1f       	adc	r19, r19
    1168:	22 0f       	add	r18, r18
    116a:	33 1f       	adc	r19, r19
    116c:	82 0f       	add	r24, r18
    116e:	93 1f       	adc	r25, r19
    1170:	9a 01       	movw	r18, r20
    1172:	28 1b       	sub	r18, r24
    1174:	39 0b       	sbc	r19, r25
    1176:	c9 01       	movw	r24, r18
    1178:	28 2f       	mov	r18, r24
    117a:	8b 81       	ldd	r24, Y+3	; 0x03
    117c:	9c 81       	ldd	r25, Y+4	; 0x04
    117e:	40 e0       	ldi	r20, 0x00	; 0
    1180:	62 e1       	ldi	r22, 0x12	; 18
    1182:	0e 94 f6 12 	call	0x25ec	; 0x25ec <display_small_number>
    1186:	80 91 7d 02 	lds	r24, 0x027D	; 0x80027d <motor_temp>
    118a:	90 91 7e 02 	lds	r25, 0x027E	; 0x80027e <motor_temp+0x1>
    118e:	9c 01       	movw	r18, r24
    1190:	ad ec       	ldi	r26, 0xCD	; 205
    1192:	bc ec       	ldi	r27, 0xCC	; 204
    1194:	0e 94 ff 1a 	call	0x35fe	; 0x35fe <__umulhisi3>
    1198:	ac 01       	movw	r20, r24
    119a:	56 95       	lsr	r21
    119c:	47 95       	ror	r20
    119e:	56 95       	lsr	r21
    11a0:	47 95       	ror	r20
    11a2:	56 95       	lsr	r21
    11a4:	47 95       	ror	r20
    11a6:	9a 01       	movw	r18, r20
    11a8:	ad ec       	ldi	r26, 0xCD	; 205
    11aa:	bc ec       	ldi	r27, 0xCC	; 204
    11ac:	0e 94 ff 1a 	call	0x35fe	; 0x35fe <__umulhisi3>
    11b0:	96 95       	lsr	r25
    11b2:	87 95       	ror	r24
    11b4:	96 95       	lsr	r25
    11b6:	87 95       	ror	r24
    11b8:	96 95       	lsr	r25
    11ba:	87 95       	ror	r24
    11bc:	88 0f       	add	r24, r24
    11be:	99 1f       	adc	r25, r25
    11c0:	9c 01       	movw	r18, r24
    11c2:	22 0f       	add	r18, r18
    11c4:	33 1f       	adc	r19, r19
    11c6:	22 0f       	add	r18, r18
    11c8:	33 1f       	adc	r19, r19
    11ca:	82 0f       	add	r24, r18
    11cc:	93 1f       	adc	r25, r19
    11ce:	fa 01       	movw	r30, r20
    11d0:	e8 1b       	sub	r30, r24
    11d2:	f9 0b       	sbc	r31, r25
    11d4:	cf 01       	movw	r24, r30
    11d6:	28 2f       	mov	r18, r24
    11d8:	8b 81       	ldd	r24, Y+3	; 0x03
    11da:	9c 81       	ldd	r25, Y+4	; 0x04
    11dc:	40 e0       	ldi	r20, 0x00	; 0
    11de:	60 e1       	ldi	r22, 0x10	; 16
    11e0:	0e 94 f6 12 	call	0x25ec	; 0x25ec <display_small_number>
    11e4:	80 91 7d 02 	lds	r24, 0x027D	; 0x80027d <motor_temp>
    11e8:	90 91 7e 02 	lds	r25, 0x027E	; 0x80027e <motor_temp+0x1>
    11ec:	96 95       	lsr	r25
    11ee:	87 95       	ror	r24
    11f0:	96 95       	lsr	r25
    11f2:	87 95       	ror	r24
    11f4:	9c 01       	movw	r18, r24
    11f6:	ab e7       	ldi	r26, 0x7B	; 123
    11f8:	b4 e1       	ldi	r27, 0x14	; 20
    11fa:	0e 94 ff 1a 	call	0x35fe	; 0x35fe <__umulhisi3>
    11fe:	ac 01       	movw	r20, r24
    1200:	56 95       	lsr	r21
    1202:	47 95       	ror	r20
    1204:	9a 01       	movw	r18, r20
    1206:	ad ec       	ldi	r26, 0xCD	; 205
    1208:	bc ec       	ldi	r27, 0xCC	; 204
    120a:	0e 94 ff 1a 	call	0x35fe	; 0x35fe <__umulhisi3>
    120e:	96 95       	lsr	r25
    1210:	87 95       	ror	r24
    1212:	96 95       	lsr	r25
    1214:	87 95       	ror	r24
    1216:	96 95       	lsr	r25
    1218:	87 95       	ror	r24
    121a:	88 0f       	add	r24, r24
    121c:	99 1f       	adc	r25, r25
    121e:	9c 01       	movw	r18, r24
    1220:	22 0f       	add	r18, r18
    1222:	33 1f       	adc	r19, r19
    1224:	22 0f       	add	r18, r18
    1226:	33 1f       	adc	r19, r19
    1228:	82 0f       	add	r24, r18
    122a:	93 1f       	adc	r25, r19
    122c:	9a 01       	movw	r18, r20
    122e:	28 1b       	sub	r18, r24
    1230:	39 0b       	sbc	r19, r25
    1232:	c9 01       	movw	r24, r18
    1234:	28 2f       	mov	r18, r24
    1236:	8b 81       	ldd	r24, Y+3	; 0x03
    1238:	9c 81       	ldd	r25, Y+4	; 0x04
    123a:	40 e0       	ldi	r20, 0x00	; 0
    123c:	6f e0       	ldi	r22, 0x0F	; 15
    123e:	0e 94 f6 12 	call	0x25ec	; 0x25ec <display_small_number>
    1242:	40 91 7f 02 	lds	r20, 0x027F	; 0x80027f <mcu_temp>
    1246:	50 91 80 02 	lds	r21, 0x0280	; 0x800280 <mcu_temp+0x1>
    124a:	9a 01       	movw	r18, r20
    124c:	ad ec       	ldi	r26, 0xCD	; 205
    124e:	bc ec       	ldi	r27, 0xCC	; 204
    1250:	0e 94 ff 1a 	call	0x35fe	; 0x35fe <__umulhisi3>
    1254:	96 95       	lsr	r25
    1256:	87 95       	ror	r24
    1258:	96 95       	lsr	r25
    125a:	87 95       	ror	r24
    125c:	96 95       	lsr	r25
    125e:	87 95       	ror	r24
    1260:	88 0f       	add	r24, r24
    1262:	99 1f       	adc	r25, r25
    1264:	9c 01       	movw	r18, r24
    1266:	22 0f       	add	r18, r18
    1268:	33 1f       	adc	r19, r19
    126a:	22 0f       	add	r18, r18
    126c:	33 1f       	adc	r19, r19
    126e:	82 0f       	add	r24, r18
    1270:	93 1f       	adc	r25, r19
    1272:	fa 01       	movw	r30, r20
    1274:	e8 1b       	sub	r30, r24
    1276:	f9 0b       	sbc	r31, r25
    1278:	cf 01       	movw	r24, r30
    127a:	28 2f       	mov	r18, r24
    127c:	8b 81       	ldd	r24, Y+3	; 0x03
    127e:	9c 81       	ldd	r25, Y+4	; 0x04
    1280:	40 e0       	ldi	r20, 0x00	; 0
    1282:	67 e0       	ldi	r22, 0x07	; 7
    1284:	0e 94 f6 12 	call	0x25ec	; 0x25ec <display_small_number>
    1288:	80 91 7f 02 	lds	r24, 0x027F	; 0x80027f <mcu_temp>
    128c:	90 91 80 02 	lds	r25, 0x0280	; 0x800280 <mcu_temp+0x1>
    1290:	9c 01       	movw	r18, r24
    1292:	ad ec       	ldi	r26, 0xCD	; 205
    1294:	bc ec       	ldi	r27, 0xCC	; 204
    1296:	0e 94 ff 1a 	call	0x35fe	; 0x35fe <__umulhisi3>
    129a:	ac 01       	movw	r20, r24
    129c:	56 95       	lsr	r21
    129e:	47 95       	ror	r20
    12a0:	56 95       	lsr	r21
    12a2:	47 95       	ror	r20
    12a4:	56 95       	lsr	r21
    12a6:	47 95       	ror	r20
    12a8:	9a 01       	movw	r18, r20
    12aa:	ad ec       	ldi	r26, 0xCD	; 205
    12ac:	bc ec       	ldi	r27, 0xCC	; 204
    12ae:	0e 94 ff 1a 	call	0x35fe	; 0x35fe <__umulhisi3>
    12b2:	96 95       	lsr	r25
    12b4:	87 95       	ror	r24
    12b6:	96 95       	lsr	r25
    12b8:	87 95       	ror	r24
    12ba:	96 95       	lsr	r25
    12bc:	87 95       	ror	r24
    12be:	88 0f       	add	r24, r24
    12c0:	99 1f       	adc	r25, r25
    12c2:	9c 01       	movw	r18, r24
    12c4:	22 0f       	add	r18, r18
    12c6:	33 1f       	adc	r19, r19
    12c8:	22 0f       	add	r18, r18
    12ca:	33 1f       	adc	r19, r19
    12cc:	82 0f       	add	r24, r18
    12ce:	93 1f       	adc	r25, r19
    12d0:	9a 01       	movw	r18, r20
    12d2:	28 1b       	sub	r18, r24
    12d4:	39 0b       	sbc	r19, r25
    12d6:	c9 01       	movw	r24, r18
    12d8:	28 2f       	mov	r18, r24
    12da:	8b 81       	ldd	r24, Y+3	; 0x03
    12dc:	9c 81       	ldd	r25, Y+4	; 0x04
    12de:	40 e0       	ldi	r20, 0x00	; 0
    12e0:	65 e0       	ldi	r22, 0x05	; 5
    12e2:	0e 94 f6 12 	call	0x25ec	; 0x25ec <display_small_number>
    12e6:	80 91 7f 02 	lds	r24, 0x027F	; 0x80027f <mcu_temp>
    12ea:	90 91 80 02 	lds	r25, 0x0280	; 0x800280 <mcu_temp+0x1>
    12ee:	96 95       	lsr	r25
    12f0:	87 95       	ror	r24
    12f2:	96 95       	lsr	r25
    12f4:	87 95       	ror	r24
    12f6:	9c 01       	movw	r18, r24
    12f8:	ab e7       	ldi	r26, 0x7B	; 123
    12fa:	b4 e1       	ldi	r27, 0x14	; 20
    12fc:	0e 94 ff 1a 	call	0x35fe	; 0x35fe <__umulhisi3>
    1300:	ac 01       	movw	r20, r24
    1302:	56 95       	lsr	r21
    1304:	47 95       	ror	r20
    1306:	9a 01       	movw	r18, r20
    1308:	ad ec       	ldi	r26, 0xCD	; 205
    130a:	bc ec       	ldi	r27, 0xCC	; 204
    130c:	0e 94 ff 1a 	call	0x35fe	; 0x35fe <__umulhisi3>
    1310:	96 95       	lsr	r25
    1312:	87 95       	ror	r24
    1314:	96 95       	lsr	r25
    1316:	87 95       	ror	r24
    1318:	96 95       	lsr	r25
    131a:	87 95       	ror	r24
    131c:	88 0f       	add	r24, r24
    131e:	99 1f       	adc	r25, r25
    1320:	9c 01       	movw	r18, r24
    1322:	22 0f       	add	r18, r18
    1324:	33 1f       	adc	r19, r19
    1326:	22 0f       	add	r18, r18
    1328:	33 1f       	adc	r19, r19
    132a:	82 0f       	add	r24, r18
    132c:	93 1f       	adc	r25, r19
    132e:	fa 01       	movw	r30, r20
    1330:	e8 1b       	sub	r30, r24
    1332:	f9 0b       	sbc	r31, r25
    1334:	cf 01       	movw	r24, r30
    1336:	28 2f       	mov	r18, r24
    1338:	8b 81       	ldd	r24, Y+3	; 0x03
    133a:	9c 81       	ldd	r25, Y+4	; 0x04
    133c:	40 e0       	ldi	r20, 0x00	; 0
    133e:	64 e0       	ldi	r22, 0x04	; 4
    1340:	0e 94 f6 12 	call	0x25ec	; 0x25ec <display_small_number>
    1344:	40 91 58 02 	lds	r20, 0x0258	; 0x800258 <__data_end>
    1348:	50 91 59 02 	lds	r21, 0x0259	; 0x800259 <__data_end+0x1>
    134c:	9a 01       	movw	r18, r20
    134e:	ad ec       	ldi	r26, 0xCD	; 205
    1350:	bc ec       	ldi	r27, 0xCC	; 204
    1352:	0e 94 ff 1a 	call	0x35fe	; 0x35fe <__umulhisi3>
    1356:	96 95       	lsr	r25
    1358:	87 95       	ror	r24
    135a:	96 95       	lsr	r25
    135c:	87 95       	ror	r24
    135e:	96 95       	lsr	r25
    1360:	87 95       	ror	r24
    1362:	88 0f       	add	r24, r24
    1364:	99 1f       	adc	r25, r25
    1366:	9c 01       	movw	r18, r24
    1368:	22 0f       	add	r18, r18
    136a:	33 1f       	adc	r19, r19
    136c:	22 0f       	add	r18, r18
    136e:	33 1f       	adc	r19, r19
    1370:	82 0f       	add	r24, r18
    1372:	93 1f       	adc	r25, r19
    1374:	9a 01       	movw	r18, r20
    1376:	28 1b       	sub	r18, r24
    1378:	39 0b       	sbc	r19, r25
    137a:	c9 01       	movw	r24, r18
    137c:	28 2f       	mov	r18, r24
    137e:	8b 81       	ldd	r24, Y+3	; 0x03
    1380:	9c 81       	ldd	r25, Y+4	; 0x04
    1382:	41 e0       	ldi	r20, 0x01	; 1
    1384:	66 e0       	ldi	r22, 0x06	; 6
    1386:	0e 94 f6 12 	call	0x25ec	; 0x25ec <display_small_number>
    138a:	80 91 58 02 	lds	r24, 0x0258	; 0x800258 <__data_end>
    138e:	90 91 59 02 	lds	r25, 0x0259	; 0x800259 <__data_end+0x1>
    1392:	9c 01       	movw	r18, r24
    1394:	ad ec       	ldi	r26, 0xCD	; 205
    1396:	bc ec       	ldi	r27, 0xCC	; 204
    1398:	0e 94 ff 1a 	call	0x35fe	; 0x35fe <__umulhisi3>
    139c:	ac 01       	movw	r20, r24
    139e:	56 95       	lsr	r21
    13a0:	47 95       	ror	r20
    13a2:	56 95       	lsr	r21
    13a4:	47 95       	ror	r20
    13a6:	56 95       	lsr	r21
    13a8:	47 95       	ror	r20
    13aa:	9a 01       	movw	r18, r20
    13ac:	ad ec       	ldi	r26, 0xCD	; 205
    13ae:	bc ec       	ldi	r27, 0xCC	; 204
    13b0:	0e 94 ff 1a 	call	0x35fe	; 0x35fe <__umulhisi3>
    13b4:	96 95       	lsr	r25
    13b6:	87 95       	ror	r24
    13b8:	96 95       	lsr	r25
    13ba:	87 95       	ror	r24
    13bc:	96 95       	lsr	r25
    13be:	87 95       	ror	r24
    13c0:	88 0f       	add	r24, r24
    13c2:	99 1f       	adc	r25, r25
    13c4:	9c 01       	movw	r18, r24
    13c6:	22 0f       	add	r18, r18
    13c8:	33 1f       	adc	r19, r19
    13ca:	22 0f       	add	r18, r18
    13cc:	33 1f       	adc	r19, r19
    13ce:	82 0f       	add	r24, r18
    13d0:	93 1f       	adc	r25, r19
    13d2:	fa 01       	movw	r30, r20
    13d4:	e8 1b       	sub	r30, r24
    13d6:	f9 0b       	sbc	r31, r25
    13d8:	cf 01       	movw	r24, r30
    13da:	28 2f       	mov	r18, r24
    13dc:	8b 81       	ldd	r24, Y+3	; 0x03
    13de:	9c 81       	ldd	r25, Y+4	; 0x04
    13e0:	41 e0       	ldi	r20, 0x01	; 1
    13e2:	65 e0       	ldi	r22, 0x05	; 5
    13e4:	0e 94 f6 12 	call	0x25ec	; 0x25ec <display_small_number>
    13e8:	80 91 58 02 	lds	r24, 0x0258	; 0x800258 <__data_end>
    13ec:	90 91 59 02 	lds	r25, 0x0259	; 0x800259 <__data_end+0x1>
    13f0:	96 95       	lsr	r25
    13f2:	87 95       	ror	r24
    13f4:	96 95       	lsr	r25
    13f6:	87 95       	ror	r24
    13f8:	9c 01       	movw	r18, r24
    13fa:	ab e7       	ldi	r26, 0x7B	; 123
    13fc:	b4 e1       	ldi	r27, 0x14	; 20
    13fe:	0e 94 ff 1a 	call	0x35fe	; 0x35fe <__umulhisi3>
    1402:	ac 01       	movw	r20, r24
    1404:	56 95       	lsr	r21
    1406:	47 95       	ror	r20
    1408:	9a 01       	movw	r18, r20
    140a:	ad ec       	ldi	r26, 0xCD	; 205
    140c:	bc ec       	ldi	r27, 0xCC	; 204
    140e:	0e 94 ff 1a 	call	0x35fe	; 0x35fe <__umulhisi3>
    1412:	96 95       	lsr	r25
    1414:	87 95       	ror	r24
    1416:	96 95       	lsr	r25
    1418:	87 95       	ror	r24
    141a:	96 95       	lsr	r25
    141c:	87 95       	ror	r24
    141e:	88 0f       	add	r24, r24
    1420:	99 1f       	adc	r25, r25
    1422:	9c 01       	movw	r18, r24
    1424:	22 0f       	add	r18, r18
    1426:	33 1f       	adc	r19, r19
    1428:	22 0f       	add	r18, r18
    142a:	33 1f       	adc	r19, r19
    142c:	82 0f       	add	r24, r18
    142e:	93 1f       	adc	r25, r19
    1430:	9a 01       	movw	r18, r20
    1432:	28 1b       	sub	r18, r24
    1434:	39 0b       	sbc	r19, r25
    1436:	c9 01       	movw	r24, r18
    1438:	28 2f       	mov	r18, r24
    143a:	8b 81       	ldd	r24, Y+3	; 0x03
    143c:	9c 81       	ldd	r25, Y+4	; 0x04
    143e:	41 e0       	ldi	r20, 0x01	; 1
    1440:	64 e0       	ldi	r22, 0x04	; 4
    1442:	0e 94 f6 12 	call	0x25ec	; 0x25ec <display_small_number>
    1446:	40 91 67 02 	lds	r20, 0x0267	; 0x800267 <bms_max_temp>
    144a:	50 91 68 02 	lds	r21, 0x0268	; 0x800268 <bms_max_temp+0x1>
    144e:	9a 01       	movw	r18, r20
    1450:	ad ec       	ldi	r26, 0xCD	; 205
    1452:	bc ec       	ldi	r27, 0xCC	; 204
    1454:	0e 94 ff 1a 	call	0x35fe	; 0x35fe <__umulhisi3>
    1458:	96 95       	lsr	r25
    145a:	87 95       	ror	r24
    145c:	96 95       	lsr	r25
    145e:	87 95       	ror	r24
    1460:	96 95       	lsr	r25
    1462:	87 95       	ror	r24
    1464:	88 0f       	add	r24, r24
    1466:	99 1f       	adc	r25, r25
    1468:	9c 01       	movw	r18, r24
    146a:	22 0f       	add	r18, r18
    146c:	33 1f       	adc	r19, r19
    146e:	22 0f       	add	r18, r18
    1470:	33 1f       	adc	r19, r19
    1472:	82 0f       	add	r24, r18
    1474:	93 1f       	adc	r25, r19
    1476:	fa 01       	movw	r30, r20
    1478:	e8 1b       	sub	r30, r24
    147a:	f9 0b       	sbc	r31, r25
    147c:	cf 01       	movw	r24, r30
    147e:	28 2f       	mov	r18, r24
    1480:	8b 81       	ldd	r24, Y+3	; 0x03
    1482:	9c 81       	ldd	r25, Y+4	; 0x04
    1484:	41 e0       	ldi	r20, 0x01	; 1
    1486:	62 e1       	ldi	r22, 0x12	; 18
    1488:	0e 94 f6 12 	call	0x25ec	; 0x25ec <display_small_number>
    148c:	80 91 67 02 	lds	r24, 0x0267	; 0x800267 <bms_max_temp>
    1490:	90 91 68 02 	lds	r25, 0x0268	; 0x800268 <bms_max_temp+0x1>
    1494:	9c 01       	movw	r18, r24
    1496:	ad ec       	ldi	r26, 0xCD	; 205
    1498:	bc ec       	ldi	r27, 0xCC	; 204
    149a:	0e 94 ff 1a 	call	0x35fe	; 0x35fe <__umulhisi3>
    149e:	ac 01       	movw	r20, r24
    14a0:	56 95       	lsr	r21
    14a2:	47 95       	ror	r20
    14a4:	56 95       	lsr	r21
    14a6:	47 95       	ror	r20
    14a8:	56 95       	lsr	r21
    14aa:	47 95       	ror	r20
    14ac:	9a 01       	movw	r18, r20
    14ae:	ad ec       	ldi	r26, 0xCD	; 205
    14b0:	bc ec       	ldi	r27, 0xCC	; 204
    14b2:	0e 94 ff 1a 	call	0x35fe	; 0x35fe <__umulhisi3>
    14b6:	96 95       	lsr	r25
    14b8:	87 95       	ror	r24
    14ba:	96 95       	lsr	r25
    14bc:	87 95       	ror	r24
    14be:	96 95       	lsr	r25
    14c0:	87 95       	ror	r24
    14c2:	88 0f       	add	r24, r24
    14c4:	99 1f       	adc	r25, r25
    14c6:	9c 01       	movw	r18, r24
    14c8:	22 0f       	add	r18, r18
    14ca:	33 1f       	adc	r19, r19
    14cc:	22 0f       	add	r18, r18
    14ce:	33 1f       	adc	r19, r19
    14d0:	82 0f       	add	r24, r18
    14d2:	93 1f       	adc	r25, r19
    14d4:	9a 01       	movw	r18, r20
    14d6:	28 1b       	sub	r18, r24
    14d8:	39 0b       	sbc	r19, r25
    14da:	c9 01       	movw	r24, r18
    14dc:	28 2f       	mov	r18, r24
    14de:	8b 81       	ldd	r24, Y+3	; 0x03
    14e0:	9c 81       	ldd	r25, Y+4	; 0x04
    14e2:	41 e0       	ldi	r20, 0x01	; 1
    14e4:	60 e1       	ldi	r22, 0x10	; 16
    14e6:	0e 94 f6 12 	call	0x25ec	; 0x25ec <display_small_number>
    14ea:	80 91 67 02 	lds	r24, 0x0267	; 0x800267 <bms_max_temp>
    14ee:	90 91 68 02 	lds	r25, 0x0268	; 0x800268 <bms_max_temp+0x1>
    14f2:	96 95       	lsr	r25
    14f4:	87 95       	ror	r24
    14f6:	96 95       	lsr	r25
    14f8:	87 95       	ror	r24
    14fa:	9c 01       	movw	r18, r24
    14fc:	ab e7       	ldi	r26, 0x7B	; 123
    14fe:	b4 e1       	ldi	r27, 0x14	; 20
    1500:	0e 94 ff 1a 	call	0x35fe	; 0x35fe <__umulhisi3>
    1504:	ac 01       	movw	r20, r24
    1506:	56 95       	lsr	r21
    1508:	47 95       	ror	r20
    150a:	9a 01       	movw	r18, r20
    150c:	ad ec       	ldi	r26, 0xCD	; 205
    150e:	bc ec       	ldi	r27, 0xCC	; 204
    1510:	0e 94 ff 1a 	call	0x35fe	; 0x35fe <__umulhisi3>
    1514:	96 95       	lsr	r25
    1516:	87 95       	ror	r24
    1518:	96 95       	lsr	r25
    151a:	87 95       	ror	r24
    151c:	96 95       	lsr	r25
    151e:	87 95       	ror	r24
    1520:	88 0f       	add	r24, r24
    1522:	99 1f       	adc	r25, r25
    1524:	9c 01       	movw	r18, r24
    1526:	22 0f       	add	r18, r18
    1528:	33 1f       	adc	r19, r19
    152a:	22 0f       	add	r18, r18
    152c:	33 1f       	adc	r19, r19
    152e:	82 0f       	add	r24, r18
    1530:	93 1f       	adc	r25, r19
    1532:	fa 01       	movw	r30, r20
    1534:	e8 1b       	sub	r30, r24
    1536:	f9 0b       	sbc	r31, r25
    1538:	cf 01       	movw	r24, r30
    153a:	28 2f       	mov	r18, r24
    153c:	8b 81       	ldd	r24, Y+3	; 0x03
    153e:	9c 81       	ldd	r25, Y+4	; 0x04
    1540:	41 e0       	ldi	r20, 0x01	; 1
    1542:	6f e0       	ldi	r22, 0x0F	; 15
    1544:	0e 94 f6 12 	call	0x25ec	; 0x25ec <display_small_number>
    1548:	40 91 84 02 	lds	r20, 0x0284	; 0x800284 <battery_voltage>
    154c:	50 91 85 02 	lds	r21, 0x0285	; 0x800285 <battery_voltage+0x1>
    1550:	9a 01       	movw	r18, r20
    1552:	ad ec       	ldi	r26, 0xCD	; 205
    1554:	bc ec       	ldi	r27, 0xCC	; 204
    1556:	0e 94 ff 1a 	call	0x35fe	; 0x35fe <__umulhisi3>
    155a:	96 95       	lsr	r25
    155c:	87 95       	ror	r24
    155e:	96 95       	lsr	r25
    1560:	87 95       	ror	r24
    1562:	96 95       	lsr	r25
    1564:	87 95       	ror	r24
    1566:	88 0f       	add	r24, r24
    1568:	99 1f       	adc	r25, r25
    156a:	9c 01       	movw	r18, r24
    156c:	22 0f       	add	r18, r18
    156e:	33 1f       	adc	r19, r19
    1570:	22 0f       	add	r18, r18
    1572:	33 1f       	adc	r19, r19
    1574:	82 0f       	add	r24, r18
    1576:	93 1f       	adc	r25, r19
    1578:	9a 01       	movw	r18, r20
    157a:	28 1b       	sub	r18, r24
    157c:	39 0b       	sbc	r19, r25
    157e:	c9 01       	movw	r24, r18
    1580:	28 2f       	mov	r18, r24
    1582:	8b 81       	ldd	r24, Y+3	; 0x03
    1584:	9c 81       	ldd	r25, Y+4	; 0x04
    1586:	42 e0       	ldi	r20, 0x02	; 2
    1588:	67 e0       	ldi	r22, 0x07	; 7
    158a:	0e 94 f6 12 	call	0x25ec	; 0x25ec <display_small_number>
    158e:	80 91 84 02 	lds	r24, 0x0284	; 0x800284 <battery_voltage>
    1592:	90 91 85 02 	lds	r25, 0x0285	; 0x800285 <battery_voltage+0x1>
    1596:	9c 01       	movw	r18, r24
    1598:	ad ec       	ldi	r26, 0xCD	; 205
    159a:	bc ec       	ldi	r27, 0xCC	; 204
    159c:	0e 94 ff 1a 	call	0x35fe	; 0x35fe <__umulhisi3>
    15a0:	ac 01       	movw	r20, r24
    15a2:	56 95       	lsr	r21
    15a4:	47 95       	ror	r20
    15a6:	56 95       	lsr	r21
    15a8:	47 95       	ror	r20
    15aa:	56 95       	lsr	r21
    15ac:	47 95       	ror	r20
    15ae:	9a 01       	movw	r18, r20
    15b0:	ad ec       	ldi	r26, 0xCD	; 205
    15b2:	bc ec       	ldi	r27, 0xCC	; 204
    15b4:	0e 94 ff 1a 	call	0x35fe	; 0x35fe <__umulhisi3>
    15b8:	96 95       	lsr	r25
    15ba:	87 95       	ror	r24
    15bc:	96 95       	lsr	r25
    15be:	87 95       	ror	r24
    15c0:	96 95       	lsr	r25
    15c2:	87 95       	ror	r24
    15c4:	88 0f       	add	r24, r24
    15c6:	99 1f       	adc	r25, r25
    15c8:	9c 01       	movw	r18, r24
    15ca:	22 0f       	add	r18, r18
    15cc:	33 1f       	adc	r19, r19
    15ce:	22 0f       	add	r18, r18
    15d0:	33 1f       	adc	r19, r19
    15d2:	82 0f       	add	r24, r18
    15d4:	93 1f       	adc	r25, r19
    15d6:	fa 01       	movw	r30, r20
    15d8:	e8 1b       	sub	r30, r24
    15da:	f9 0b       	sbc	r31, r25
    15dc:	cf 01       	movw	r24, r30
    15de:	28 2f       	mov	r18, r24
    15e0:	8b 81       	ldd	r24, Y+3	; 0x03
    15e2:	9c 81       	ldd	r25, Y+4	; 0x04
    15e4:	42 e0       	ldi	r20, 0x02	; 2
    15e6:	65 e0       	ldi	r22, 0x05	; 5
    15e8:	0e 94 f6 12 	call	0x25ec	; 0x25ec <display_small_number>
    15ec:	80 91 84 02 	lds	r24, 0x0284	; 0x800284 <battery_voltage>
    15f0:	90 91 85 02 	lds	r25, 0x0285	; 0x800285 <battery_voltage+0x1>
    15f4:	96 95       	lsr	r25
    15f6:	87 95       	ror	r24
    15f8:	96 95       	lsr	r25
    15fa:	87 95       	ror	r24
    15fc:	9c 01       	movw	r18, r24
    15fe:	ab e7       	ldi	r26, 0x7B	; 123
    1600:	b4 e1       	ldi	r27, 0x14	; 20
    1602:	0e 94 ff 1a 	call	0x35fe	; 0x35fe <__umulhisi3>
    1606:	ac 01       	movw	r20, r24
    1608:	56 95       	lsr	r21
    160a:	47 95       	ror	r20
    160c:	9a 01       	movw	r18, r20
    160e:	ad ec       	ldi	r26, 0xCD	; 205
    1610:	bc ec       	ldi	r27, 0xCC	; 204
    1612:	0e 94 ff 1a 	call	0x35fe	; 0x35fe <__umulhisi3>
    1616:	96 95       	lsr	r25
    1618:	87 95       	ror	r24
    161a:	96 95       	lsr	r25
    161c:	87 95       	ror	r24
    161e:	96 95       	lsr	r25
    1620:	87 95       	ror	r24
    1622:	88 0f       	add	r24, r24
    1624:	99 1f       	adc	r25, r25
    1626:	9c 01       	movw	r18, r24
    1628:	22 0f       	add	r18, r18
    162a:	33 1f       	adc	r19, r19
    162c:	22 0f       	add	r18, r18
    162e:	33 1f       	adc	r19, r19
    1630:	82 0f       	add	r24, r18
    1632:	93 1f       	adc	r25, r19
    1634:	9a 01       	movw	r18, r20
    1636:	28 1b       	sub	r18, r24
    1638:	39 0b       	sbc	r19, r25
    163a:	c9 01       	movw	r24, r18
    163c:	28 2f       	mov	r18, r24
    163e:	8b 81       	ldd	r24, Y+3	; 0x03
    1640:	9c 81       	ldd	r25, Y+4	; 0x04
    1642:	42 e0       	ldi	r20, 0x02	; 2
    1644:	64 e0       	ldi	r22, 0x04	; 4
    1646:	d2 d7       	rcall	.+4004   	; 0x25ec <display_small_number>
    1648:	40 91 6d 02 	lds	r20, 0x026D	; 0x80026d <APPS2>
    164c:	50 91 6e 02 	lds	r21, 0x026E	; 0x80026e <APPS2+0x1>
    1650:	9a 01       	movw	r18, r20
    1652:	ad ec       	ldi	r26, 0xCD	; 205
    1654:	bc ec       	ldi	r27, 0xCC	; 204
    1656:	0e 94 ff 1a 	call	0x35fe	; 0x35fe <__umulhisi3>
    165a:	96 95       	lsr	r25
    165c:	87 95       	ror	r24
    165e:	96 95       	lsr	r25
    1660:	87 95       	ror	r24
    1662:	96 95       	lsr	r25
    1664:	87 95       	ror	r24
    1666:	88 0f       	add	r24, r24
    1668:	99 1f       	adc	r25, r25
    166a:	9c 01       	movw	r18, r24
    166c:	22 0f       	add	r18, r18
    166e:	33 1f       	adc	r19, r19
    1670:	22 0f       	add	r18, r18
    1672:	33 1f       	adc	r19, r19
    1674:	82 0f       	add	r24, r18
    1676:	93 1f       	adc	r25, r19
    1678:	fa 01       	movw	r30, r20
    167a:	e8 1b       	sub	r30, r24
    167c:	f9 0b       	sbc	r31, r25
    167e:	cf 01       	movw	r24, r30
    1680:	28 2f       	mov	r18, r24
    1682:	8b 81       	ldd	r24, Y+3	; 0x03
    1684:	9c 81       	ldd	r25, Y+4	; 0x04
    1686:	43 e0       	ldi	r20, 0x03	; 3
    1688:	66 e0       	ldi	r22, 0x06	; 6
    168a:	b0 d7       	rcall	.+3936   	; 0x25ec <display_small_number>
    168c:	80 91 6d 02 	lds	r24, 0x026D	; 0x80026d <APPS2>
    1690:	90 91 6e 02 	lds	r25, 0x026E	; 0x80026e <APPS2+0x1>
    1694:	9c 01       	movw	r18, r24
    1696:	ad ec       	ldi	r26, 0xCD	; 205
    1698:	bc ec       	ldi	r27, 0xCC	; 204
    169a:	0e 94 ff 1a 	call	0x35fe	; 0x35fe <__umulhisi3>
    169e:	ac 01       	movw	r20, r24
    16a0:	56 95       	lsr	r21
    16a2:	47 95       	ror	r20
    16a4:	56 95       	lsr	r21
    16a6:	47 95       	ror	r20
    16a8:	56 95       	lsr	r21
    16aa:	47 95       	ror	r20
    16ac:	9a 01       	movw	r18, r20
    16ae:	ad ec       	ldi	r26, 0xCD	; 205
    16b0:	bc ec       	ldi	r27, 0xCC	; 204
    16b2:	0e 94 ff 1a 	call	0x35fe	; 0x35fe <__umulhisi3>
    16b6:	96 95       	lsr	r25
    16b8:	87 95       	ror	r24
    16ba:	96 95       	lsr	r25
    16bc:	87 95       	ror	r24
    16be:	96 95       	lsr	r25
    16c0:	87 95       	ror	r24
    16c2:	88 0f       	add	r24, r24
    16c4:	99 1f       	adc	r25, r25
    16c6:	9c 01       	movw	r18, r24
    16c8:	22 0f       	add	r18, r18
    16ca:	33 1f       	adc	r19, r19
    16cc:	22 0f       	add	r18, r18
    16ce:	33 1f       	adc	r19, r19
    16d0:	82 0f       	add	r24, r18
    16d2:	93 1f       	adc	r25, r19
    16d4:	9a 01       	movw	r18, r20
    16d6:	28 1b       	sub	r18, r24
    16d8:	39 0b       	sbc	r19, r25
    16da:	c9 01       	movw	r24, r18
    16dc:	28 2f       	mov	r18, r24
    16de:	8b 81       	ldd	r24, Y+3	; 0x03
    16e0:	9c 81       	ldd	r25, Y+4	; 0x04
    16e2:	43 e0       	ldi	r20, 0x03	; 3
    16e4:	65 e0       	ldi	r22, 0x05	; 5
    16e6:	82 d7       	rcall	.+3844   	; 0x25ec <display_small_number>
    16e8:	00 00       	nop
    16ea:	0f 90       	pop	r0
    16ec:	0f 90       	pop	r0
    16ee:	0f 90       	pop	r0
    16f0:	0f 90       	pop	r0
    16f2:	df 91       	pop	r29
    16f4:	cf 91       	pop	r28
    16f6:	08 95       	ret

000016f8 <display_debug>:
    16f8:	cf 93       	push	r28
    16fa:	df 93       	push	r29
    16fc:	00 d0       	rcall	.+0      	; 0x16fe <display_debug+0x6>
    16fe:	00 d0       	rcall	.+0      	; 0x1700 <display_debug+0x8>
    1700:	cd b7       	in	r28, 0x3d	; 61
    1702:	de b7       	in	r29, 0x3e	; 62
    1704:	9c 83       	std	Y+4, r25	; 0x04
    1706:	8b 83       	std	Y+3, r24	; 0x03
    1708:	19 82       	std	Y+1, r1	; 0x01
    170a:	1a 82       	std	Y+2, r1	; 0x02
    170c:	80 e2       	ldi	r24, 0x20	; 32
    170e:	90 e0       	ldi	r25, 0x00	; 0
    1710:	fc 01       	movw	r30, r24
    1712:	80 81       	ld	r24, Z
    1714:	88 2f       	mov	r24, r24
    1716:	90 e0       	ldi	r25, 0x00	; 0
    1718:	81 70       	andi	r24, 0x01	; 1
    171a:	99 27       	eor	r25, r25
    171c:	21 e0       	ldi	r18, 0x01	; 1
    171e:	89 2b       	or	r24, r25
    1720:	09 f0       	breq	.+2      	; 0x1724 <display_debug+0x2c>
    1722:	20 e0       	ldi	r18, 0x00	; 0
    1724:	29 83       	std	Y+1, r18	; 0x01
    1726:	80 e2       	ldi	r24, 0x20	; 32
    1728:	90 e0       	ldi	r25, 0x00	; 0
    172a:	fc 01       	movw	r30, r24
    172c:	80 81       	ld	r24, Z
    172e:	88 2f       	mov	r24, r24
    1730:	90 e0       	ldi	r25, 0x00	; 0
    1732:	80 95       	com	r24
    1734:	90 95       	com	r25
    1736:	82 70       	andi	r24, 0x02	; 2
    1738:	99 27       	eor	r25, r25
    173a:	95 95       	asr	r25
    173c:	87 95       	ror	r24
    173e:	8a 83       	std	Y+2, r24	; 0x02
    1740:	8b 81       	ldd	r24, Y+3	; 0x03
    1742:	9c 81       	ldd	r25, Y+4	; 0x04
    1744:	20 e0       	ldi	r18, 0x00	; 0
    1746:	40 e0       	ldi	r20, 0x00	; 0
    1748:	61 e2       	ldi	r22, 0x21	; 33
    174a:	71 e0       	ldi	r23, 0x01	; 1
    174c:	44 dc       	rcall	.-1912   	; 0xfd6 <display_write_str>
    174e:	8b 81       	ldd	r24, Y+3	; 0x03
    1750:	9c 81       	ldd	r25, Y+4	; 0x04
    1752:	20 e0       	ldi	r18, 0x00	; 0
    1754:	41 e0       	ldi	r20, 0x01	; 1
    1756:	60 e6       	ldi	r22, 0x60	; 96
    1758:	71 e0       	ldi	r23, 0x01	; 1
    175a:	3d dc       	rcall	.-1926   	; 0xfd6 <display_write_str>
    175c:	8b 81       	ldd	r24, Y+3	; 0x03
    175e:	9c 81       	ldd	r25, Y+4	; 0x04
    1760:	20 e0       	ldi	r18, 0x00	; 0
    1762:	42 e0       	ldi	r20, 0x02	; 2
    1764:	65 e7       	ldi	r22, 0x75	; 117
    1766:	71 e0       	ldi	r23, 0x01	; 1
    1768:	36 dc       	rcall	.-1940   	; 0xfd6 <display_write_str>
    176a:	8b 81       	ldd	r24, Y+3	; 0x03
    176c:	9c 81       	ldd	r25, Y+4	; 0x04
    176e:	20 e0       	ldi	r18, 0x00	; 0
    1770:	43 e0       	ldi	r20, 0x03	; 3
    1772:	6a e8       	ldi	r22, 0x8A	; 138
    1774:	71 e0       	ldi	r23, 0x01	; 1
    1776:	2f dc       	rcall	.-1954   	; 0xfd6 <display_write_str>
    1778:	40 91 58 02 	lds	r20, 0x0258	; 0x800258 <__data_end>
    177c:	50 91 59 02 	lds	r21, 0x0259	; 0x800259 <__data_end+0x1>
    1780:	9a 01       	movw	r18, r20
    1782:	ad ec       	ldi	r26, 0xCD	; 205
    1784:	bc ec       	ldi	r27, 0xCC	; 204
    1786:	0e 94 ff 1a 	call	0x35fe	; 0x35fe <__umulhisi3>
    178a:	96 95       	lsr	r25
    178c:	87 95       	ror	r24
    178e:	96 95       	lsr	r25
    1790:	87 95       	ror	r24
    1792:	96 95       	lsr	r25
    1794:	87 95       	ror	r24
    1796:	88 0f       	add	r24, r24
    1798:	99 1f       	adc	r25, r25
    179a:	9c 01       	movw	r18, r24
    179c:	22 0f       	add	r18, r18
    179e:	33 1f       	adc	r19, r19
    17a0:	22 0f       	add	r18, r18
    17a2:	33 1f       	adc	r19, r19
    17a4:	82 0f       	add	r24, r18
    17a6:	93 1f       	adc	r25, r19
    17a8:	9a 01       	movw	r18, r20
    17aa:	28 1b       	sub	r18, r24
    17ac:	39 0b       	sbc	r19, r25
    17ae:	c9 01       	movw	r24, r18
    17b0:	28 2f       	mov	r18, r24
    17b2:	8b 81       	ldd	r24, Y+3	; 0x03
    17b4:	9c 81       	ldd	r25, Y+4	; 0x04
    17b6:	40 e0       	ldi	r20, 0x00	; 0
    17b8:	66 e0       	ldi	r22, 0x06	; 6
    17ba:	18 d7       	rcall	.+3632   	; 0x25ec <display_small_number>
    17bc:	80 91 58 02 	lds	r24, 0x0258	; 0x800258 <__data_end>
    17c0:	90 91 59 02 	lds	r25, 0x0259	; 0x800259 <__data_end+0x1>
    17c4:	9c 01       	movw	r18, r24
    17c6:	ad ec       	ldi	r26, 0xCD	; 205
    17c8:	bc ec       	ldi	r27, 0xCC	; 204
    17ca:	0e 94 ff 1a 	call	0x35fe	; 0x35fe <__umulhisi3>
    17ce:	ac 01       	movw	r20, r24
    17d0:	56 95       	lsr	r21
    17d2:	47 95       	ror	r20
    17d4:	56 95       	lsr	r21
    17d6:	47 95       	ror	r20
    17d8:	56 95       	lsr	r21
    17da:	47 95       	ror	r20
    17dc:	9a 01       	movw	r18, r20
    17de:	ad ec       	ldi	r26, 0xCD	; 205
    17e0:	bc ec       	ldi	r27, 0xCC	; 204
    17e2:	0e 94 ff 1a 	call	0x35fe	; 0x35fe <__umulhisi3>
    17e6:	96 95       	lsr	r25
    17e8:	87 95       	ror	r24
    17ea:	96 95       	lsr	r25
    17ec:	87 95       	ror	r24
    17ee:	96 95       	lsr	r25
    17f0:	87 95       	ror	r24
    17f2:	88 0f       	add	r24, r24
    17f4:	99 1f       	adc	r25, r25
    17f6:	9c 01       	movw	r18, r24
    17f8:	22 0f       	add	r18, r18
    17fa:	33 1f       	adc	r19, r19
    17fc:	22 0f       	add	r18, r18
    17fe:	33 1f       	adc	r19, r19
    1800:	82 0f       	add	r24, r18
    1802:	93 1f       	adc	r25, r19
    1804:	fa 01       	movw	r30, r20
    1806:	e8 1b       	sub	r30, r24
    1808:	f9 0b       	sbc	r31, r25
    180a:	cf 01       	movw	r24, r30
    180c:	28 2f       	mov	r18, r24
    180e:	8b 81       	ldd	r24, Y+3	; 0x03
    1810:	9c 81       	ldd	r25, Y+4	; 0x04
    1812:	40 e0       	ldi	r20, 0x00	; 0
    1814:	65 e0       	ldi	r22, 0x05	; 5
    1816:	ea d6       	rcall	.+3540   	; 0x25ec <display_small_number>
    1818:	80 91 58 02 	lds	r24, 0x0258	; 0x800258 <__data_end>
    181c:	90 91 59 02 	lds	r25, 0x0259	; 0x800259 <__data_end+0x1>
    1820:	96 95       	lsr	r25
    1822:	87 95       	ror	r24
    1824:	96 95       	lsr	r25
    1826:	87 95       	ror	r24
    1828:	9c 01       	movw	r18, r24
    182a:	ab e7       	ldi	r26, 0x7B	; 123
    182c:	b4 e1       	ldi	r27, 0x14	; 20
    182e:	0e 94 ff 1a 	call	0x35fe	; 0x35fe <__umulhisi3>
    1832:	ac 01       	movw	r20, r24
    1834:	56 95       	lsr	r21
    1836:	47 95       	ror	r20
    1838:	9a 01       	movw	r18, r20
    183a:	ad ec       	ldi	r26, 0xCD	; 205
    183c:	bc ec       	ldi	r27, 0xCC	; 204
    183e:	0e 94 ff 1a 	call	0x35fe	; 0x35fe <__umulhisi3>
    1842:	96 95       	lsr	r25
    1844:	87 95       	ror	r24
    1846:	96 95       	lsr	r25
    1848:	87 95       	ror	r24
    184a:	96 95       	lsr	r25
    184c:	87 95       	ror	r24
    184e:	88 0f       	add	r24, r24
    1850:	99 1f       	adc	r25, r25
    1852:	9c 01       	movw	r18, r24
    1854:	22 0f       	add	r18, r18
    1856:	33 1f       	adc	r19, r19
    1858:	22 0f       	add	r18, r18
    185a:	33 1f       	adc	r19, r19
    185c:	82 0f       	add	r24, r18
    185e:	93 1f       	adc	r25, r19
    1860:	9a 01       	movw	r18, r20
    1862:	28 1b       	sub	r18, r24
    1864:	39 0b       	sbc	r19, r25
    1866:	c9 01       	movw	r24, r18
    1868:	28 2f       	mov	r18, r24
    186a:	8b 81       	ldd	r24, Y+3	; 0x03
    186c:	9c 81       	ldd	r25, Y+4	; 0x04
    186e:	40 e0       	ldi	r20, 0x00	; 0
    1870:	64 e0       	ldi	r22, 0x04	; 4
    1872:	bc d6       	rcall	.+3448   	; 0x25ec <display_small_number>
    1874:	40 91 67 02 	lds	r20, 0x0267	; 0x800267 <bms_max_temp>
    1878:	50 91 68 02 	lds	r21, 0x0268	; 0x800268 <bms_max_temp+0x1>
    187c:	9a 01       	movw	r18, r20
    187e:	ad ec       	ldi	r26, 0xCD	; 205
    1880:	bc ec       	ldi	r27, 0xCC	; 204
    1882:	0e 94 ff 1a 	call	0x35fe	; 0x35fe <__umulhisi3>
    1886:	96 95       	lsr	r25
    1888:	87 95       	ror	r24
    188a:	96 95       	lsr	r25
    188c:	87 95       	ror	r24
    188e:	96 95       	lsr	r25
    1890:	87 95       	ror	r24
    1892:	88 0f       	add	r24, r24
    1894:	99 1f       	adc	r25, r25
    1896:	9c 01       	movw	r18, r24
    1898:	22 0f       	add	r18, r18
    189a:	33 1f       	adc	r19, r19
    189c:	22 0f       	add	r18, r18
    189e:	33 1f       	adc	r19, r19
    18a0:	82 0f       	add	r24, r18
    18a2:	93 1f       	adc	r25, r19
    18a4:	fa 01       	movw	r30, r20
    18a6:	e8 1b       	sub	r30, r24
    18a8:	f9 0b       	sbc	r31, r25
    18aa:	cf 01       	movw	r24, r30
    18ac:	28 2f       	mov	r18, r24
    18ae:	8b 81       	ldd	r24, Y+3	; 0x03
    18b0:	9c 81       	ldd	r25, Y+4	; 0x04
    18b2:	40 e0       	ldi	r20, 0x00	; 0
    18b4:	62 e1       	ldi	r22, 0x12	; 18
    18b6:	9a d6       	rcall	.+3380   	; 0x25ec <display_small_number>
    18b8:	80 91 67 02 	lds	r24, 0x0267	; 0x800267 <bms_max_temp>
    18bc:	90 91 68 02 	lds	r25, 0x0268	; 0x800268 <bms_max_temp+0x1>
    18c0:	9c 01       	movw	r18, r24
    18c2:	ad ec       	ldi	r26, 0xCD	; 205
    18c4:	bc ec       	ldi	r27, 0xCC	; 204
    18c6:	0e 94 ff 1a 	call	0x35fe	; 0x35fe <__umulhisi3>
    18ca:	ac 01       	movw	r20, r24
    18cc:	56 95       	lsr	r21
    18ce:	47 95       	ror	r20
    18d0:	56 95       	lsr	r21
    18d2:	47 95       	ror	r20
    18d4:	56 95       	lsr	r21
    18d6:	47 95       	ror	r20
    18d8:	9a 01       	movw	r18, r20
    18da:	ad ec       	ldi	r26, 0xCD	; 205
    18dc:	bc ec       	ldi	r27, 0xCC	; 204
    18de:	0e 94 ff 1a 	call	0x35fe	; 0x35fe <__umulhisi3>
    18e2:	96 95       	lsr	r25
    18e4:	87 95       	ror	r24
    18e6:	96 95       	lsr	r25
    18e8:	87 95       	ror	r24
    18ea:	96 95       	lsr	r25
    18ec:	87 95       	ror	r24
    18ee:	88 0f       	add	r24, r24
    18f0:	99 1f       	adc	r25, r25
    18f2:	9c 01       	movw	r18, r24
    18f4:	22 0f       	add	r18, r18
    18f6:	33 1f       	adc	r19, r19
    18f8:	22 0f       	add	r18, r18
    18fa:	33 1f       	adc	r19, r19
    18fc:	82 0f       	add	r24, r18
    18fe:	93 1f       	adc	r25, r19
    1900:	9a 01       	movw	r18, r20
    1902:	28 1b       	sub	r18, r24
    1904:	39 0b       	sbc	r19, r25
    1906:	c9 01       	movw	r24, r18
    1908:	28 2f       	mov	r18, r24
    190a:	8b 81       	ldd	r24, Y+3	; 0x03
    190c:	9c 81       	ldd	r25, Y+4	; 0x04
    190e:	40 e0       	ldi	r20, 0x00	; 0
    1910:	60 e1       	ldi	r22, 0x10	; 16
    1912:	6c d6       	rcall	.+3288   	; 0x25ec <display_small_number>
    1914:	80 91 67 02 	lds	r24, 0x0267	; 0x800267 <bms_max_temp>
    1918:	90 91 68 02 	lds	r25, 0x0268	; 0x800268 <bms_max_temp+0x1>
    191c:	96 95       	lsr	r25
    191e:	87 95       	ror	r24
    1920:	96 95       	lsr	r25
    1922:	87 95       	ror	r24
    1924:	9c 01       	movw	r18, r24
    1926:	ab e7       	ldi	r26, 0x7B	; 123
    1928:	b4 e1       	ldi	r27, 0x14	; 20
    192a:	0e 94 ff 1a 	call	0x35fe	; 0x35fe <__umulhisi3>
    192e:	ac 01       	movw	r20, r24
    1930:	56 95       	lsr	r21
    1932:	47 95       	ror	r20
    1934:	9a 01       	movw	r18, r20
    1936:	ad ec       	ldi	r26, 0xCD	; 205
    1938:	bc ec       	ldi	r27, 0xCC	; 204
    193a:	0e 94 ff 1a 	call	0x35fe	; 0x35fe <__umulhisi3>
    193e:	96 95       	lsr	r25
    1940:	87 95       	ror	r24
    1942:	96 95       	lsr	r25
    1944:	87 95       	ror	r24
    1946:	96 95       	lsr	r25
    1948:	87 95       	ror	r24
    194a:	88 0f       	add	r24, r24
    194c:	99 1f       	adc	r25, r25
    194e:	9c 01       	movw	r18, r24
    1950:	22 0f       	add	r18, r18
    1952:	33 1f       	adc	r19, r19
    1954:	22 0f       	add	r18, r18
    1956:	33 1f       	adc	r19, r19
    1958:	82 0f       	add	r24, r18
    195a:	93 1f       	adc	r25, r19
    195c:	fa 01       	movw	r30, r20
    195e:	e8 1b       	sub	r30, r24
    1960:	f9 0b       	sbc	r31, r25
    1962:	cf 01       	movw	r24, r30
    1964:	28 2f       	mov	r18, r24
    1966:	8b 81       	ldd	r24, Y+3	; 0x03
    1968:	9c 81       	ldd	r25, Y+4	; 0x04
    196a:	40 e0       	ldi	r20, 0x00	; 0
    196c:	6f e0       	ldi	r22, 0x0F	; 15
    196e:	3e d6       	rcall	.+3196   	; 0x25ec <display_small_number>
    1970:	40 91 84 02 	lds	r20, 0x0284	; 0x800284 <battery_voltage>
    1974:	50 91 85 02 	lds	r21, 0x0285	; 0x800285 <battery_voltage+0x1>
    1978:	9a 01       	movw	r18, r20
    197a:	ad ec       	ldi	r26, 0xCD	; 205
    197c:	bc ec       	ldi	r27, 0xCC	; 204
    197e:	0e 94 ff 1a 	call	0x35fe	; 0x35fe <__umulhisi3>
    1982:	96 95       	lsr	r25
    1984:	87 95       	ror	r24
    1986:	96 95       	lsr	r25
    1988:	87 95       	ror	r24
    198a:	96 95       	lsr	r25
    198c:	87 95       	ror	r24
    198e:	88 0f       	add	r24, r24
    1990:	99 1f       	adc	r25, r25
    1992:	9c 01       	movw	r18, r24
    1994:	22 0f       	add	r18, r18
    1996:	33 1f       	adc	r19, r19
    1998:	22 0f       	add	r18, r18
    199a:	33 1f       	adc	r19, r19
    199c:	82 0f       	add	r24, r18
    199e:	93 1f       	adc	r25, r19
    19a0:	9a 01       	movw	r18, r20
    19a2:	28 1b       	sub	r18, r24
    19a4:	39 0b       	sbc	r19, r25
    19a6:	c9 01       	movw	r24, r18
    19a8:	28 2f       	mov	r18, r24
    19aa:	8b 81       	ldd	r24, Y+3	; 0x03
    19ac:	9c 81       	ldd	r25, Y+4	; 0x04
    19ae:	41 e0       	ldi	r20, 0x01	; 1
    19b0:	67 e0       	ldi	r22, 0x07	; 7
    19b2:	1c d6       	rcall	.+3128   	; 0x25ec <display_small_number>
    19b4:	80 91 84 02 	lds	r24, 0x0284	; 0x800284 <battery_voltage>
    19b8:	90 91 85 02 	lds	r25, 0x0285	; 0x800285 <battery_voltage+0x1>
    19bc:	9c 01       	movw	r18, r24
    19be:	ad ec       	ldi	r26, 0xCD	; 205
    19c0:	bc ec       	ldi	r27, 0xCC	; 204
    19c2:	0e 94 ff 1a 	call	0x35fe	; 0x35fe <__umulhisi3>
    19c6:	ac 01       	movw	r20, r24
    19c8:	56 95       	lsr	r21
    19ca:	47 95       	ror	r20
    19cc:	56 95       	lsr	r21
    19ce:	47 95       	ror	r20
    19d0:	56 95       	lsr	r21
    19d2:	47 95       	ror	r20
    19d4:	9a 01       	movw	r18, r20
    19d6:	ad ec       	ldi	r26, 0xCD	; 205
    19d8:	bc ec       	ldi	r27, 0xCC	; 204
    19da:	0e 94 ff 1a 	call	0x35fe	; 0x35fe <__umulhisi3>
    19de:	96 95       	lsr	r25
    19e0:	87 95       	ror	r24
    19e2:	96 95       	lsr	r25
    19e4:	87 95       	ror	r24
    19e6:	96 95       	lsr	r25
    19e8:	87 95       	ror	r24
    19ea:	88 0f       	add	r24, r24
    19ec:	99 1f       	adc	r25, r25
    19ee:	9c 01       	movw	r18, r24
    19f0:	22 0f       	add	r18, r18
    19f2:	33 1f       	adc	r19, r19
    19f4:	22 0f       	add	r18, r18
    19f6:	33 1f       	adc	r19, r19
    19f8:	82 0f       	add	r24, r18
    19fa:	93 1f       	adc	r25, r19
    19fc:	fa 01       	movw	r30, r20
    19fe:	e8 1b       	sub	r30, r24
    1a00:	f9 0b       	sbc	r31, r25
    1a02:	cf 01       	movw	r24, r30
    1a04:	28 2f       	mov	r18, r24
    1a06:	8b 81       	ldd	r24, Y+3	; 0x03
    1a08:	9c 81       	ldd	r25, Y+4	; 0x04
    1a0a:	41 e0       	ldi	r20, 0x01	; 1
    1a0c:	65 e0       	ldi	r22, 0x05	; 5
    1a0e:	ee d5       	rcall	.+3036   	; 0x25ec <display_small_number>
    1a10:	80 91 84 02 	lds	r24, 0x0284	; 0x800284 <battery_voltage>
    1a14:	90 91 85 02 	lds	r25, 0x0285	; 0x800285 <battery_voltage+0x1>
    1a18:	96 95       	lsr	r25
    1a1a:	87 95       	ror	r24
    1a1c:	96 95       	lsr	r25
    1a1e:	87 95       	ror	r24
    1a20:	9c 01       	movw	r18, r24
    1a22:	ab e7       	ldi	r26, 0x7B	; 123
    1a24:	b4 e1       	ldi	r27, 0x14	; 20
    1a26:	0e 94 ff 1a 	call	0x35fe	; 0x35fe <__umulhisi3>
    1a2a:	ac 01       	movw	r20, r24
    1a2c:	56 95       	lsr	r21
    1a2e:	47 95       	ror	r20
    1a30:	9a 01       	movw	r18, r20
    1a32:	ad ec       	ldi	r26, 0xCD	; 205
    1a34:	bc ec       	ldi	r27, 0xCC	; 204
    1a36:	0e 94 ff 1a 	call	0x35fe	; 0x35fe <__umulhisi3>
    1a3a:	96 95       	lsr	r25
    1a3c:	87 95       	ror	r24
    1a3e:	96 95       	lsr	r25
    1a40:	87 95       	ror	r24
    1a42:	96 95       	lsr	r25
    1a44:	87 95       	ror	r24
    1a46:	88 0f       	add	r24, r24
    1a48:	99 1f       	adc	r25, r25
    1a4a:	9c 01       	movw	r18, r24
    1a4c:	22 0f       	add	r18, r18
    1a4e:	33 1f       	adc	r19, r19
    1a50:	22 0f       	add	r18, r18
    1a52:	33 1f       	adc	r19, r19
    1a54:	82 0f       	add	r24, r18
    1a56:	93 1f       	adc	r25, r19
    1a58:	9a 01       	movw	r18, r20
    1a5a:	28 1b       	sub	r18, r24
    1a5c:	39 0b       	sbc	r19, r25
    1a5e:	c9 01       	movw	r24, r18
    1a60:	28 2f       	mov	r18, r24
    1a62:	8b 81       	ldd	r24, Y+3	; 0x03
    1a64:	9c 81       	ldd	r25, Y+4	; 0x04
    1a66:	41 e0       	ldi	r20, 0x01	; 1
    1a68:	64 e0       	ldi	r22, 0x04	; 4
    1a6a:	c0 d5       	rcall	.+2944   	; 0x25ec <display_small_number>
    1a6c:	40 91 73 02 	lds	r20, 0x0273	; 0x800273 <cooling_1>
    1a70:	50 91 74 02 	lds	r21, 0x0274	; 0x800274 <cooling_1+0x1>
    1a74:	9a 01       	movw	r18, r20
    1a76:	ad ec       	ldi	r26, 0xCD	; 205
    1a78:	bc ec       	ldi	r27, 0xCC	; 204
    1a7a:	0e 94 ff 1a 	call	0x35fe	; 0x35fe <__umulhisi3>
    1a7e:	96 95       	lsr	r25
    1a80:	87 95       	ror	r24
    1a82:	96 95       	lsr	r25
    1a84:	87 95       	ror	r24
    1a86:	96 95       	lsr	r25
    1a88:	87 95       	ror	r24
    1a8a:	88 0f       	add	r24, r24
    1a8c:	99 1f       	adc	r25, r25
    1a8e:	9c 01       	movw	r18, r24
    1a90:	22 0f       	add	r18, r18
    1a92:	33 1f       	adc	r19, r19
    1a94:	22 0f       	add	r18, r18
    1a96:	33 1f       	adc	r19, r19
    1a98:	82 0f       	add	r24, r18
    1a9a:	93 1f       	adc	r25, r19
    1a9c:	fa 01       	movw	r30, r20
    1a9e:	e8 1b       	sub	r30, r24
    1aa0:	f9 0b       	sbc	r31, r25
    1aa2:	cf 01       	movw	r24, r30
    1aa4:	28 2f       	mov	r18, r24
    1aa6:	8b 81       	ldd	r24, Y+3	; 0x03
    1aa8:	9c 81       	ldd	r25, Y+4	; 0x04
    1aaa:	41 e0       	ldi	r20, 0x01	; 1
    1aac:	62 e1       	ldi	r22, 0x12	; 18
    1aae:	9e d5       	rcall	.+2876   	; 0x25ec <display_small_number>
    1ab0:	80 91 73 02 	lds	r24, 0x0273	; 0x800273 <cooling_1>
    1ab4:	90 91 74 02 	lds	r25, 0x0274	; 0x800274 <cooling_1+0x1>
    1ab8:	9c 01       	movw	r18, r24
    1aba:	ad ec       	ldi	r26, 0xCD	; 205
    1abc:	bc ec       	ldi	r27, 0xCC	; 204
    1abe:	0e 94 ff 1a 	call	0x35fe	; 0x35fe <__umulhisi3>
    1ac2:	ac 01       	movw	r20, r24
    1ac4:	56 95       	lsr	r21
    1ac6:	47 95       	ror	r20
    1ac8:	56 95       	lsr	r21
    1aca:	47 95       	ror	r20
    1acc:	56 95       	lsr	r21
    1ace:	47 95       	ror	r20
    1ad0:	9a 01       	movw	r18, r20
    1ad2:	ad ec       	ldi	r26, 0xCD	; 205
    1ad4:	bc ec       	ldi	r27, 0xCC	; 204
    1ad6:	0e 94 ff 1a 	call	0x35fe	; 0x35fe <__umulhisi3>
    1ada:	96 95       	lsr	r25
    1adc:	87 95       	ror	r24
    1ade:	96 95       	lsr	r25
    1ae0:	87 95       	ror	r24
    1ae2:	96 95       	lsr	r25
    1ae4:	87 95       	ror	r24
    1ae6:	88 0f       	add	r24, r24
    1ae8:	99 1f       	adc	r25, r25
    1aea:	9c 01       	movw	r18, r24
    1aec:	22 0f       	add	r18, r18
    1aee:	33 1f       	adc	r19, r19
    1af0:	22 0f       	add	r18, r18
    1af2:	33 1f       	adc	r19, r19
    1af4:	82 0f       	add	r24, r18
    1af6:	93 1f       	adc	r25, r19
    1af8:	9a 01       	movw	r18, r20
    1afa:	28 1b       	sub	r18, r24
    1afc:	39 0b       	sbc	r19, r25
    1afe:	c9 01       	movw	r24, r18
    1b00:	28 2f       	mov	r18, r24
    1b02:	8b 81       	ldd	r24, Y+3	; 0x03
    1b04:	9c 81       	ldd	r25, Y+4	; 0x04
    1b06:	41 e0       	ldi	r20, 0x01	; 1
    1b08:	60 e1       	ldi	r22, 0x10	; 16
    1b0a:	70 d5       	rcall	.+2784   	; 0x25ec <display_small_number>
    1b0c:	80 91 73 02 	lds	r24, 0x0273	; 0x800273 <cooling_1>
    1b10:	90 91 74 02 	lds	r25, 0x0274	; 0x800274 <cooling_1+0x1>
    1b14:	96 95       	lsr	r25
    1b16:	87 95       	ror	r24
    1b18:	96 95       	lsr	r25
    1b1a:	87 95       	ror	r24
    1b1c:	9c 01       	movw	r18, r24
    1b1e:	ab e7       	ldi	r26, 0x7B	; 123
    1b20:	b4 e1       	ldi	r27, 0x14	; 20
    1b22:	0e 94 ff 1a 	call	0x35fe	; 0x35fe <__umulhisi3>
    1b26:	ac 01       	movw	r20, r24
    1b28:	56 95       	lsr	r21
    1b2a:	47 95       	ror	r20
    1b2c:	9a 01       	movw	r18, r20
    1b2e:	ad ec       	ldi	r26, 0xCD	; 205
    1b30:	bc ec       	ldi	r27, 0xCC	; 204
    1b32:	0e 94 ff 1a 	call	0x35fe	; 0x35fe <__umulhisi3>
    1b36:	96 95       	lsr	r25
    1b38:	87 95       	ror	r24
    1b3a:	96 95       	lsr	r25
    1b3c:	87 95       	ror	r24
    1b3e:	96 95       	lsr	r25
    1b40:	87 95       	ror	r24
    1b42:	88 0f       	add	r24, r24
    1b44:	99 1f       	adc	r25, r25
    1b46:	9c 01       	movw	r18, r24
    1b48:	22 0f       	add	r18, r18
    1b4a:	33 1f       	adc	r19, r19
    1b4c:	22 0f       	add	r18, r18
    1b4e:	33 1f       	adc	r19, r19
    1b50:	82 0f       	add	r24, r18
    1b52:	93 1f       	adc	r25, r19
    1b54:	fa 01       	movw	r30, r20
    1b56:	e8 1b       	sub	r30, r24
    1b58:	f9 0b       	sbc	r31, r25
    1b5a:	cf 01       	movw	r24, r30
    1b5c:	28 2f       	mov	r18, r24
    1b5e:	8b 81       	ldd	r24, Y+3	; 0x03
    1b60:	9c 81       	ldd	r25, Y+4	; 0x04
    1b62:	41 e0       	ldi	r20, 0x01	; 1
    1b64:	6f e0       	ldi	r22, 0x0F	; 15
    1b66:	42 d5       	rcall	.+2692   	; 0x25ec <display_small_number>
    1b68:	40 91 6b 02 	lds	r20, 0x026B	; 0x80026b <APPS1>
    1b6c:	50 91 6c 02 	lds	r21, 0x026C	; 0x80026c <APPS1+0x1>
    1b70:	9a 01       	movw	r18, r20
    1b72:	ad ec       	ldi	r26, 0xCD	; 205
    1b74:	bc ec       	ldi	r27, 0xCC	; 204
    1b76:	0e 94 ff 1a 	call	0x35fe	; 0x35fe <__umulhisi3>
    1b7a:	96 95       	lsr	r25
    1b7c:	87 95       	ror	r24
    1b7e:	96 95       	lsr	r25
    1b80:	87 95       	ror	r24
    1b82:	96 95       	lsr	r25
    1b84:	87 95       	ror	r24
    1b86:	88 0f       	add	r24, r24
    1b88:	99 1f       	adc	r25, r25
    1b8a:	9c 01       	movw	r18, r24
    1b8c:	22 0f       	add	r18, r18
    1b8e:	33 1f       	adc	r19, r19
    1b90:	22 0f       	add	r18, r18
    1b92:	33 1f       	adc	r19, r19
    1b94:	82 0f       	add	r24, r18
    1b96:	93 1f       	adc	r25, r19
    1b98:	9a 01       	movw	r18, r20
    1b9a:	28 1b       	sub	r18, r24
    1b9c:	39 0b       	sbc	r19, r25
    1b9e:	c9 01       	movw	r24, r18
    1ba0:	28 2f       	mov	r18, r24
    1ba2:	8b 81       	ldd	r24, Y+3	; 0x03
    1ba4:	9c 81       	ldd	r25, Y+4	; 0x04
    1ba6:	42 e0       	ldi	r20, 0x02	; 2
    1ba8:	67 e0       	ldi	r22, 0x07	; 7
    1baa:	20 d5       	rcall	.+2624   	; 0x25ec <display_small_number>
    1bac:	80 91 6b 02 	lds	r24, 0x026B	; 0x80026b <APPS1>
    1bb0:	90 91 6c 02 	lds	r25, 0x026C	; 0x80026c <APPS1+0x1>
    1bb4:	9c 01       	movw	r18, r24
    1bb6:	ad ec       	ldi	r26, 0xCD	; 205
    1bb8:	bc ec       	ldi	r27, 0xCC	; 204
    1bba:	0e 94 ff 1a 	call	0x35fe	; 0x35fe <__umulhisi3>
    1bbe:	ac 01       	movw	r20, r24
    1bc0:	56 95       	lsr	r21
    1bc2:	47 95       	ror	r20
    1bc4:	56 95       	lsr	r21
    1bc6:	47 95       	ror	r20
    1bc8:	56 95       	lsr	r21
    1bca:	47 95       	ror	r20
    1bcc:	9a 01       	movw	r18, r20
    1bce:	ad ec       	ldi	r26, 0xCD	; 205
    1bd0:	bc ec       	ldi	r27, 0xCC	; 204
    1bd2:	0e 94 ff 1a 	call	0x35fe	; 0x35fe <__umulhisi3>
    1bd6:	96 95       	lsr	r25
    1bd8:	87 95       	ror	r24
    1bda:	96 95       	lsr	r25
    1bdc:	87 95       	ror	r24
    1bde:	96 95       	lsr	r25
    1be0:	87 95       	ror	r24
    1be2:	88 0f       	add	r24, r24
    1be4:	99 1f       	adc	r25, r25
    1be6:	9c 01       	movw	r18, r24
    1be8:	22 0f       	add	r18, r18
    1bea:	33 1f       	adc	r19, r19
    1bec:	22 0f       	add	r18, r18
    1bee:	33 1f       	adc	r19, r19
    1bf0:	82 0f       	add	r24, r18
    1bf2:	93 1f       	adc	r25, r19
    1bf4:	fa 01       	movw	r30, r20
    1bf6:	e8 1b       	sub	r30, r24
    1bf8:	f9 0b       	sbc	r31, r25
    1bfa:	cf 01       	movw	r24, r30
    1bfc:	28 2f       	mov	r18, r24
    1bfe:	8b 81       	ldd	r24, Y+3	; 0x03
    1c00:	9c 81       	ldd	r25, Y+4	; 0x04
    1c02:	42 e0       	ldi	r20, 0x02	; 2
    1c04:	66 e0       	ldi	r22, 0x06	; 6
    1c06:	f2 d4       	rcall	.+2532   	; 0x25ec <display_small_number>
    1c08:	40 91 6d 02 	lds	r20, 0x026D	; 0x80026d <APPS2>
    1c0c:	50 91 6e 02 	lds	r21, 0x026E	; 0x80026e <APPS2+0x1>
    1c10:	9a 01       	movw	r18, r20
    1c12:	ad ec       	ldi	r26, 0xCD	; 205
    1c14:	bc ec       	ldi	r27, 0xCC	; 204
    1c16:	0e 94 ff 1a 	call	0x35fe	; 0x35fe <__umulhisi3>
    1c1a:	96 95       	lsr	r25
    1c1c:	87 95       	ror	r24
    1c1e:	96 95       	lsr	r25
    1c20:	87 95       	ror	r24
    1c22:	96 95       	lsr	r25
    1c24:	87 95       	ror	r24
    1c26:	88 0f       	add	r24, r24
    1c28:	99 1f       	adc	r25, r25
    1c2a:	9c 01       	movw	r18, r24
    1c2c:	22 0f       	add	r18, r18
    1c2e:	33 1f       	adc	r19, r19
    1c30:	22 0f       	add	r18, r18
    1c32:	33 1f       	adc	r19, r19
    1c34:	82 0f       	add	r24, r18
    1c36:	93 1f       	adc	r25, r19
    1c38:	9a 01       	movw	r18, r20
    1c3a:	28 1b       	sub	r18, r24
    1c3c:	39 0b       	sbc	r19, r25
    1c3e:	c9 01       	movw	r24, r18
    1c40:	28 2f       	mov	r18, r24
    1c42:	8b 81       	ldd	r24, Y+3	; 0x03
    1c44:	9c 81       	ldd	r25, Y+4	; 0x04
    1c46:	42 e0       	ldi	r20, 0x02	; 2
    1c48:	60 e1       	ldi	r22, 0x10	; 16
    1c4a:	d0 d4       	rcall	.+2464   	; 0x25ec <display_small_number>
    1c4c:	80 91 6d 02 	lds	r24, 0x026D	; 0x80026d <APPS2>
    1c50:	90 91 6e 02 	lds	r25, 0x026E	; 0x80026e <APPS2+0x1>
    1c54:	9c 01       	movw	r18, r24
    1c56:	ad ec       	ldi	r26, 0xCD	; 205
    1c58:	bc ec       	ldi	r27, 0xCC	; 204
    1c5a:	0e 94 ff 1a 	call	0x35fe	; 0x35fe <__umulhisi3>
    1c5e:	ac 01       	movw	r20, r24
    1c60:	56 95       	lsr	r21
    1c62:	47 95       	ror	r20
    1c64:	56 95       	lsr	r21
    1c66:	47 95       	ror	r20
    1c68:	56 95       	lsr	r21
    1c6a:	47 95       	ror	r20
    1c6c:	9a 01       	movw	r18, r20
    1c6e:	ad ec       	ldi	r26, 0xCD	; 205
    1c70:	bc ec       	ldi	r27, 0xCC	; 204
    1c72:	0e 94 ff 1a 	call	0x35fe	; 0x35fe <__umulhisi3>
    1c76:	96 95       	lsr	r25
    1c78:	87 95       	ror	r24
    1c7a:	96 95       	lsr	r25
    1c7c:	87 95       	ror	r24
    1c7e:	96 95       	lsr	r25
    1c80:	87 95       	ror	r24
    1c82:	88 0f       	add	r24, r24
    1c84:	99 1f       	adc	r25, r25
    1c86:	9c 01       	movw	r18, r24
    1c88:	22 0f       	add	r18, r18
    1c8a:	33 1f       	adc	r19, r19
    1c8c:	22 0f       	add	r18, r18
    1c8e:	33 1f       	adc	r19, r19
    1c90:	82 0f       	add	r24, r18
    1c92:	93 1f       	adc	r25, r19
    1c94:	fa 01       	movw	r30, r20
    1c96:	e8 1b       	sub	r30, r24
    1c98:	f9 0b       	sbc	r31, r25
    1c9a:	cf 01       	movw	r24, r30
    1c9c:	28 2f       	mov	r18, r24
    1c9e:	8b 81       	ldd	r24, Y+3	; 0x03
    1ca0:	9c 81       	ldd	r25, Y+4	; 0x04
    1ca2:	42 e0       	ldi	r20, 0x02	; 2
    1ca4:	6f e0       	ldi	r22, 0x0F	; 15
    1ca6:	a2 d4       	rcall	.+2372   	; 0x25ec <display_small_number>
    1ca8:	80 91 6f 02 	lds	r24, 0x026F	; 0x80026f <BPSF>
    1cac:	90 91 70 02 	lds	r25, 0x0270	; 0x800270 <BPSF+0x1>
    1cb0:	9c 01       	movw	r18, r24
    1cb2:	ad ec       	ldi	r26, 0xCD	; 205
    1cb4:	bc ec       	ldi	r27, 0xCC	; 204
    1cb6:	0e 94 ff 1a 	call	0x35fe	; 0x35fe <__umulhisi3>
    1cba:	ac 01       	movw	r20, r24
    1cbc:	56 95       	lsr	r21
    1cbe:	47 95       	ror	r20
    1cc0:	56 95       	lsr	r21
    1cc2:	47 95       	ror	r20
    1cc4:	56 95       	lsr	r21
    1cc6:	47 95       	ror	r20
    1cc8:	9a 01       	movw	r18, r20
    1cca:	ad ec       	ldi	r26, 0xCD	; 205
    1ccc:	bc ec       	ldi	r27, 0xCC	; 204
    1cce:	0e 94 ff 1a 	call	0x35fe	; 0x35fe <__umulhisi3>
    1cd2:	96 95       	lsr	r25
    1cd4:	87 95       	ror	r24
    1cd6:	96 95       	lsr	r25
    1cd8:	87 95       	ror	r24
    1cda:	96 95       	lsr	r25
    1cdc:	87 95       	ror	r24
    1cde:	88 0f       	add	r24, r24
    1ce0:	99 1f       	adc	r25, r25
    1ce2:	9c 01       	movw	r18, r24
    1ce4:	22 0f       	add	r18, r18
    1ce6:	33 1f       	adc	r19, r19
    1ce8:	22 0f       	add	r18, r18
    1cea:	33 1f       	adc	r19, r19
    1cec:	82 0f       	add	r24, r18
    1cee:	93 1f       	adc	r25, r19
    1cf0:	9a 01       	movw	r18, r20
    1cf2:	28 1b       	sub	r18, r24
    1cf4:	39 0b       	sbc	r19, r25
    1cf6:	c9 01       	movw	r24, r18
    1cf8:	28 2f       	mov	r18, r24
    1cfa:	8b 81       	ldd	r24, Y+3	; 0x03
    1cfc:	9c 81       	ldd	r25, Y+4	; 0x04
    1cfe:	43 e0       	ldi	r20, 0x03	; 3
    1d00:	65 e0       	ldi	r22, 0x05	; 5
    1d02:	74 d4       	rcall	.+2280   	; 0x25ec <display_small_number>
    1d04:	80 91 6f 02 	lds	r24, 0x026F	; 0x80026f <BPSF>
    1d08:	90 91 70 02 	lds	r25, 0x0270	; 0x800270 <BPSF+0x1>
    1d0c:	96 95       	lsr	r25
    1d0e:	87 95       	ror	r24
    1d10:	96 95       	lsr	r25
    1d12:	87 95       	ror	r24
    1d14:	9c 01       	movw	r18, r24
    1d16:	ab e7       	ldi	r26, 0x7B	; 123
    1d18:	b4 e1       	ldi	r27, 0x14	; 20
    1d1a:	0e 94 ff 1a 	call	0x35fe	; 0x35fe <__umulhisi3>
    1d1e:	ac 01       	movw	r20, r24
    1d20:	56 95       	lsr	r21
    1d22:	47 95       	ror	r20
    1d24:	9a 01       	movw	r18, r20
    1d26:	ad ec       	ldi	r26, 0xCD	; 205
    1d28:	bc ec       	ldi	r27, 0xCC	; 204
    1d2a:	0e 94 ff 1a 	call	0x35fe	; 0x35fe <__umulhisi3>
    1d2e:	96 95       	lsr	r25
    1d30:	87 95       	ror	r24
    1d32:	96 95       	lsr	r25
    1d34:	87 95       	ror	r24
    1d36:	96 95       	lsr	r25
    1d38:	87 95       	ror	r24
    1d3a:	88 0f       	add	r24, r24
    1d3c:	99 1f       	adc	r25, r25
    1d3e:	9c 01       	movw	r18, r24
    1d40:	22 0f       	add	r18, r18
    1d42:	33 1f       	adc	r19, r19
    1d44:	22 0f       	add	r18, r18
    1d46:	33 1f       	adc	r19, r19
    1d48:	82 0f       	add	r24, r18
    1d4a:	93 1f       	adc	r25, r19
    1d4c:	fa 01       	movw	r30, r20
    1d4e:	e8 1b       	sub	r30, r24
    1d50:	f9 0b       	sbc	r31, r25
    1d52:	cf 01       	movw	r24, r30
    1d54:	28 2f       	mov	r18, r24
    1d56:	8b 81       	ldd	r24, Y+3	; 0x03
    1d58:	9c 81       	ldd	r25, Y+4	; 0x04
    1d5a:	43 e0       	ldi	r20, 0x03	; 3
    1d5c:	64 e0       	ldi	r22, 0x04	; 4
    1d5e:	46 d4       	rcall	.+2188   	; 0x25ec <display_small_number>
    1d60:	80 91 71 02 	lds	r24, 0x0271	; 0x800271 <BPSR>
    1d64:	90 91 72 02 	lds	r25, 0x0272	; 0x800272 <BPSR+0x1>
    1d68:	9c 01       	movw	r18, r24
    1d6a:	ad ec       	ldi	r26, 0xCD	; 205
    1d6c:	bc ec       	ldi	r27, 0xCC	; 204
    1d6e:	0e 94 ff 1a 	call	0x35fe	; 0x35fe <__umulhisi3>
    1d72:	ac 01       	movw	r20, r24
    1d74:	56 95       	lsr	r21
    1d76:	47 95       	ror	r20
    1d78:	56 95       	lsr	r21
    1d7a:	47 95       	ror	r20
    1d7c:	56 95       	lsr	r21
    1d7e:	47 95       	ror	r20
    1d80:	9a 01       	movw	r18, r20
    1d82:	ad ec       	ldi	r26, 0xCD	; 205
    1d84:	bc ec       	ldi	r27, 0xCC	; 204
    1d86:	0e 94 ff 1a 	call	0x35fe	; 0x35fe <__umulhisi3>
    1d8a:	96 95       	lsr	r25
    1d8c:	87 95       	ror	r24
    1d8e:	96 95       	lsr	r25
    1d90:	87 95       	ror	r24
    1d92:	96 95       	lsr	r25
    1d94:	87 95       	ror	r24
    1d96:	88 0f       	add	r24, r24
    1d98:	99 1f       	adc	r25, r25
    1d9a:	9c 01       	movw	r18, r24
    1d9c:	22 0f       	add	r18, r18
    1d9e:	33 1f       	adc	r19, r19
    1da0:	22 0f       	add	r18, r18
    1da2:	33 1f       	adc	r19, r19
    1da4:	82 0f       	add	r24, r18
    1da6:	93 1f       	adc	r25, r19
    1da8:	9a 01       	movw	r18, r20
    1daa:	28 1b       	sub	r18, r24
    1dac:	39 0b       	sbc	r19, r25
    1dae:	c9 01       	movw	r24, r18
    1db0:	28 2f       	mov	r18, r24
    1db2:	8b 81       	ldd	r24, Y+3	; 0x03
    1db4:	9c 81       	ldd	r25, Y+4	; 0x04
    1db6:	43 e0       	ldi	r20, 0x03	; 3
    1db8:	6b e0       	ldi	r22, 0x0B	; 11
    1dba:	18 d4       	rcall	.+2096   	; 0x25ec <display_small_number>
    1dbc:	80 91 71 02 	lds	r24, 0x0271	; 0x800271 <BPSR>
    1dc0:	90 91 72 02 	lds	r25, 0x0272	; 0x800272 <BPSR+0x1>
    1dc4:	96 95       	lsr	r25
    1dc6:	87 95       	ror	r24
    1dc8:	96 95       	lsr	r25
    1dca:	87 95       	ror	r24
    1dcc:	9c 01       	movw	r18, r24
    1dce:	ab e7       	ldi	r26, 0x7B	; 123
    1dd0:	b4 e1       	ldi	r27, 0x14	; 20
    1dd2:	0e 94 ff 1a 	call	0x35fe	; 0x35fe <__umulhisi3>
    1dd6:	ac 01       	movw	r20, r24
    1dd8:	56 95       	lsr	r21
    1dda:	47 95       	ror	r20
    1ddc:	9a 01       	movw	r18, r20
    1dde:	ad ec       	ldi	r26, 0xCD	; 205
    1de0:	bc ec       	ldi	r27, 0xCC	; 204
    1de2:	0e 94 ff 1a 	call	0x35fe	; 0x35fe <__umulhisi3>
    1de6:	96 95       	lsr	r25
    1de8:	87 95       	ror	r24
    1dea:	96 95       	lsr	r25
    1dec:	87 95       	ror	r24
    1dee:	96 95       	lsr	r25
    1df0:	87 95       	ror	r24
    1df2:	88 0f       	add	r24, r24
    1df4:	99 1f       	adc	r25, r25
    1df6:	9c 01       	movw	r18, r24
    1df8:	22 0f       	add	r18, r18
    1dfa:	33 1f       	adc	r19, r19
    1dfc:	22 0f       	add	r18, r18
    1dfe:	33 1f       	adc	r19, r19
    1e00:	82 0f       	add	r24, r18
    1e02:	93 1f       	adc	r25, r19
    1e04:	fa 01       	movw	r30, r20
    1e06:	e8 1b       	sub	r30, r24
    1e08:	f9 0b       	sbc	r31, r25
    1e0a:	cf 01       	movw	r24, r30
    1e0c:	28 2f       	mov	r18, r24
    1e0e:	8b 81       	ldd	r24, Y+3	; 0x03
    1e10:	9c 81       	ldd	r25, Y+4	; 0x04
    1e12:	43 e0       	ldi	r20, 0x03	; 3
    1e14:	6a e0       	ldi	r22, 0x0A	; 10
    1e16:	ea d3       	rcall	.+2004   	; 0x25ec <display_small_number>
    1e18:	00 00       	nop
    1e1a:	0f 90       	pop	r0
    1e1c:	0f 90       	pop	r0
    1e1e:	0f 90       	pop	r0
    1e20:	0f 90       	pop	r0
    1e22:	df 91       	pop	r29
    1e24:	cf 91       	pop	r28
    1e26:	08 95       	ret

00001e28 <display_meme>:
    1e28:	cf 93       	push	r28
    1e2a:	df 93       	push	r29
    1e2c:	00 d0       	rcall	.+0      	; 0x1e2e <display_meme+0x6>
    1e2e:	cd b7       	in	r28, 0x3d	; 61
    1e30:	de b7       	in	r29, 0x3e	; 62
    1e32:	9a 83       	std	Y+2, r25	; 0x02
    1e34:	89 83       	std	Y+1, r24	; 0x01
    1e36:	0e 94 13 07 	call	0xe26	; 0xe26 <display_definechars>
    1e3a:	00 00       	nop
    1e3c:	0f 90       	pop	r0
    1e3e:	0f 90       	pop	r0
    1e40:	df 91       	pop	r29
    1e42:	cf 91       	pop	r28
    1e44:	08 95       	ret

00001e46 <display_voltage>:
    1e46:	cf 93       	push	r28
    1e48:	df 93       	push	r29
    1e4a:	00 d0       	rcall	.+0      	; 0x1e4c <display_voltage+0x6>
    1e4c:	00 d0       	rcall	.+0      	; 0x1e4e <display_voltage+0x8>
    1e4e:	cd b7       	in	r28, 0x3d	; 61
    1e50:	de b7       	in	r29, 0x3e	; 62
    1e52:	9a 83       	std	Y+2, r25	; 0x02
    1e54:	89 83       	std	Y+1, r24	; 0x01
    1e56:	7c 83       	std	Y+4, r23	; 0x04
    1e58:	6b 83       	std	Y+3, r22	; 0x03
    1e5a:	89 81       	ldd	r24, Y+1	; 0x01
    1e5c:	9a 81       	ldd	r25, Y+2	; 0x02
    1e5e:	4b e0       	ldi	r20, 0x0B	; 11
    1e60:	6e e0       	ldi	r22, 0x0E	; 14
    1e62:	ad d1       	rcall	.+858    	; 0x21be <display_large_number>
    1e64:	89 81       	ldd	r24, Y+1	; 0x01
    1e66:	9a 81       	ldd	r25, Y+2	; 0x02
    1e68:	24 e0       	ldi	r18, 0x04	; 4
    1e6a:	43 e0       	ldi	r20, 0x03	; 3
    1e6c:	6f e9       	ldi	r22, 0x9F	; 159
    1e6e:	71 e0       	ldi	r23, 0x01	; 1
    1e70:	b2 d8       	rcall	.-3740   	; 0xfd6 <display_write_str>
    1e72:	4b 81       	ldd	r20, Y+3	; 0x03
    1e74:	5c 81       	ldd	r21, Y+4	; 0x04
    1e76:	9a 01       	movw	r18, r20
    1e78:	ad ec       	ldi	r26, 0xCD	; 205
    1e7a:	bc ec       	ldi	r27, 0xCC	; 204
    1e7c:	0e 94 ff 1a 	call	0x35fe	; 0x35fe <__umulhisi3>
    1e80:	96 95       	lsr	r25
    1e82:	87 95       	ror	r24
    1e84:	96 95       	lsr	r25
    1e86:	87 95       	ror	r24
    1e88:	96 95       	lsr	r25
    1e8a:	87 95       	ror	r24
    1e8c:	88 0f       	add	r24, r24
    1e8e:	99 1f       	adc	r25, r25
    1e90:	9c 01       	movw	r18, r24
    1e92:	22 0f       	add	r18, r18
    1e94:	33 1f       	adc	r19, r19
    1e96:	22 0f       	add	r18, r18
    1e98:	33 1f       	adc	r19, r19
    1e9a:	82 0f       	add	r24, r18
    1e9c:	93 1f       	adc	r25, r19
    1e9e:	9a 01       	movw	r18, r20
    1ea0:	28 1b       	sub	r18, r24
    1ea2:	39 0b       	sbc	r19, r25
    1ea4:	c9 01       	movw	r24, r18
    1ea6:	28 2f       	mov	r18, r24
    1ea8:	89 81       	ldd	r24, Y+1	; 0x01
    1eaa:	9a 81       	ldd	r25, Y+2	; 0x02
    1eac:	42 2f       	mov	r20, r18
    1eae:	6a e0       	ldi	r22, 0x0A	; 10
    1eb0:	86 d1       	rcall	.+780    	; 0x21be <display_large_number>
    1eb2:	8b 81       	ldd	r24, Y+3	; 0x03
    1eb4:	9c 81       	ldd	r25, Y+4	; 0x04
    1eb6:	9c 01       	movw	r18, r24
    1eb8:	ad ec       	ldi	r26, 0xCD	; 205
    1eba:	bc ec       	ldi	r27, 0xCC	; 204
    1ebc:	0e 94 ff 1a 	call	0x35fe	; 0x35fe <__umulhisi3>
    1ec0:	96 95       	lsr	r25
    1ec2:	87 95       	ror	r24
    1ec4:	96 95       	lsr	r25
    1ec6:	87 95       	ror	r24
    1ec8:	96 95       	lsr	r25
    1eca:	87 95       	ror	r24
    1ecc:	9c 83       	std	Y+4, r25	; 0x04
    1ece:	8b 83       	std	Y+3, r24	; 0x03
    1ed0:	4b 81       	ldd	r20, Y+3	; 0x03
    1ed2:	5c 81       	ldd	r21, Y+4	; 0x04
    1ed4:	9a 01       	movw	r18, r20
    1ed6:	ad ec       	ldi	r26, 0xCD	; 205
    1ed8:	bc ec       	ldi	r27, 0xCC	; 204
    1eda:	0e 94 ff 1a 	call	0x35fe	; 0x35fe <__umulhisi3>
    1ede:	96 95       	lsr	r25
    1ee0:	87 95       	ror	r24
    1ee2:	96 95       	lsr	r25
    1ee4:	87 95       	ror	r24
    1ee6:	96 95       	lsr	r25
    1ee8:	87 95       	ror	r24
    1eea:	88 0f       	add	r24, r24
    1eec:	99 1f       	adc	r25, r25
    1eee:	9c 01       	movw	r18, r24
    1ef0:	22 0f       	add	r18, r18
    1ef2:	33 1f       	adc	r19, r19
    1ef4:	22 0f       	add	r18, r18
    1ef6:	33 1f       	adc	r19, r19
    1ef8:	82 0f       	add	r24, r18
    1efa:	93 1f       	adc	r25, r19
    1efc:	9a 01       	movw	r18, r20
    1efe:	28 1b       	sub	r18, r24
    1f00:	39 0b       	sbc	r19, r25
    1f02:	c9 01       	movw	r24, r18
    1f04:	28 2f       	mov	r18, r24
    1f06:	89 81       	ldd	r24, Y+1	; 0x01
    1f08:	9a 81       	ldd	r25, Y+2	; 0x02
    1f0a:	42 2f       	mov	r20, r18
    1f0c:	66 e0       	ldi	r22, 0x06	; 6
    1f0e:	57 d1       	rcall	.+686    	; 0x21be <display_large_number>
    1f10:	8b 81       	ldd	r24, Y+3	; 0x03
    1f12:	9c 81       	ldd	r25, Y+4	; 0x04
    1f14:	9c 01       	movw	r18, r24
    1f16:	ad ec       	ldi	r26, 0xCD	; 205
    1f18:	bc ec       	ldi	r27, 0xCC	; 204
    1f1a:	0e 94 ff 1a 	call	0x35fe	; 0x35fe <__umulhisi3>
    1f1e:	96 95       	lsr	r25
    1f20:	87 95       	ror	r24
    1f22:	96 95       	lsr	r25
    1f24:	87 95       	ror	r24
    1f26:	96 95       	lsr	r25
    1f28:	87 95       	ror	r24
    1f2a:	9c 83       	std	Y+4, r25	; 0x04
    1f2c:	8b 83       	std	Y+3, r24	; 0x03
    1f2e:	4b 81       	ldd	r20, Y+3	; 0x03
    1f30:	5c 81       	ldd	r21, Y+4	; 0x04
    1f32:	9a 01       	movw	r18, r20
    1f34:	ad ec       	ldi	r26, 0xCD	; 205
    1f36:	bc ec       	ldi	r27, 0xCC	; 204
    1f38:	0e 94 ff 1a 	call	0x35fe	; 0x35fe <__umulhisi3>
    1f3c:	96 95       	lsr	r25
    1f3e:	87 95       	ror	r24
    1f40:	96 95       	lsr	r25
    1f42:	87 95       	ror	r24
    1f44:	96 95       	lsr	r25
    1f46:	87 95       	ror	r24
    1f48:	88 0f       	add	r24, r24
    1f4a:	99 1f       	adc	r25, r25
    1f4c:	9c 01       	movw	r18, r24
    1f4e:	22 0f       	add	r18, r18
    1f50:	33 1f       	adc	r19, r19
    1f52:	22 0f       	add	r18, r18
    1f54:	33 1f       	adc	r19, r19
    1f56:	82 0f       	add	r24, r18
    1f58:	93 1f       	adc	r25, r19
    1f5a:	9a 01       	movw	r18, r20
    1f5c:	28 1b       	sub	r18, r24
    1f5e:	39 0b       	sbc	r19, r25
    1f60:	c9 01       	movw	r24, r18
    1f62:	28 2f       	mov	r18, r24
    1f64:	89 81       	ldd	r24, Y+1	; 0x01
    1f66:	9a 81       	ldd	r25, Y+2	; 0x02
    1f68:	42 2f       	mov	r20, r18
    1f6a:	60 e0       	ldi	r22, 0x00	; 0
    1f6c:	28 d1       	rcall	.+592    	; 0x21be <display_large_number>
    1f6e:	00 00       	nop
    1f70:	0f 90       	pop	r0
    1f72:	0f 90       	pop	r0
    1f74:	0f 90       	pop	r0
    1f76:	0f 90       	pop	r0
    1f78:	df 91       	pop	r29
    1f7a:	cf 91       	pop	r28
    1f7c:	08 95       	ret

00001f7e <display_temp>:
    1f7e:	cf 93       	push	r28
    1f80:	df 93       	push	r29
    1f82:	00 d0       	rcall	.+0      	; 0x1f84 <display_temp+0x6>
    1f84:	00 d0       	rcall	.+0      	; 0x1f86 <display_temp+0x8>
    1f86:	cd b7       	in	r28, 0x3d	; 61
    1f88:	de b7       	in	r29, 0x3e	; 62
    1f8a:	9a 83       	std	Y+2, r25	; 0x02
    1f8c:	89 83       	std	Y+1, r24	; 0x01
    1f8e:	7c 83       	std	Y+4, r23	; 0x04
    1f90:	6b 83       	std	Y+3, r22	; 0x03
    1f92:	89 81       	ldd	r24, Y+1	; 0x01
    1f94:	9a 81       	ldd	r25, Y+2	; 0x02
    1f96:	4d e0       	ldi	r20, 0x0D	; 13
    1f98:	60 e1       	ldi	r22, 0x10	; 16
    1f9a:	11 d1       	rcall	.+546    	; 0x21be <display_large_number>
    1f9c:	89 81       	ldd	r24, Y+1	; 0x01
    1f9e:	9a 81       	ldd	r25, Y+2	; 0x02
    1fa0:	2e e0       	ldi	r18, 0x0E	; 14
    1fa2:	40 e0       	ldi	r20, 0x00	; 0
    1fa4:	61 ea       	ldi	r22, 0xA1	; 161
    1fa6:	71 e0       	ldi	r23, 0x01	; 1
    1fa8:	16 d8       	rcall	.-4052   	; 0xfd6 <display_write_str>
    1faa:	89 81       	ldd	r24, Y+1	; 0x01
    1fac:	9a 81       	ldd	r25, Y+2	; 0x02
    1fae:	28 e0       	ldi	r18, 0x08	; 8
    1fb0:	43 e0       	ldi	r20, 0x03	; 3
    1fb2:	6f e9       	ldi	r22, 0x9F	; 159
    1fb4:	71 e0       	ldi	r23, 0x01	; 1
    1fb6:	0f d8       	rcall	.-4066   	; 0xfd6 <display_write_str>
    1fb8:	4b 81       	ldd	r20, Y+3	; 0x03
    1fba:	5c 81       	ldd	r21, Y+4	; 0x04
    1fbc:	9a 01       	movw	r18, r20
    1fbe:	ad ec       	ldi	r26, 0xCD	; 205
    1fc0:	bc ec       	ldi	r27, 0xCC	; 204
    1fc2:	0e 94 ff 1a 	call	0x35fe	; 0x35fe <__umulhisi3>
    1fc6:	96 95       	lsr	r25
    1fc8:	87 95       	ror	r24
    1fca:	96 95       	lsr	r25
    1fcc:	87 95       	ror	r24
    1fce:	96 95       	lsr	r25
    1fd0:	87 95       	ror	r24
    1fd2:	88 0f       	add	r24, r24
    1fd4:	99 1f       	adc	r25, r25
    1fd6:	9c 01       	movw	r18, r24
    1fd8:	22 0f       	add	r18, r18
    1fda:	33 1f       	adc	r19, r19
    1fdc:	22 0f       	add	r18, r18
    1fde:	33 1f       	adc	r19, r19
    1fe0:	82 0f       	add	r24, r18
    1fe2:	93 1f       	adc	r25, r19
    1fe4:	9a 01       	movw	r18, r20
    1fe6:	28 1b       	sub	r18, r24
    1fe8:	39 0b       	sbc	r19, r25
    1fea:	c9 01       	movw	r24, r18
    1fec:	28 2f       	mov	r18, r24
    1fee:	89 81       	ldd	r24, Y+1	; 0x01
    1ff0:	9a 81       	ldd	r25, Y+2	; 0x02
    1ff2:	42 2f       	mov	r20, r18
    1ff4:	6a e0       	ldi	r22, 0x0A	; 10
    1ff6:	e3 d0       	rcall	.+454    	; 0x21be <display_large_number>
    1ff8:	8b 81       	ldd	r24, Y+3	; 0x03
    1ffa:	9c 81       	ldd	r25, Y+4	; 0x04
    1ffc:	9c 01       	movw	r18, r24
    1ffe:	ad ec       	ldi	r26, 0xCD	; 205
    2000:	bc ec       	ldi	r27, 0xCC	; 204
    2002:	0e 94 ff 1a 	call	0x35fe	; 0x35fe <__umulhisi3>
    2006:	96 95       	lsr	r25
    2008:	87 95       	ror	r24
    200a:	96 95       	lsr	r25
    200c:	87 95       	ror	r24
    200e:	96 95       	lsr	r25
    2010:	87 95       	ror	r24
    2012:	9c 83       	std	Y+4, r25	; 0x04
    2014:	8b 83       	std	Y+3, r24	; 0x03
    2016:	4b 81       	ldd	r20, Y+3	; 0x03
    2018:	5c 81       	ldd	r21, Y+4	; 0x04
    201a:	9a 01       	movw	r18, r20
    201c:	ad ec       	ldi	r26, 0xCD	; 205
    201e:	bc ec       	ldi	r27, 0xCC	; 204
    2020:	0e 94 ff 1a 	call	0x35fe	; 0x35fe <__umulhisi3>
    2024:	96 95       	lsr	r25
    2026:	87 95       	ror	r24
    2028:	96 95       	lsr	r25
    202a:	87 95       	ror	r24
    202c:	96 95       	lsr	r25
    202e:	87 95       	ror	r24
    2030:	88 0f       	add	r24, r24
    2032:	99 1f       	adc	r25, r25
    2034:	9c 01       	movw	r18, r24
    2036:	22 0f       	add	r18, r18
    2038:	33 1f       	adc	r19, r19
    203a:	22 0f       	add	r18, r18
    203c:	33 1f       	adc	r19, r19
    203e:	82 0f       	add	r24, r18
    2040:	93 1f       	adc	r25, r19
    2042:	9a 01       	movw	r18, r20
    2044:	28 1b       	sub	r18, r24
    2046:	39 0b       	sbc	r19, r25
    2048:	c9 01       	movw	r24, r18
    204a:	28 2f       	mov	r18, r24
    204c:	89 81       	ldd	r24, Y+1	; 0x01
    204e:	9a 81       	ldd	r25, Y+2	; 0x02
    2050:	42 2f       	mov	r20, r18
    2052:	64 e0       	ldi	r22, 0x04	; 4
    2054:	b4 d0       	rcall	.+360    	; 0x21be <display_large_number>
    2056:	8b 81       	ldd	r24, Y+3	; 0x03
    2058:	9c 81       	ldd	r25, Y+4	; 0x04
    205a:	9c 01       	movw	r18, r24
    205c:	ad ec       	ldi	r26, 0xCD	; 205
    205e:	bc ec       	ldi	r27, 0xCC	; 204
    2060:	0e 94 ff 1a 	call	0x35fe	; 0x35fe <__umulhisi3>
    2064:	96 95       	lsr	r25
    2066:	87 95       	ror	r24
    2068:	96 95       	lsr	r25
    206a:	87 95       	ror	r24
    206c:	96 95       	lsr	r25
    206e:	87 95       	ror	r24
    2070:	9c 83       	std	Y+4, r25	; 0x04
    2072:	8b 83       	std	Y+3, r24	; 0x03
    2074:	4b 81       	ldd	r20, Y+3	; 0x03
    2076:	5c 81       	ldd	r21, Y+4	; 0x04
    2078:	9a 01       	movw	r18, r20
    207a:	ad ec       	ldi	r26, 0xCD	; 205
    207c:	bc ec       	ldi	r27, 0xCC	; 204
    207e:	0e 94 ff 1a 	call	0x35fe	; 0x35fe <__umulhisi3>
    2082:	96 95       	lsr	r25
    2084:	87 95       	ror	r24
    2086:	96 95       	lsr	r25
    2088:	87 95       	ror	r24
    208a:	96 95       	lsr	r25
    208c:	87 95       	ror	r24
    208e:	88 0f       	add	r24, r24
    2090:	99 1f       	adc	r25, r25
    2092:	9c 01       	movw	r18, r24
    2094:	22 0f       	add	r18, r18
    2096:	33 1f       	adc	r19, r19
    2098:	22 0f       	add	r18, r18
    209a:	33 1f       	adc	r19, r19
    209c:	82 0f       	add	r24, r18
    209e:	93 1f       	adc	r25, r19
    20a0:	9a 01       	movw	r18, r20
    20a2:	28 1b       	sub	r18, r24
    20a4:	39 0b       	sbc	r19, r25
    20a6:	c9 01       	movw	r24, r18
    20a8:	28 2f       	mov	r18, r24
    20aa:	89 81       	ldd	r24, Y+1	; 0x01
    20ac:	9a 81       	ldd	r25, Y+2	; 0x02
    20ae:	42 2f       	mov	r20, r18
    20b0:	60 e0       	ldi	r22, 0x00	; 0
    20b2:	85 d0       	rcall	.+266    	; 0x21be <display_large_number>
    20b4:	00 00       	nop
    20b6:	0f 90       	pop	r0
    20b8:	0f 90       	pop	r0
    20ba:	0f 90       	pop	r0
    20bc:	0f 90       	pop	r0
    20be:	df 91       	pop	r29
    20c0:	cf 91       	pop	r28
    20c2:	08 95       	ret

000020c4 <display_digits>:
    20c4:	ef 92       	push	r14
    20c6:	0f 93       	push	r16
    20c8:	1f 93       	push	r17
    20ca:	cf 93       	push	r28
    20cc:	df 93       	push	r29
    20ce:	cd b7       	in	r28, 0x3d	; 61
    20d0:	de b7       	in	r29, 0x3e	; 62
    20d2:	2a 97       	sbiw	r28, 0x0a	; 10
    20d4:	0f b6       	in	r0, 0x3f	; 63
    20d6:	f8 94       	cli
    20d8:	de bf       	out	0x3e, r29	; 62
    20da:	0f be       	out	0x3f, r0	; 63
    20dc:	cd bf       	out	0x3d, r28	; 61
    20de:	9c 83       	std	Y+4, r25	; 0x04
    20e0:	8b 83       	std	Y+3, r24	; 0x03
    20e2:	6d 83       	std	Y+5, r22	; 0x05
    20e4:	4e 83       	std	Y+6, r20	; 0x06
    20e6:	2f 83       	std	Y+7, r18	; 0x07
    20e8:	19 87       	std	Y+9, r17	; 0x09
    20ea:	08 87       	std	Y+8, r16	; 0x08
    20ec:	ea 86       	std	Y+10, r14	; 0x0a
    20ee:	1a 82       	std	Y+2, r1	; 0x02
    20f0:	19 82       	std	Y+1, r1	; 0x01
    20f2:	53 c0       	rjmp	.+166    	; 0x219a <display_digits+0xd6>
    20f4:	9a 85       	ldd	r25, Y+10	; 0x0a
    20f6:	89 81       	ldd	r24, Y+1	; 0x01
    20f8:	98 17       	cp	r25, r24
    20fa:	a8 f0       	brcs	.+42     	; 0x2126 <display_digits+0x62>
    20fc:	9a 85       	ldd	r25, Y+10	; 0x0a
    20fe:	89 81       	ldd	r24, Y+1	; 0x01
    2100:	98 17       	cp	r25, r24
    2102:	09 f0       	breq	.+2      	; 0x2106 <display_digits+0x42>
    2104:	47 c0       	rjmp	.+142    	; 0x2194 <display_digits+0xd0>
    2106:	9e 81       	ldd	r25, Y+6	; 0x06
    2108:	8d 81       	ldd	r24, Y+5	; 0x05
    210a:	98 0f       	add	r25, r24
    210c:	89 81       	ldd	r24, Y+1	; 0x01
    210e:	29 2f       	mov	r18, r25
    2110:	28 1b       	sub	r18, r24
    2112:	8b 81       	ldd	r24, Y+3	; 0x03
    2114:	9c 81       	ldd	r25, Y+4	; 0x04
    2116:	4f 81       	ldd	r20, Y+7	; 0x07
    2118:	63 ea       	ldi	r22, 0xA3	; 163
    211a:	71 e0       	ldi	r23, 0x01	; 1
    211c:	0e 94 eb 07 	call	0xfd6	; 0xfd6 <display_write_str>
    2120:	81 e0       	ldi	r24, 0x01	; 1
    2122:	8a 83       	std	Y+2, r24	; 0x02
    2124:	37 c0       	rjmp	.+110    	; 0x2194 <display_digits+0xd0>
    2126:	48 85       	ldd	r20, Y+8	; 0x08
    2128:	59 85       	ldd	r21, Y+9	; 0x09
    212a:	9a 01       	movw	r18, r20
    212c:	ad ec       	ldi	r26, 0xCD	; 205
    212e:	bc ec       	ldi	r27, 0xCC	; 204
    2130:	0e 94 ff 1a 	call	0x35fe	; 0x35fe <__umulhisi3>
    2134:	96 95       	lsr	r25
    2136:	87 95       	ror	r24
    2138:	96 95       	lsr	r25
    213a:	87 95       	ror	r24
    213c:	96 95       	lsr	r25
    213e:	87 95       	ror	r24
    2140:	88 0f       	add	r24, r24
    2142:	99 1f       	adc	r25, r25
    2144:	9c 01       	movw	r18, r24
    2146:	22 0f       	add	r18, r18
    2148:	33 1f       	adc	r19, r19
    214a:	22 0f       	add	r18, r18
    214c:	33 1f       	adc	r19, r19
    214e:	82 0f       	add	r24, r18
    2150:	93 1f       	adc	r25, r19
    2152:	9a 01       	movw	r18, r20
    2154:	28 1b       	sub	r18, r24
    2156:	39 0b       	sbc	r19, r25
    2158:	c9 01       	movw	r24, r18
    215a:	28 2f       	mov	r18, r24
    215c:	9d 81       	ldd	r25, Y+5	; 0x05
    215e:	89 81       	ldd	r24, Y+1	; 0x01
    2160:	98 1b       	sub	r25, r24
    2162:	8a 81       	ldd	r24, Y+2	; 0x02
    2164:	98 1b       	sub	r25, r24
    2166:	8e 81       	ldd	r24, Y+6	; 0x06
    2168:	39 2f       	mov	r19, r25
    216a:	38 0f       	add	r19, r24
    216c:	8b 81       	ldd	r24, Y+3	; 0x03
    216e:	9c 81       	ldd	r25, Y+4	; 0x04
    2170:	4f 81       	ldd	r20, Y+7	; 0x07
    2172:	63 2f       	mov	r22, r19
    2174:	3b d2       	rcall	.+1142   	; 0x25ec <display_small_number>
    2176:	88 85       	ldd	r24, Y+8	; 0x08
    2178:	99 85       	ldd	r25, Y+9	; 0x09
    217a:	9c 01       	movw	r18, r24
    217c:	ad ec       	ldi	r26, 0xCD	; 205
    217e:	bc ec       	ldi	r27, 0xCC	; 204
    2180:	0e 94 ff 1a 	call	0x35fe	; 0x35fe <__umulhisi3>
    2184:	96 95       	lsr	r25
    2186:	87 95       	ror	r24
    2188:	96 95       	lsr	r25
    218a:	87 95       	ror	r24
    218c:	96 95       	lsr	r25
    218e:	87 95       	ror	r24
    2190:	99 87       	std	Y+9, r25	; 0x09
    2192:	88 87       	std	Y+8, r24	; 0x08
    2194:	89 81       	ldd	r24, Y+1	; 0x01
    2196:	8f 5f       	subi	r24, 0xFF	; 255
    2198:	89 83       	std	Y+1, r24	; 0x01
    219a:	99 81       	ldd	r25, Y+1	; 0x01
    219c:	8d 81       	ldd	r24, Y+5	; 0x05
    219e:	98 17       	cp	r25, r24
    21a0:	08 f0       	brcs	.+2      	; 0x21a4 <display_digits+0xe0>
    21a2:	a8 cf       	rjmp	.-176    	; 0x20f4 <display_digits+0x30>
    21a4:	00 00       	nop
    21a6:	2a 96       	adiw	r28, 0x0a	; 10
    21a8:	0f b6       	in	r0, 0x3f	; 63
    21aa:	f8 94       	cli
    21ac:	de bf       	out	0x3e, r29	; 62
    21ae:	0f be       	out	0x3f, r0	; 63
    21b0:	cd bf       	out	0x3d, r28	; 61
    21b2:	df 91       	pop	r29
    21b4:	cf 91       	pop	r28
    21b6:	1f 91       	pop	r17
    21b8:	0f 91       	pop	r16
    21ba:	ef 90       	pop	r14
    21bc:	08 95       	ret

000021be <display_large_number>:
    21be:	cf 93       	push	r28
    21c0:	df 93       	push	r29
    21c2:	00 d0       	rcall	.+0      	; 0x21c4 <display_large_number+0x6>
    21c4:	00 d0       	rcall	.+0      	; 0x21c6 <display_large_number+0x8>
    21c6:	cd b7       	in	r28, 0x3d	; 61
    21c8:	de b7       	in	r29, 0x3e	; 62
    21ca:	9a 83       	std	Y+2, r25	; 0x02
    21cc:	89 83       	std	Y+1, r24	; 0x01
    21ce:	6b 83       	std	Y+3, r22	; 0x03
    21d0:	4c 83       	std	Y+4, r20	; 0x04
    21d2:	8c 81       	ldd	r24, Y+4	; 0x04
    21d4:	88 2f       	mov	r24, r24
    21d6:	90 e0       	ldi	r25, 0x00	; 0
    21d8:	09 2e       	mov	r0, r25
    21da:	00 0c       	add	r0, r0
    21dc:	aa 0b       	sbc	r26, r26
    21de:	bb 0b       	sbc	r27, r27
    21e0:	40 e0       	ldi	r20, 0x00	; 0
    21e2:	50 e0       	ldi	r21, 0x00	; 0
    21e4:	2d e0       	ldi	r18, 0x0D	; 13
    21e6:	30 e0       	ldi	r19, 0x00	; 0
    21e8:	84 1b       	sub	r24, r20
    21ea:	95 0b       	sbc	r25, r21
    21ec:	28 17       	cp	r18, r24
    21ee:	39 07       	cpc	r19, r25
    21f0:	08 f4       	brcc	.+2      	; 0x21f4 <display_large_number+0x36>
    21f2:	d3 c1       	rjmp	.+934    	; 0x259a <display_large_number+0x3dc>
    21f4:	86 5b       	subi	r24, 0xB6	; 182
    21f6:	9f 4f       	sbci	r25, 0xFF	; 255
    21f8:	fc 01       	movw	r30, r24
    21fa:	0c 94 f6 1a 	jmp	0x35ec	; 0x35ec <__tablejump2__>
    21fe:	89 81       	ldd	r24, Y+1	; 0x01
    2200:	9a 81       	ldd	r25, Y+2	; 0x02
    2202:	2b 81       	ldd	r18, Y+3	; 0x03
    2204:	40 e0       	ldi	r20, 0x00	; 0
    2206:	65 ea       	ldi	r22, 0xA5	; 165
    2208:	71 e0       	ldi	r23, 0x01	; 1
    220a:	0e 94 eb 07 	call	0xfd6	; 0xfd6 <display_write_str>
    220e:	89 81       	ldd	r24, Y+1	; 0x01
    2210:	9a 81       	ldd	r25, Y+2	; 0x02
    2212:	2b 81       	ldd	r18, Y+3	; 0x03
    2214:	41 e0       	ldi	r20, 0x01	; 1
    2216:	69 ea       	ldi	r22, 0xA9	; 169
    2218:	71 e0       	ldi	r23, 0x01	; 1
    221a:	0e 94 eb 07 	call	0xfd6	; 0xfd6 <display_write_str>
    221e:	89 81       	ldd	r24, Y+1	; 0x01
    2220:	9a 81       	ldd	r25, Y+2	; 0x02
    2222:	2b 81       	ldd	r18, Y+3	; 0x03
    2224:	42 e0       	ldi	r20, 0x02	; 2
    2226:	69 ea       	ldi	r22, 0xA9	; 169
    2228:	71 e0       	ldi	r23, 0x01	; 1
    222a:	0e 94 eb 07 	call	0xfd6	; 0xfd6 <display_write_str>
    222e:	89 81       	ldd	r24, Y+1	; 0x01
    2230:	9a 81       	ldd	r25, Y+2	; 0x02
    2232:	2b 81       	ldd	r18, Y+3	; 0x03
    2234:	43 e0       	ldi	r20, 0x03	; 3
    2236:	65 ea       	ldi	r22, 0xA5	; 165
    2238:	71 e0       	ldi	r23, 0x01	; 1
    223a:	0e 94 eb 07 	call	0xfd6	; 0xfd6 <display_write_str>
    223e:	ce c1       	rjmp	.+924    	; 0x25dc <display_large_number+0x41e>
    2240:	89 81       	ldd	r24, Y+1	; 0x01
    2242:	9a 81       	ldd	r25, Y+2	; 0x02
    2244:	2b 81       	ldd	r18, Y+3	; 0x03
    2246:	40 e0       	ldi	r20, 0x00	; 0
    2248:	6d ea       	ldi	r22, 0xAD	; 173
    224a:	71 e0       	ldi	r23, 0x01	; 1
    224c:	0e 94 eb 07 	call	0xfd6	; 0xfd6 <display_write_str>
    2250:	89 81       	ldd	r24, Y+1	; 0x01
    2252:	9a 81       	ldd	r25, Y+2	; 0x02
    2254:	2b 81       	ldd	r18, Y+3	; 0x03
    2256:	41 e0       	ldi	r20, 0x01	; 1
    2258:	61 eb       	ldi	r22, 0xB1	; 177
    225a:	71 e0       	ldi	r23, 0x01	; 1
    225c:	0e 94 eb 07 	call	0xfd6	; 0xfd6 <display_write_str>
    2260:	89 81       	ldd	r24, Y+1	; 0x01
    2262:	9a 81       	ldd	r25, Y+2	; 0x02
    2264:	2b 81       	ldd	r18, Y+3	; 0x03
    2266:	42 e0       	ldi	r20, 0x02	; 2
    2268:	61 eb       	ldi	r22, 0xB1	; 177
    226a:	71 e0       	ldi	r23, 0x01	; 1
    226c:	0e 94 eb 07 	call	0xfd6	; 0xfd6 <display_write_str>
    2270:	89 81       	ldd	r24, Y+1	; 0x01
    2272:	9a 81       	ldd	r25, Y+2	; 0x02
    2274:	2b 81       	ldd	r18, Y+3	; 0x03
    2276:	43 e0       	ldi	r20, 0x03	; 3
    2278:	61 eb       	ldi	r22, 0xB1	; 177
    227a:	71 e0       	ldi	r23, 0x01	; 1
    227c:	0e 94 eb 07 	call	0xfd6	; 0xfd6 <display_write_str>
    2280:	ad c1       	rjmp	.+858    	; 0x25dc <display_large_number+0x41e>
    2282:	89 81       	ldd	r24, Y+1	; 0x01
    2284:	9a 81       	ldd	r25, Y+2	; 0x02
    2286:	2b 81       	ldd	r18, Y+3	; 0x03
    2288:	40 e0       	ldi	r20, 0x00	; 0
    228a:	65 ea       	ldi	r22, 0xA5	; 165
    228c:	71 e0       	ldi	r23, 0x01	; 1
    228e:	0e 94 eb 07 	call	0xfd6	; 0xfd6 <display_write_str>
    2292:	89 81       	ldd	r24, Y+1	; 0x01
    2294:	9a 81       	ldd	r25, Y+2	; 0x02
    2296:	2b 81       	ldd	r18, Y+3	; 0x03
    2298:	41 e0       	ldi	r20, 0x01	; 1
    229a:	65 eb       	ldi	r22, 0xB5	; 181
    229c:	71 e0       	ldi	r23, 0x01	; 1
    229e:	0e 94 eb 07 	call	0xfd6	; 0xfd6 <display_write_str>
    22a2:	89 81       	ldd	r24, Y+1	; 0x01
    22a4:	9a 81       	ldd	r25, Y+2	; 0x02
    22a6:	2b 81       	ldd	r18, Y+3	; 0x03
    22a8:	42 e0       	ldi	r20, 0x02	; 2
    22aa:	69 eb       	ldi	r22, 0xB9	; 185
    22ac:	71 e0       	ldi	r23, 0x01	; 1
    22ae:	0e 94 eb 07 	call	0xfd6	; 0xfd6 <display_write_str>
    22b2:	89 81       	ldd	r24, Y+1	; 0x01
    22b4:	9a 81       	ldd	r25, Y+2	; 0x02
    22b6:	2b 81       	ldd	r18, Y+3	; 0x03
    22b8:	43 e0       	ldi	r20, 0x03	; 3
    22ba:	65 ea       	ldi	r22, 0xA5	; 165
    22bc:	71 e0       	ldi	r23, 0x01	; 1
    22be:	0e 94 eb 07 	call	0xfd6	; 0xfd6 <display_write_str>
    22c2:	8c c1       	rjmp	.+792    	; 0x25dc <display_large_number+0x41e>
    22c4:	89 81       	ldd	r24, Y+1	; 0x01
    22c6:	9a 81       	ldd	r25, Y+2	; 0x02
    22c8:	2b 81       	ldd	r18, Y+3	; 0x03
    22ca:	40 e0       	ldi	r20, 0x00	; 0
    22cc:	65 ea       	ldi	r22, 0xA5	; 165
    22ce:	71 e0       	ldi	r23, 0x01	; 1
    22d0:	0e 94 eb 07 	call	0xfd6	; 0xfd6 <display_write_str>
    22d4:	89 81       	ldd	r24, Y+1	; 0x01
    22d6:	9a 81       	ldd	r25, Y+2	; 0x02
    22d8:	2b 81       	ldd	r18, Y+3	; 0x03
    22da:	41 e0       	ldi	r20, 0x01	; 1
    22dc:	65 eb       	ldi	r22, 0xB5	; 181
    22de:	71 e0       	ldi	r23, 0x01	; 1
    22e0:	0e 94 eb 07 	call	0xfd6	; 0xfd6 <display_write_str>
    22e4:	89 81       	ldd	r24, Y+1	; 0x01
    22e6:	9a 81       	ldd	r25, Y+2	; 0x02
    22e8:	2b 81       	ldd	r18, Y+3	; 0x03
    22ea:	42 e0       	ldi	r20, 0x02	; 2
    22ec:	6d eb       	ldi	r22, 0xBD	; 189
    22ee:	71 e0       	ldi	r23, 0x01	; 1
    22f0:	0e 94 eb 07 	call	0xfd6	; 0xfd6 <display_write_str>
    22f4:	89 81       	ldd	r24, Y+1	; 0x01
    22f6:	9a 81       	ldd	r25, Y+2	; 0x02
    22f8:	2b 81       	ldd	r18, Y+3	; 0x03
    22fa:	43 e0       	ldi	r20, 0x03	; 3
    22fc:	65 ea       	ldi	r22, 0xA5	; 165
    22fe:	71 e0       	ldi	r23, 0x01	; 1
    2300:	0e 94 eb 07 	call	0xfd6	; 0xfd6 <display_write_str>
    2304:	6b c1       	rjmp	.+726    	; 0x25dc <display_large_number+0x41e>
    2306:	89 81       	ldd	r24, Y+1	; 0x01
    2308:	9a 81       	ldd	r25, Y+2	; 0x02
    230a:	2b 81       	ldd	r18, Y+3	; 0x03
    230c:	40 e0       	ldi	r20, 0x00	; 0
    230e:	61 ec       	ldi	r22, 0xC1	; 193
    2310:	71 e0       	ldi	r23, 0x01	; 1
    2312:	0e 94 eb 07 	call	0xfd6	; 0xfd6 <display_write_str>
    2316:	89 81       	ldd	r24, Y+1	; 0x01
    2318:	9a 81       	ldd	r25, Y+2	; 0x02
    231a:	2b 81       	ldd	r18, Y+3	; 0x03
    231c:	41 e0       	ldi	r20, 0x01	; 1
    231e:	65 ec       	ldi	r22, 0xC5	; 197
    2320:	71 e0       	ldi	r23, 0x01	; 1
    2322:	0e 94 eb 07 	call	0xfd6	; 0xfd6 <display_write_str>
    2326:	89 81       	ldd	r24, Y+1	; 0x01
    2328:	9a 81       	ldd	r25, Y+2	; 0x02
    232a:	2b 81       	ldd	r18, Y+3	; 0x03
    232c:	42 e0       	ldi	r20, 0x02	; 2
    232e:	69 ec       	ldi	r22, 0xC9	; 201
    2330:	71 e0       	ldi	r23, 0x01	; 1
    2332:	0e 94 eb 07 	call	0xfd6	; 0xfd6 <display_write_str>
    2336:	89 81       	ldd	r24, Y+1	; 0x01
    2338:	9a 81       	ldd	r25, Y+2	; 0x02
    233a:	2b 81       	ldd	r18, Y+3	; 0x03
    233c:	43 e0       	ldi	r20, 0x03	; 3
    233e:	6d ec       	ldi	r22, 0xCD	; 205
    2340:	71 e0       	ldi	r23, 0x01	; 1
    2342:	0e 94 eb 07 	call	0xfd6	; 0xfd6 <display_write_str>
    2346:	4a c1       	rjmp	.+660    	; 0x25dc <display_large_number+0x41e>
    2348:	89 81       	ldd	r24, Y+1	; 0x01
    234a:	9a 81       	ldd	r25, Y+2	; 0x02
    234c:	2b 81       	ldd	r18, Y+3	; 0x03
    234e:	40 e0       	ldi	r20, 0x00	; 0
    2350:	65 ea       	ldi	r22, 0xA5	; 165
    2352:	71 e0       	ldi	r23, 0x01	; 1
    2354:	0e 94 eb 07 	call	0xfd6	; 0xfd6 <display_write_str>
    2358:	89 81       	ldd	r24, Y+1	; 0x01
    235a:	9a 81       	ldd	r25, Y+2	; 0x02
    235c:	2b 81       	ldd	r18, Y+3	; 0x03
    235e:	41 e0       	ldi	r20, 0x01	; 1
    2360:	61 ed       	ldi	r22, 0xD1	; 209
    2362:	71 e0       	ldi	r23, 0x01	; 1
    2364:	0e 94 eb 07 	call	0xfd6	; 0xfd6 <display_write_str>
    2368:	89 81       	ldd	r24, Y+1	; 0x01
    236a:	9a 81       	ldd	r25, Y+2	; 0x02
    236c:	2b 81       	ldd	r18, Y+3	; 0x03
    236e:	42 e0       	ldi	r20, 0x02	; 2
    2370:	6d eb       	ldi	r22, 0xBD	; 189
    2372:	71 e0       	ldi	r23, 0x01	; 1
    2374:	0e 94 eb 07 	call	0xfd6	; 0xfd6 <display_write_str>
    2378:	89 81       	ldd	r24, Y+1	; 0x01
    237a:	9a 81       	ldd	r25, Y+2	; 0x02
    237c:	2b 81       	ldd	r18, Y+3	; 0x03
    237e:	43 e0       	ldi	r20, 0x03	; 3
    2380:	65 ea       	ldi	r22, 0xA5	; 165
    2382:	71 e0       	ldi	r23, 0x01	; 1
    2384:	0e 94 eb 07 	call	0xfd6	; 0xfd6 <display_write_str>
    2388:	29 c1       	rjmp	.+594    	; 0x25dc <display_large_number+0x41e>
    238a:	89 81       	ldd	r24, Y+1	; 0x01
    238c:	9a 81       	ldd	r25, Y+2	; 0x02
    238e:	2b 81       	ldd	r18, Y+3	; 0x03
    2390:	40 e0       	ldi	r20, 0x00	; 0
    2392:	65 ea       	ldi	r22, 0xA5	; 165
    2394:	71 e0       	ldi	r23, 0x01	; 1
    2396:	0e 94 eb 07 	call	0xfd6	; 0xfd6 <display_write_str>
    239a:	89 81       	ldd	r24, Y+1	; 0x01
    239c:	9a 81       	ldd	r25, Y+2	; 0x02
    239e:	2b 81       	ldd	r18, Y+3	; 0x03
    23a0:	41 e0       	ldi	r20, 0x01	; 1
    23a2:	61 ed       	ldi	r22, 0xD1	; 209
    23a4:	71 e0       	ldi	r23, 0x01	; 1
    23a6:	0e 94 eb 07 	call	0xfd6	; 0xfd6 <display_write_str>
    23aa:	89 81       	ldd	r24, Y+1	; 0x01
    23ac:	9a 81       	ldd	r25, Y+2	; 0x02
    23ae:	2b 81       	ldd	r18, Y+3	; 0x03
    23b0:	42 e0       	ldi	r20, 0x02	; 2
    23b2:	65 ed       	ldi	r22, 0xD5	; 213
    23b4:	71 e0       	ldi	r23, 0x01	; 1
    23b6:	0e 94 eb 07 	call	0xfd6	; 0xfd6 <display_write_str>
    23ba:	89 81       	ldd	r24, Y+1	; 0x01
    23bc:	9a 81       	ldd	r25, Y+2	; 0x02
    23be:	2b 81       	ldd	r18, Y+3	; 0x03
    23c0:	43 e0       	ldi	r20, 0x03	; 3
    23c2:	65 ea       	ldi	r22, 0xA5	; 165
    23c4:	71 e0       	ldi	r23, 0x01	; 1
    23c6:	0e 94 eb 07 	call	0xfd6	; 0xfd6 <display_write_str>
    23ca:	08 c1       	rjmp	.+528    	; 0x25dc <display_large_number+0x41e>
    23cc:	89 81       	ldd	r24, Y+1	; 0x01
    23ce:	9a 81       	ldd	r25, Y+2	; 0x02
    23d0:	2b 81       	ldd	r18, Y+3	; 0x03
    23d2:	40 e0       	ldi	r20, 0x00	; 0
    23d4:	65 ea       	ldi	r22, 0xA5	; 165
    23d6:	71 e0       	ldi	r23, 0x01	; 1
    23d8:	0e 94 eb 07 	call	0xfd6	; 0xfd6 <display_write_str>
    23dc:	89 81       	ldd	r24, Y+1	; 0x01
    23de:	9a 81       	ldd	r25, Y+2	; 0x02
    23e0:	2b 81       	ldd	r18, Y+3	; 0x03
    23e2:	41 e0       	ldi	r20, 0x01	; 1
    23e4:	61 eb       	ldi	r22, 0xB1	; 177
    23e6:	71 e0       	ldi	r23, 0x01	; 1
    23e8:	0e 94 eb 07 	call	0xfd6	; 0xfd6 <display_write_str>
    23ec:	89 81       	ldd	r24, Y+1	; 0x01
    23ee:	9a 81       	ldd	r25, Y+2	; 0x02
    23f0:	2b 81       	ldd	r18, Y+3	; 0x03
    23f2:	42 e0       	ldi	r20, 0x02	; 2
    23f4:	69 ed       	ldi	r22, 0xD9	; 217
    23f6:	71 e0       	ldi	r23, 0x01	; 1
    23f8:	0e 94 eb 07 	call	0xfd6	; 0xfd6 <display_write_str>
    23fc:	89 81       	ldd	r24, Y+1	; 0x01
    23fe:	9a 81       	ldd	r25, Y+2	; 0x02
    2400:	2b 81       	ldd	r18, Y+3	; 0x03
    2402:	43 e0       	ldi	r20, 0x03	; 3
    2404:	69 ed       	ldi	r22, 0xD9	; 217
    2406:	71 e0       	ldi	r23, 0x01	; 1
    2408:	0e 94 eb 07 	call	0xfd6	; 0xfd6 <display_write_str>
    240c:	e7 c0       	rjmp	.+462    	; 0x25dc <display_large_number+0x41e>
    240e:	89 81       	ldd	r24, Y+1	; 0x01
    2410:	9a 81       	ldd	r25, Y+2	; 0x02
    2412:	2b 81       	ldd	r18, Y+3	; 0x03
    2414:	40 e0       	ldi	r20, 0x00	; 0
    2416:	65 ea       	ldi	r22, 0xA5	; 165
    2418:	71 e0       	ldi	r23, 0x01	; 1
    241a:	0e 94 eb 07 	call	0xfd6	; 0xfd6 <display_write_str>
    241e:	89 81       	ldd	r24, Y+1	; 0x01
    2420:	9a 81       	ldd	r25, Y+2	; 0x02
    2422:	2b 81       	ldd	r18, Y+3	; 0x03
    2424:	41 e0       	ldi	r20, 0x01	; 1
    2426:	6d ed       	ldi	r22, 0xDD	; 221
    2428:	71 e0       	ldi	r23, 0x01	; 1
    242a:	0e 94 eb 07 	call	0xfd6	; 0xfd6 <display_write_str>
    242e:	89 81       	ldd	r24, Y+1	; 0x01
    2430:	9a 81       	ldd	r25, Y+2	; 0x02
    2432:	2b 81       	ldd	r18, Y+3	; 0x03
    2434:	42 e0       	ldi	r20, 0x02	; 2
    2436:	65 ed       	ldi	r22, 0xD5	; 213
    2438:	71 e0       	ldi	r23, 0x01	; 1
    243a:	0e 94 eb 07 	call	0xfd6	; 0xfd6 <display_write_str>
    243e:	89 81       	ldd	r24, Y+1	; 0x01
    2440:	9a 81       	ldd	r25, Y+2	; 0x02
    2442:	2b 81       	ldd	r18, Y+3	; 0x03
    2444:	43 e0       	ldi	r20, 0x03	; 3
    2446:	6d ed       	ldi	r22, 0xDD	; 221
    2448:	71 e0       	ldi	r23, 0x01	; 1
    244a:	0e 94 eb 07 	call	0xfd6	; 0xfd6 <display_write_str>
    244e:	c6 c0       	rjmp	.+396    	; 0x25dc <display_large_number+0x41e>
    2450:	89 81       	ldd	r24, Y+1	; 0x01
    2452:	9a 81       	ldd	r25, Y+2	; 0x02
    2454:	2b 81       	ldd	r18, Y+3	; 0x03
    2456:	40 e0       	ldi	r20, 0x00	; 0
    2458:	65 ea       	ldi	r22, 0xA5	; 165
    245a:	71 e0       	ldi	r23, 0x01	; 1
    245c:	0e 94 eb 07 	call	0xfd6	; 0xfd6 <display_write_str>
    2460:	89 81       	ldd	r24, Y+1	; 0x01
    2462:	9a 81       	ldd	r25, Y+2	; 0x02
    2464:	2b 81       	ldd	r18, Y+3	; 0x03
    2466:	41 e0       	ldi	r20, 0x01	; 1
    2468:	6d ed       	ldi	r22, 0xDD	; 221
    246a:	71 e0       	ldi	r23, 0x01	; 1
    246c:	0e 94 eb 07 	call	0xfd6	; 0xfd6 <display_write_str>
    2470:	89 81       	ldd	r24, Y+1	; 0x01
    2472:	9a 81       	ldd	r25, Y+2	; 0x02
    2474:	2b 81       	ldd	r18, Y+3	; 0x03
    2476:	42 e0       	ldi	r20, 0x02	; 2
    2478:	6d eb       	ldi	r22, 0xBD	; 189
    247a:	71 e0       	ldi	r23, 0x01	; 1
    247c:	0e 94 eb 07 	call	0xfd6	; 0xfd6 <display_write_str>
    2480:	89 81       	ldd	r24, Y+1	; 0x01
    2482:	9a 81       	ldd	r25, Y+2	; 0x02
    2484:	2b 81       	ldd	r18, Y+3	; 0x03
    2486:	43 e0       	ldi	r20, 0x03	; 3
    2488:	61 eb       	ldi	r22, 0xB1	; 177
    248a:	71 e0       	ldi	r23, 0x01	; 1
    248c:	0e 94 eb 07 	call	0xfd6	; 0xfd6 <display_write_str>
    2490:	a5 c0       	rjmp	.+330    	; 0x25dc <display_large_number+0x41e>
    2492:	89 81       	ldd	r24, Y+1	; 0x01
    2494:	9a 81       	ldd	r25, Y+2	; 0x02
    2496:	2b 81       	ldd	r18, Y+3	; 0x03
    2498:	40 e0       	ldi	r20, 0x00	; 0
    249a:	61 ee       	ldi	r22, 0xE1	; 225
    249c:	71 e0       	ldi	r23, 0x01	; 1
    249e:	0e 94 eb 07 	call	0xfd6	; 0xfd6 <display_write_str>
    24a2:	89 81       	ldd	r24, Y+1	; 0x01
    24a4:	9a 81       	ldd	r25, Y+2	; 0x02
    24a6:	2b 81       	ldd	r18, Y+3	; 0x03
    24a8:	41 e0       	ldi	r20, 0x01	; 1
    24aa:	61 ee       	ldi	r22, 0xE1	; 225
    24ac:	71 e0       	ldi	r23, 0x01	; 1
    24ae:	0e 94 eb 07 	call	0xfd6	; 0xfd6 <display_write_str>
    24b2:	89 81       	ldd	r24, Y+1	; 0x01
    24b4:	9a 81       	ldd	r25, Y+2	; 0x02
    24b6:	2b 81       	ldd	r18, Y+3	; 0x03
    24b8:	42 e0       	ldi	r20, 0x02	; 2
    24ba:	61 ee       	ldi	r22, 0xE1	; 225
    24bc:	71 e0       	ldi	r23, 0x01	; 1
    24be:	0e 94 eb 07 	call	0xfd6	; 0xfd6 <display_write_str>
    24c2:	89 81       	ldd	r24, Y+1	; 0x01
    24c4:	9a 81       	ldd	r25, Y+2	; 0x02
    24c6:	2b 81       	ldd	r18, Y+3	; 0x03
    24c8:	43 e0       	ldi	r20, 0x03	; 3
    24ca:	61 ee       	ldi	r22, 0xE1	; 225
    24cc:	71 e0       	ldi	r23, 0x01	; 1
    24ce:	0e 94 eb 07 	call	0xfd6	; 0xfd6 <display_write_str>
    24d2:	84 c0       	rjmp	.+264    	; 0x25dc <display_large_number+0x41e>
    24d4:	89 81       	ldd	r24, Y+1	; 0x01
    24d6:	9a 81       	ldd	r25, Y+2	; 0x02
    24d8:	2b 81       	ldd	r18, Y+3	; 0x03
    24da:	40 e0       	ldi	r20, 0x00	; 0
    24dc:	69 ea       	ldi	r22, 0xA9	; 169
    24de:	71 e0       	ldi	r23, 0x01	; 1
    24e0:	0e 94 eb 07 	call	0xfd6	; 0xfd6 <display_write_str>
    24e4:	89 81       	ldd	r24, Y+1	; 0x01
    24e6:	9a 81       	ldd	r25, Y+2	; 0x02
    24e8:	2b 81       	ldd	r18, Y+3	; 0x03
    24ea:	41 e0       	ldi	r20, 0x01	; 1
    24ec:	69 ea       	ldi	r22, 0xA9	; 169
    24ee:	71 e0       	ldi	r23, 0x01	; 1
    24f0:	0e 94 eb 07 	call	0xfd6	; 0xfd6 <display_write_str>
    24f4:	89 81       	ldd	r24, Y+1	; 0x01
    24f6:	9a 81       	ldd	r25, Y+2	; 0x02
    24f8:	2b 81       	ldd	r18, Y+3	; 0x03
    24fa:	42 e0       	ldi	r20, 0x02	; 2
    24fc:	65 ee       	ldi	r22, 0xE5	; 229
    24fe:	71 e0       	ldi	r23, 0x01	; 1
    2500:	0e 94 eb 07 	call	0xfd6	; 0xfd6 <display_write_str>
    2504:	89 81       	ldd	r24, Y+1	; 0x01
    2506:	9a 81       	ldd	r25, Y+2	; 0x02
    2508:	2b 81       	ldd	r18, Y+3	; 0x03
    250a:	43 e0       	ldi	r20, 0x03	; 3
    250c:	69 ed       	ldi	r22, 0xD9	; 217
    250e:	71 e0       	ldi	r23, 0x01	; 1
    2510:	0e 94 eb 07 	call	0xfd6	; 0xfd6 <display_write_str>
    2514:	63 c0       	rjmp	.+198    	; 0x25dc <display_large_number+0x41e>
    2516:	89 81       	ldd	r24, Y+1	; 0x01
    2518:	9a 81       	ldd	r25, Y+2	; 0x02
    251a:	2b 81       	ldd	r18, Y+3	; 0x03
    251c:	40 e0       	ldi	r20, 0x00	; 0
    251e:	69 ea       	ldi	r22, 0xA9	; 169
    2520:	71 e0       	ldi	r23, 0x01	; 1
    2522:	0e 94 eb 07 	call	0xfd6	; 0xfd6 <display_write_str>
    2526:	89 81       	ldd	r24, Y+1	; 0x01
    2528:	9a 81       	ldd	r25, Y+2	; 0x02
    252a:	2b 81       	ldd	r18, Y+3	; 0x03
    252c:	41 e0       	ldi	r20, 0x01	; 1
    252e:	69 ea       	ldi	r22, 0xA9	; 169
    2530:	71 e0       	ldi	r23, 0x01	; 1
    2532:	0e 94 eb 07 	call	0xfd6	; 0xfd6 <display_write_str>
    2536:	89 81       	ldd	r24, Y+1	; 0x01
    2538:	9a 81       	ldd	r25, Y+2	; 0x02
    253a:	2b 81       	ldd	r18, Y+3	; 0x03
    253c:	42 e0       	ldi	r20, 0x02	; 2
    253e:	69 ea       	ldi	r22, 0xA9	; 169
    2540:	71 e0       	ldi	r23, 0x01	; 1
    2542:	0e 94 eb 07 	call	0xfd6	; 0xfd6 <display_write_str>
    2546:	89 81       	ldd	r24, Y+1	; 0x01
    2548:	9a 81       	ldd	r25, Y+2	; 0x02
    254a:	2b 81       	ldd	r18, Y+3	; 0x03
    254c:	43 e0       	ldi	r20, 0x03	; 3
    254e:	65 ea       	ldi	r22, 0xA5	; 165
    2550:	71 e0       	ldi	r23, 0x01	; 1
    2552:	0e 94 eb 07 	call	0xfd6	; 0xfd6 <display_write_str>
    2556:	42 c0       	rjmp	.+132    	; 0x25dc <display_large_number+0x41e>
    2558:	89 81       	ldd	r24, Y+1	; 0x01
    255a:	9a 81       	ldd	r25, Y+2	; 0x02
    255c:	2b 81       	ldd	r18, Y+3	; 0x03
    255e:	40 e0       	ldi	r20, 0x00	; 0
    2560:	65 ea       	ldi	r22, 0xA5	; 165
    2562:	71 e0       	ldi	r23, 0x01	; 1
    2564:	0e 94 eb 07 	call	0xfd6	; 0xfd6 <display_write_str>
    2568:	89 81       	ldd	r24, Y+1	; 0x01
    256a:	9a 81       	ldd	r25, Y+2	; 0x02
    256c:	2b 81       	ldd	r18, Y+3	; 0x03
    256e:	41 e0       	ldi	r20, 0x01	; 1
    2570:	69 ee       	ldi	r22, 0xE9	; 233
    2572:	71 e0       	ldi	r23, 0x01	; 1
    2574:	0e 94 eb 07 	call	0xfd6	; 0xfd6 <display_write_str>
    2578:	89 81       	ldd	r24, Y+1	; 0x01
    257a:	9a 81       	ldd	r25, Y+2	; 0x02
    257c:	2b 81       	ldd	r18, Y+3	; 0x03
    257e:	42 e0       	ldi	r20, 0x02	; 2
    2580:	69 ee       	ldi	r22, 0xE9	; 233
    2582:	71 e0       	ldi	r23, 0x01	; 1
    2584:	0e 94 eb 07 	call	0xfd6	; 0xfd6 <display_write_str>
    2588:	89 81       	ldd	r24, Y+1	; 0x01
    258a:	9a 81       	ldd	r25, Y+2	; 0x02
    258c:	2b 81       	ldd	r18, Y+3	; 0x03
    258e:	43 e0       	ldi	r20, 0x03	; 3
    2590:	65 ea       	ldi	r22, 0xA5	; 165
    2592:	71 e0       	ldi	r23, 0x01	; 1
    2594:	0e 94 eb 07 	call	0xfd6	; 0xfd6 <display_write_str>
    2598:	21 c0       	rjmp	.+66     	; 0x25dc <display_large_number+0x41e>
    259a:	89 81       	ldd	r24, Y+1	; 0x01
    259c:	9a 81       	ldd	r25, Y+2	; 0x02
    259e:	2b 81       	ldd	r18, Y+3	; 0x03
    25a0:	40 e0       	ldi	r20, 0x00	; 0
    25a2:	65 ea       	ldi	r22, 0xA5	; 165
    25a4:	71 e0       	ldi	r23, 0x01	; 1
    25a6:	0e 94 eb 07 	call	0xfd6	; 0xfd6 <display_write_str>
    25aa:	89 81       	ldd	r24, Y+1	; 0x01
    25ac:	9a 81       	ldd	r25, Y+2	; 0x02
    25ae:	2b 81       	ldd	r18, Y+3	; 0x03
    25b0:	41 e0       	ldi	r20, 0x01	; 1
    25b2:	65 ea       	ldi	r22, 0xA5	; 165
    25b4:	71 e0       	ldi	r23, 0x01	; 1
    25b6:	0e 94 eb 07 	call	0xfd6	; 0xfd6 <display_write_str>
    25ba:	89 81       	ldd	r24, Y+1	; 0x01
    25bc:	9a 81       	ldd	r25, Y+2	; 0x02
    25be:	2b 81       	ldd	r18, Y+3	; 0x03
    25c0:	42 e0       	ldi	r20, 0x02	; 2
    25c2:	65 ea       	ldi	r22, 0xA5	; 165
    25c4:	71 e0       	ldi	r23, 0x01	; 1
    25c6:	0e 94 eb 07 	call	0xfd6	; 0xfd6 <display_write_str>
    25ca:	89 81       	ldd	r24, Y+1	; 0x01
    25cc:	9a 81       	ldd	r25, Y+2	; 0x02
    25ce:	2b 81       	ldd	r18, Y+3	; 0x03
    25d0:	43 e0       	ldi	r20, 0x03	; 3
    25d2:	65 ea       	ldi	r22, 0xA5	; 165
    25d4:	71 e0       	ldi	r23, 0x01	; 1
    25d6:	0e 94 eb 07 	call	0xfd6	; 0xfd6 <display_write_str>
    25da:	00 00       	nop
    25dc:	00 00       	nop
    25de:	0f 90       	pop	r0
    25e0:	0f 90       	pop	r0
    25e2:	0f 90       	pop	r0
    25e4:	0f 90       	pop	r0
    25e6:	df 91       	pop	r29
    25e8:	cf 91       	pop	r28
    25ea:	08 95       	ret

000025ec <display_small_number>:
    25ec:	cf 93       	push	r28
    25ee:	df 93       	push	r29
    25f0:	00 d0       	rcall	.+0      	; 0x25f2 <display_small_number+0x6>
    25f2:	00 d0       	rcall	.+0      	; 0x25f4 <display_small_number+0x8>
    25f4:	1f 92       	push	r1
    25f6:	cd b7       	in	r28, 0x3d	; 61
    25f8:	de b7       	in	r29, 0x3e	; 62
    25fa:	9a 83       	std	Y+2, r25	; 0x02
    25fc:	89 83       	std	Y+1, r24	; 0x01
    25fe:	6b 83       	std	Y+3, r22	; 0x03
    2600:	4c 83       	std	Y+4, r20	; 0x04
    2602:	2d 83       	std	Y+5, r18	; 0x05
    2604:	8d 81       	ldd	r24, Y+5	; 0x05
    2606:	88 2f       	mov	r24, r24
    2608:	90 e0       	ldi	r25, 0x00	; 0
    260a:	09 2e       	mov	r0, r25
    260c:	00 0c       	add	r0, r0
    260e:	aa 0b       	sbc	r26, r26
    2610:	bb 0b       	sbc	r27, r27
    2612:	40 e0       	ldi	r20, 0x00	; 0
    2614:	50 e0       	ldi	r21, 0x00	; 0
    2616:	29 e0       	ldi	r18, 0x09	; 9
    2618:	30 e0       	ldi	r19, 0x00	; 0
    261a:	84 1b       	sub	r24, r20
    261c:	95 0b       	sbc	r25, r21
    261e:	28 17       	cp	r18, r24
    2620:	39 07       	cpc	r19, r25
    2622:	08 f4       	brcc	.+2      	; 0x2626 <display_small_number+0x3a>
    2624:	5e c0       	rjmp	.+188    	; 0x26e2 <display_small_number+0xf6>
    2626:	88 5a       	subi	r24, 0xA8	; 168
    2628:	9f 4f       	sbci	r25, 0xFF	; 255
    262a:	fc 01       	movw	r30, r24
    262c:	df c7       	rjmp	.+4030   	; 0x35ec <__tablejump2__>
    262e:	89 81       	ldd	r24, Y+1	; 0x01
    2630:	9a 81       	ldd	r25, Y+2	; 0x02
    2632:	2b 81       	ldd	r18, Y+3	; 0x03
    2634:	4c 81       	ldd	r20, Y+4	; 0x04
    2636:	6d ee       	ldi	r22, 0xED	; 237
    2638:	71 e0       	ldi	r23, 0x01	; 1
    263a:	0e 94 eb 07 	call	0xfd6	; 0xfd6 <display_write_str>
    263e:	5a c0       	rjmp	.+180    	; 0x26f4 <display_small_number+0x108>
    2640:	89 81       	ldd	r24, Y+1	; 0x01
    2642:	9a 81       	ldd	r25, Y+2	; 0x02
    2644:	2b 81       	ldd	r18, Y+3	; 0x03
    2646:	4c 81       	ldd	r20, Y+4	; 0x04
    2648:	6f ee       	ldi	r22, 0xEF	; 239
    264a:	71 e0       	ldi	r23, 0x01	; 1
    264c:	0e 94 eb 07 	call	0xfd6	; 0xfd6 <display_write_str>
    2650:	51 c0       	rjmp	.+162    	; 0x26f4 <display_small_number+0x108>
    2652:	89 81       	ldd	r24, Y+1	; 0x01
    2654:	9a 81       	ldd	r25, Y+2	; 0x02
    2656:	2b 81       	ldd	r18, Y+3	; 0x03
    2658:	4c 81       	ldd	r20, Y+4	; 0x04
    265a:	61 ef       	ldi	r22, 0xF1	; 241
    265c:	71 e0       	ldi	r23, 0x01	; 1
    265e:	0e 94 eb 07 	call	0xfd6	; 0xfd6 <display_write_str>
    2662:	48 c0       	rjmp	.+144    	; 0x26f4 <display_small_number+0x108>
    2664:	89 81       	ldd	r24, Y+1	; 0x01
    2666:	9a 81       	ldd	r25, Y+2	; 0x02
    2668:	2b 81       	ldd	r18, Y+3	; 0x03
    266a:	4c 81       	ldd	r20, Y+4	; 0x04
    266c:	63 ef       	ldi	r22, 0xF3	; 243
    266e:	71 e0       	ldi	r23, 0x01	; 1
    2670:	0e 94 eb 07 	call	0xfd6	; 0xfd6 <display_write_str>
    2674:	3f c0       	rjmp	.+126    	; 0x26f4 <display_small_number+0x108>
    2676:	89 81       	ldd	r24, Y+1	; 0x01
    2678:	9a 81       	ldd	r25, Y+2	; 0x02
    267a:	2b 81       	ldd	r18, Y+3	; 0x03
    267c:	4c 81       	ldd	r20, Y+4	; 0x04
    267e:	65 ef       	ldi	r22, 0xF5	; 245
    2680:	71 e0       	ldi	r23, 0x01	; 1
    2682:	0e 94 eb 07 	call	0xfd6	; 0xfd6 <display_write_str>
    2686:	36 c0       	rjmp	.+108    	; 0x26f4 <display_small_number+0x108>
    2688:	89 81       	ldd	r24, Y+1	; 0x01
    268a:	9a 81       	ldd	r25, Y+2	; 0x02
    268c:	2b 81       	ldd	r18, Y+3	; 0x03
    268e:	4c 81       	ldd	r20, Y+4	; 0x04
    2690:	67 ef       	ldi	r22, 0xF7	; 247
    2692:	71 e0       	ldi	r23, 0x01	; 1
    2694:	0e 94 eb 07 	call	0xfd6	; 0xfd6 <display_write_str>
    2698:	2d c0       	rjmp	.+90     	; 0x26f4 <display_small_number+0x108>
    269a:	89 81       	ldd	r24, Y+1	; 0x01
    269c:	9a 81       	ldd	r25, Y+2	; 0x02
    269e:	2b 81       	ldd	r18, Y+3	; 0x03
    26a0:	4c 81       	ldd	r20, Y+4	; 0x04
    26a2:	69 ef       	ldi	r22, 0xF9	; 249
    26a4:	71 e0       	ldi	r23, 0x01	; 1
    26a6:	0e 94 eb 07 	call	0xfd6	; 0xfd6 <display_write_str>
    26aa:	24 c0       	rjmp	.+72     	; 0x26f4 <display_small_number+0x108>
    26ac:	89 81       	ldd	r24, Y+1	; 0x01
    26ae:	9a 81       	ldd	r25, Y+2	; 0x02
    26b0:	2b 81       	ldd	r18, Y+3	; 0x03
    26b2:	4c 81       	ldd	r20, Y+4	; 0x04
    26b4:	6b ef       	ldi	r22, 0xFB	; 251
    26b6:	71 e0       	ldi	r23, 0x01	; 1
    26b8:	0e 94 eb 07 	call	0xfd6	; 0xfd6 <display_write_str>
    26bc:	1b c0       	rjmp	.+54     	; 0x26f4 <display_small_number+0x108>
    26be:	89 81       	ldd	r24, Y+1	; 0x01
    26c0:	9a 81       	ldd	r25, Y+2	; 0x02
    26c2:	2b 81       	ldd	r18, Y+3	; 0x03
    26c4:	4c 81       	ldd	r20, Y+4	; 0x04
    26c6:	6d ef       	ldi	r22, 0xFD	; 253
    26c8:	71 e0       	ldi	r23, 0x01	; 1
    26ca:	0e 94 eb 07 	call	0xfd6	; 0xfd6 <display_write_str>
    26ce:	12 c0       	rjmp	.+36     	; 0x26f4 <display_small_number+0x108>
    26d0:	89 81       	ldd	r24, Y+1	; 0x01
    26d2:	9a 81       	ldd	r25, Y+2	; 0x02
    26d4:	2b 81       	ldd	r18, Y+3	; 0x03
    26d6:	4c 81       	ldd	r20, Y+4	; 0x04
    26d8:	6f ef       	ldi	r22, 0xFF	; 255
    26da:	71 e0       	ldi	r23, 0x01	; 1
    26dc:	0e 94 eb 07 	call	0xfd6	; 0xfd6 <display_write_str>
    26e0:	09 c0       	rjmp	.+18     	; 0x26f4 <display_small_number+0x108>
    26e2:	89 81       	ldd	r24, Y+1	; 0x01
    26e4:	9a 81       	ldd	r25, Y+2	; 0x02
    26e6:	2b 81       	ldd	r18, Y+3	; 0x03
    26e8:	4c 81       	ldd	r20, Y+4	; 0x04
    26ea:	61 e0       	ldi	r22, 0x01	; 1
    26ec:	72 e0       	ldi	r23, 0x02	; 2
    26ee:	0e 94 eb 07 	call	0xfd6	; 0xfd6 <display_write_str>
    26f2:	00 00       	nop
    26f4:	00 00       	nop
    26f6:	0f 90       	pop	r0
    26f8:	0f 90       	pop	r0
    26fa:	0f 90       	pop	r0
    26fc:	0f 90       	pop	r0
    26fe:	0f 90       	pop	r0
    2700:	df 91       	pop	r29
    2702:	cf 91       	pop	r28
    2704:	08 95       	ret

00002706 <invert_binary_number>:
    2706:	cf 93       	push	r28
    2708:	df 93       	push	r29
    270a:	00 d0       	rcall	.+0      	; 0x270c <invert_binary_number+0x6>
    270c:	1f 92       	push	r1
    270e:	cd b7       	in	r28, 0x3d	; 61
    2710:	de b7       	in	r29, 0x3e	; 62
    2712:	8b 83       	std	Y+3, r24	; 0x03
    2714:	19 82       	std	Y+1, r1	; 0x01
    2716:	1a 82       	std	Y+2, r1	; 0x02
    2718:	22 c0       	rjmp	.+68     	; 0x275e <invert_binary_number+0x58>
    271a:	8b 81       	ldd	r24, Y+3	; 0x03
    271c:	88 2f       	mov	r24, r24
    271e:	90 e0       	ldi	r25, 0x00	; 0
    2720:	2a 81       	ldd	r18, Y+2	; 0x02
    2722:	22 2f       	mov	r18, r18
    2724:	30 e0       	ldi	r19, 0x00	; 0
    2726:	02 c0       	rjmp	.+4      	; 0x272c <invert_binary_number+0x26>
    2728:	95 95       	asr	r25
    272a:	87 95       	ror	r24
    272c:	2a 95       	dec	r18
    272e:	e2 f7       	brpl	.-8      	; 0x2728 <invert_binary_number+0x22>
    2730:	81 70       	andi	r24, 0x01	; 1
    2732:	99 27       	eor	r25, r25
    2734:	2a 81       	ldd	r18, Y+2	; 0x02
    2736:	22 2f       	mov	r18, r18
    2738:	30 e0       	ldi	r19, 0x00	; 0
    273a:	47 e0       	ldi	r20, 0x07	; 7
    273c:	50 e0       	ldi	r21, 0x00	; 0
    273e:	ba 01       	movw	r22, r20
    2740:	62 1b       	sub	r22, r18
    2742:	73 0b       	sbc	r23, r19
    2744:	9b 01       	movw	r18, r22
    2746:	02 c0       	rjmp	.+4      	; 0x274c <invert_binary_number+0x46>
    2748:	88 0f       	add	r24, r24
    274a:	99 1f       	adc	r25, r25
    274c:	2a 95       	dec	r18
    274e:	e2 f7       	brpl	.-8      	; 0x2748 <invert_binary_number+0x42>
    2750:	98 2f       	mov	r25, r24
    2752:	89 81       	ldd	r24, Y+1	; 0x01
    2754:	89 2b       	or	r24, r25
    2756:	89 83       	std	Y+1, r24	; 0x01
    2758:	8a 81       	ldd	r24, Y+2	; 0x02
    275a:	8f 5f       	subi	r24, 0xFF	; 255
    275c:	8a 83       	std	Y+2, r24	; 0x02
    275e:	8a 81       	ldd	r24, Y+2	; 0x02
    2760:	88 30       	cpi	r24, 0x08	; 8
    2762:	d8 f2       	brcs	.-74     	; 0x271a <invert_binary_number+0x14>
    2764:	89 81       	ldd	r24, Y+1	; 0x01
    2766:	0f 90       	pop	r0
    2768:	0f 90       	pop	r0
    276a:	0f 90       	pop	r0
    276c:	df 91       	pop	r29
    276e:	cf 91       	pop	r28
    2770:	08 95       	ret

00002772 <main>:
//extern uint16_t bms_min_temp;


/*	MAIN	*/
int main(void)
{
    2772:	cf 93       	push	r28
    2774:	df 93       	push	r29
    2776:	cd b7       	in	r28, 0x3d	; 61
    2778:	de b7       	in	r29, 0x3e	; 62
    277a:	c4 55       	subi	r28, 0x54	; 84
    277c:	d1 40       	sbci	r29, 0x01	; 1
    277e:	0f b6       	in	r0, 0x3f	; 63
    2780:	f8 94       	cli
    2782:	de bf       	out	0x3e, r29	; 62
    2784:	0f be       	out	0x3f, r0	; 63
    2786:	cd bf       	out	0x3d, r28	; 61
	port_config();
    2788:	4a d6       	rcall	.+3220   	; 0x341e <port_config>
	init_display();
    278a:	0e 94 41 08 	call	0x1082	; 0x1082 <init_display>
	display_definechars();
    278e:	0e 94 13 07 	call	0xe26	; 0xe26 <display_definechars>
	configure_spi_bus();
	sys_timer_config();
    2792:	ff d0       	rcall	.+510    	; 0x2992 <configure_spi_bus>
    2794:	ba d6       	rcall	.+3444   	; 0x350a <sys_timer_config>
	init_mobs();
    2796:	0e 94 b8 00 	call	0x170	; 0x170 <init_mobs>
	can_cfg();
    279a:	0e 94 4a 04 	call	0x894	; 0x894 <can_cfg>
	extern volatile unsigned long sys_time;
	extern volatile uint8_t draw_data;
	
	volatile unsigned long sys_time_old;
	
	uint8_t dsp = 0;
    279e:	1c 86       	std	Y+12, r1	; 0x0c
	uint8_t time_10ms = 0;
    27a0:	19 82       	std	Y+1, r1	; 0x01
	uint8_t time_50ms = 0;
    27a2:	1a 82       	std	Y+2, r1	; 0x02
	uint8_t error_ams = 2;
    27a4:	82 e0       	ldi	r24, 0x02	; 2
    27a6:	8d 87       	std	Y+13, r24	; 0x0d
	
	uint8_t LED = 0;
    27a8:	1b 82       	std	Y+3, r1	; 0x03
	uint8_t time_15ms = 0;
    27aa:	1c 82       	std	Y+4, r1	; 0x04
	
	uint8_t activate_ams = 0;
    27ac:	1e 86       	std	Y+14, r1	; 0x0e
	unsigned long time_100ms = 0;
    27ae:	1d 82       	std	Y+5, r1	; 0x05
    27b0:	1e 82       	std	Y+6, r1	; 0x06
    27b2:	1f 82       	std	Y+7, r1	; 0x07
	
	sei();
	//this needs interrupts to be enabled
	configure_portextenders();
    27b4:	18 86       	std	Y+8, r1	; 0x08
	pre_defined_led_colors_right(PE_OFF);
    27b6:	78 94       	sei
    27b8:	43 d2       	rcall	.+1158   	; 0x2c40 <configure_portextenders>
    27ba:	87 e0       	ldi	r24, 0x07	; 7
	pre_defined_led_colors_left(PE_OFF);
    27bc:	b5 d2       	rcall	.+1386   	; 0x2d28 <pre_defined_led_colors_right>
    27be:	87 e0       	ldi	r24, 0x07	; 7
    27c0:	f2 d2       	rcall	.+1508   	; 0x2da6 <pre_defined_led_colors_left>
	//pre_defined_led_colors(PE_OFF);
	//bms_error(1);
	
	//dispaly state -> saves postitions and stuff
	struct DISPLAY_STATE display_state = get_empty_state();
    27c2:	0e 94 5f 06 	call	0xcbe	; 0xcbe <get_empty_state>
    27c6:	9c 8b       	std	Y+20, r25	; 0x14
    27c8:	8b 8b       	std	Y+19, r24	; 0x13
	
	//display pages holding data
	struct DISPLAY_PAGE dsp_startup = get_empty_display();
    27ca:	ce 01       	movw	r24, r28
    27cc:	45 96       	adiw	r24, 0x15	; 21
    27ce:	0e 94 6d 06 	call	0xcda	; 0xcda <get_empty_display>
	
	struct DISPLAY_PAGE dsp_voltage = get_empty_display();
    27d2:	ce 01       	movw	r24, r28
    27d4:	8b 59       	subi	r24, 0x9B	; 155
    27d6:	9f 4f       	sbci	r25, 0xFF	; 255
    27d8:	0e 94 6d 06 	call	0xcda	; 0xcda <get_empty_display>
	
	struct DISPLAY_PAGE dsp_temp = get_empty_display();
    27dc:	ce 01       	movw	r24, r28
    27de:	8b 54       	subi	r24, 0x4B	; 75
    27e0:	9f 4f       	sbci	r25, 0xFF	; 255
    27e2:	0e 94 6d 06 	call	0xcda	; 0xcda <get_empty_display>
	
	struct DISPLAY_PAGE dsp_main = get_empty_display();
    27e6:	ce 01       	movw	r24, r28
    27e8:	8b 5f       	subi	r24, 0xFB	; 251
    27ea:	9e 4f       	sbci	r25, 0xFE	; 254
    27ec:	0e 94 6d 06 	call	0xcda	; 0xcda <get_empty_display>
	

	
	display_write_str(&dsp_startup, "   Baldig Resing    ",0,0);
    27f0:	ce 01       	movw	r24, r28
    27f2:	45 96       	adiw	r24, 0x15	; 21
    27f4:	20 e0       	ldi	r18, 0x00	; 0
    27f6:	40 e0       	ldi	r20, 0x00	; 0
    27f8:	63 e0       	ldi	r22, 0x03	; 3
    27fa:	72 e0       	ldi	r23, 0x02	; 2
    27fc:	0e 94 eb 07 	call	0xfd6	; 0xfd6 <display_write_str>
	display_write_str(&dsp_startup, "        .--.        ",1,0);
    2800:	ce 01       	movw	r24, r28
    2802:	45 96       	adiw	r24, 0x15	; 21
    2804:	20 e0       	ldi	r18, 0x00	; 0
    2806:	41 e0       	ldi	r20, 0x01	; 1
    2808:	68 e1       	ldi	r22, 0x18	; 24
    280a:	72 e0       	ldi	r23, 0x02	; 2
    280c:	0e 94 eb 07 	call	0xfd6	; 0xfd6 <display_write_str>
	display_write_str(&dsp_startup, "   .----'   '--.    ",2,0);
    2810:	ce 01       	movw	r24, r28
    2812:	45 96       	adiw	r24, 0x15	; 21
    2814:	20 e0       	ldi	r18, 0x00	; 0
    2816:	42 e0       	ldi	r20, 0x02	; 2
    2818:	6d e2       	ldi	r22, 0x2D	; 45
    281a:	72 e0       	ldi	r23, 0x02	; 2
    281c:	0e 94 eb 07 	call	0xfd6	; 0xfd6 <display_write_str>
	display_write_str(&dsp_startup, "   '-()-----()-'    ",3,0);
    2820:	ce 01       	movw	r24, r28
    2822:	45 96       	adiw	r24, 0x15	; 21
    2824:	20 e0       	ldi	r18, 0x00	; 0
    2826:	43 e0       	ldi	r20, 0x03	; 3
    2828:	62 e4       	ldi	r22, 0x42	; 66
    282a:	72 e0       	ldi	r23, 0x02	; 2
    282c:	0e 94 eb 07 	call	0xfd6	; 0xfd6 <display_write_str>

	//Variable die das aktive Display hält!
	struct DISPLAY_PAGE *active_display = &dsp_startup;
    2830:	ce 01       	movw	r24, r28
    2832:	45 96       	adiw	r24, 0x15	; 21
    2834:	9a 87       	std	Y+10, r25	; 0x0a
    2836:	89 87       	std	Y+9, r24	; 0x09
	
	while (1)
	{
		if (draw_data)
    2838:	80 91 ab 02 	lds	r24, 0x02AB	; 0x8002ab <draw_data>
    283c:	88 23       	and	r24, r24
    283e:	51 f0       	breq	.+20     	; 0x2854 <main+0xe2>
		{
			draw_data = 0;
    2840:	10 92 ab 02 	sts	0x02AB, r1	; 0x8002ab <draw_data>
			draw_char(active_display,&display_state);
    2844:	9e 01       	movw	r18, r28
    2846:	2d 5e       	subi	r18, 0xED	; 237
    2848:	3f 4f       	sbci	r19, 0xFF	; 255
    284a:	89 85       	ldd	r24, Y+9	; 0x09
    284c:	9a 85       	ldd	r25, Y+10	; 0x0a
    284e:	b9 01       	movw	r22, r18
    2850:	0e 94 fd 05 	call	0xbfa	; 0xbfa <draw_char>
			
		}
		if((sys_time - sys_time_old) >= 1)
    2854:	20 91 a7 02 	lds	r18, 0x02A7	; 0x8002a7 <sys_time>
    2858:	30 91 a8 02 	lds	r19, 0x02A8	; 0x8002a8 <sys_time+0x1>
    285c:	40 91 a9 02 	lds	r20, 0x02A9	; 0x8002a9 <sys_time+0x2>
    2860:	50 91 aa 02 	lds	r21, 0x02AA	; 0x8002aa <sys_time+0x3>
    2864:	8f 85       	ldd	r24, Y+15	; 0x0f
    2866:	98 89       	ldd	r25, Y+16	; 0x10
    2868:	a9 89       	ldd	r26, Y+17	; 0x11
    286a:	ba 89       	ldd	r27, Y+18	; 0x12
    286c:	28 17       	cp	r18, r24
    286e:	39 07       	cpc	r19, r25
    2870:	4a 07       	cpc	r20, r26
    2872:	5b 07       	cpc	r21, r27
    2874:	79 f0       	breq	.+30     	; 0x2894 <main+0x122>
		{
			sys_time_old = sys_time;
    2876:	80 91 a7 02 	lds	r24, 0x02A7	; 0x8002a7 <sys_time>
    287a:	90 91 a8 02 	lds	r25, 0x02A8	; 0x8002a8 <sys_time+0x1>
    287e:	a0 91 a9 02 	lds	r26, 0x02A9	; 0x8002a9 <sys_time+0x2>
    2882:	b0 91 aa 02 	lds	r27, 0x02AA	; 0x8002aa <sys_time+0x3>
    2886:	8f 87       	std	Y+15, r24	; 0x0f
    2888:	98 8b       	std	Y+16, r25	; 0x10
    288a:	a9 8b       	std	Y+17, r26	; 0x11
    288c:	ba 8b       	std	Y+18, r27	; 0x12
			time_10ms++;
    288e:	89 81       	ldd	r24, Y+1	; 0x01
    2890:	8f 5f       	subi	r24, 0xFF	; 255
    2892:	89 83       	std	Y+1, r24	; 0x01
		}
		
		
		if (time_10ms > 9)
    2894:	89 81       	ldd	r24, Y+1	; 0x01
    2896:	8a 30       	cpi	r24, 0x0A	; 10
    2898:	08 f4       	brcc	.+2      	; 0x289c <main+0x12a>
    289a:	3d c0       	rjmp	.+122    	; 0x2916 <main+0x1a4>
		{
			
			time_10ms = 0;
    289c:	19 82       	std	Y+1, r1	; 0x01
			time_50ms++;
    289e:	8a 81       	ldd	r24, Y+2	; 0x02
    28a0:	8f 5f       	subi	r24, 0xFF	; 255
    28a2:	8a 83       	std	Y+2, r24	; 0x02
			time_100ms++;
    28a4:	8d 81       	ldd	r24, Y+5	; 0x05
    28a6:	9e 81       	ldd	r25, Y+6	; 0x06
    28a8:	af 81       	ldd	r26, Y+7	; 0x07
    28aa:	b8 85       	ldd	r27, Y+8	; 0x08
    28ac:	01 96       	adiw	r24, 0x01	; 1
    28ae:	a1 1d       	adc	r26, r1
    28b0:	b1 1d       	adc	r27, r1
    28b2:	8d 83       	std	Y+5, r24	; 0x05
    28b4:	9e 83       	std	Y+6, r25	; 0x06
    28b6:	af 83       	std	Y+7, r26	; 0x07
    28b8:	b8 87       	std	Y+8, r27	; 0x08
			time_15ms++;
    28ba:	8c 81       	ldd	r24, Y+4	; 0x04
    28bc:	8f 5f       	subi	r24, 0xFF	; 255
    28be:	8c 83       	std	Y+4, r24	; 0x04
			active_display = &dsp_main;
    28c0:	ce 01       	movw	r24, r28
    28c2:	8b 5f       	subi	r24, 0xFB	; 251
    28c4:	9e 4f       	sbci	r25, 0xFE	; 254
    28c6:	9a 87       	std	Y+10, r25	; 0x0a
    28c8:	89 87       	std	Y+9, r24	; 0x09
			can_receive();
    28ca:	0e 94 94 01 	call	0x328	; 0x328 <can_receive>
			//get_mob_data(AMS2_DATA);
			can_put_data();
    28ce:	0e 94 18 02 	call	0x430	; 0x430 <can_put_data>
			can_transmit();
    28d2:	0e 94 ed 01 	call	0x3da	; 0x3da <can_transmit>
			if(led_test == 1)
    28d6:	80 91 0b 01 	lds	r24, 0x010B	; 0x80010b <led_test>
			{
				bms_error(1);
    28da:	81 30       	cpi	r24, 0x01	; 1
    28dc:	e1 f4       	brne	.+56     	; 0x2916 <main+0x1a4>
    28de:	81 e0       	ldi	r24, 0x01	; 1
				pre_defined_led_colors_right(PE_RED);
    28e0:	52 d5       	rcall	.+2724   	; 0x3386 <bms_error>
    28e2:	80 e0       	ldi	r24, 0x00	; 0
    28e4:	21 d2       	rcall	.+1090   	; 0x2d28 <pre_defined_led_colors_right>
				pre_defined_led_colors_left(PE_RED);
    28e6:	80 e0       	ldi	r24, 0x00	; 0
    28e8:	5e d2       	rcall	.+1212   	; 0x2da6 <pre_defined_led_colors_left>
    28ea:	82 e2       	ldi	r24, 0x22	; 34
				//pre_defined_led_colors(PE_RED);
				//extender_leds_blocking(RGB_LEFT,0|(1<<F_RED));
				PORTA |= (1<<PA2);
    28ec:	90 e0       	ldi	r25, 0x00	; 0
    28ee:	22 e2       	ldi	r18, 0x22	; 34
    28f0:	30 e0       	ldi	r19, 0x00	; 0
    28f2:	f9 01       	movw	r30, r18
    28f4:	20 81       	ld	r18, Z
    28f6:	24 60       	ori	r18, 0x04	; 4
    28f8:	fc 01       	movw	r30, r24
    28fa:	20 83       	st	Z, r18
				
				//led_top_light(LED);
				//LED++;
				
				display_main(active_display);
    28fc:	89 85       	ldd	r24, Y+9	; 0x09
    28fe:	9a 85       	ldd	r25, Y+10	; 0x0a
    2900:	0e 94 60 08 	call	0x10c0	; 0x10c0 <display_main>
				
				if(time_15ms > 14)
    2904:	8c 81       	ldd	r24, Y+4	; 0x04
    2906:	8f 30       	cpi	r24, 0x0F	; 15
    2908:	30 f0       	brcs	.+12     	; 0x2916 <main+0x1a4>
				{
					led_top_light(LED);
    290a:	8b 81       	ldd	r24, Y+3	; 0x03
    290c:	d0 d3       	rcall	.+1952   	; 0x30ae <led_top_light>
    290e:	8b 81       	ldd	r24, Y+3	; 0x03
					LED++;
    2910:	8f 5f       	subi	r24, 0xFF	; 255
    2912:	8b 83       	std	Y+3, r24	; 0x03
    2914:	1c 82       	std	Y+4, r1	; 0x04
					time_15ms = 0;
    2916:	8d 81       	ldd	r24, Y+5	; 0x05
		
			
			
			
		}
		if(time_100ms > 299)
    2918:	9e 81       	ldd	r25, Y+6	; 0x06
    291a:	af 81       	ldd	r26, Y+7	; 0x07
    291c:	b8 85       	ldd	r27, Y+8	; 0x08
    291e:	8c 32       	cpi	r24, 0x2C	; 44
    2920:	91 40       	sbci	r25, 0x01	; 1
    2922:	a1 05       	cpc	r26, r1
    2924:	b1 05       	cpc	r27, r1
    2926:	08 f4       	brcc	.+2      	; 0x292a <main+0x1b8>
    2928:	87 cf       	rjmp	.-242    	; 0x2838 <main+0xc6>
		{
			
			//bms_error(0);
			for (uint8_t LED = 14; LED > 0; LED--)
    292a:	8e e0       	ldi	r24, 0x0E	; 14
    292c:	8b 87       	std	Y+11, r24	; 0x0b
    292e:	05 c0       	rjmp	.+10     	; 0x293a <main+0x1c8>
			{
				led_top_clear(LED);
    2930:	8b 85       	ldd	r24, Y+11	; 0x0b
    2932:	73 d4       	rcall	.+2278   	; 0x321a <led_top_clear>
    2934:	8b 85       	ldd	r24, Y+11	; 0x0b
		}
		if(time_100ms > 299)
		{
			
			//bms_error(0);
			for (uint8_t LED = 14; LED > 0; LED--)
    2936:	81 50       	subi	r24, 0x01	; 1
    2938:	8b 87       	std	Y+11, r24	; 0x0b
    293a:	8b 85       	ldd	r24, Y+11	; 0x0b
    293c:	88 23       	and	r24, r24
    293e:	c1 f7       	brne	.-16     	; 0x2930 <main+0x1be>
    2940:	10 92 0b 01 	sts	0x010B, r1	; 0x80010b <led_test>
			//}
			
			
			
			led_test = 0;
			PORTA &= ~(1<<PA2);
    2944:	82 e2       	ldi	r24, 0x22	; 34
    2946:	90 e0       	ldi	r25, 0x00	; 0
    2948:	22 e2       	ldi	r18, 0x22	; 34
    294a:	30 e0       	ldi	r19, 0x00	; 0
    294c:	f9 01       	movw	r30, r18
    294e:	20 81       	ld	r18, Z
    2950:	2b 7f       	andi	r18, 0xFB	; 251
    2952:	fc 01       	movw	r30, r24
			
			pre_defined_led_colors_right(PE_OFF);
    2954:	20 83       	st	Z, r18
    2956:	87 e0       	ldi	r24, 0x07	; 7
    2958:	e7 d1       	rcall	.+974    	; 0x2d28 <pre_defined_led_colors_right>
			pre_defined_led_colors_left(PE_GREEN);
    295a:	82 e0       	ldi	r24, 0x02	; 2
    295c:	24 d2       	rcall	.+1096   	; 0x2da6 <pre_defined_led_colors_left>
    295e:	80 91 a1 02 	lds	r24, 0x02A1	; 0x8002a1 <Akku_fan>
			
			if(Akku_fan == 1)
    2962:	81 30       	cpi	r24, 0x01	; 1
    2964:	41 f4       	brne	.+16     	; 0x2976 <main+0x204>
    2966:	80 91 a3 02 	lds	r24, 0x02A3	; 0x8002a3 <Button_Akku>
			{
				Button_Akku = 1 - Button_Akku;
    296a:	91 e0       	ldi	r25, 0x01	; 1
    296c:	f9 2f       	mov	r31, r25
    296e:	f8 1b       	sub	r31, r24
    2970:	8f 2f       	mov	r24, r31
    2972:	80 93 a3 02 	sts	0x02A3, r24	; 0x8002a3 <Button_Akku>
			}
			
			if(Button_Akku == 1)
    2976:	80 91 a3 02 	lds	r24, 0x02A3	; 0x8002a3 <Button_Akku>
    297a:	81 30       	cpi	r24, 0x01	; 1
    297c:	11 f4       	brne	.+4      	; 0x2982 <main+0x210>
			{
				pre_defined_led_colors_right(PE_BLUE);
    297e:	81 e0       	ldi	r24, 0x01	; 1
    2980:	d3 d1       	rcall	.+934    	; 0x2d28 <pre_defined_led_colors_right>
    2982:	80 91 a3 02 	lds	r24, 0x02A3	; 0x8002a3 <Button_Akku>
			}
			
			if(Button_Akku == 0)
    2986:	88 23       	and	r24, r24
    2988:	09 f0       	breq	.+2      	; 0x298c <main+0x21a>
    298a:	56 cf       	rjmp	.-340    	; 0x2838 <main+0xc6>
    298c:	87 e0       	ldi	r24, 0x07	; 7
			{
				pre_defined_led_colors_right(PE_OFF);
    298e:	cc d1       	rcall	.+920    	; 0x2d28 <pre_defined_led_colors_right>
    2990:	53 cf       	rjmp	.-346    	; 0x2838 <main+0xc6>

00002992 <configure_spi_bus>:
    2992:	cf 93       	push	r28
		}
		
		
		
		
	}
    2994:	df 93       	push	r29
volatile uint8_t spi_state = 0;
volatile struct SPI_MSG current_msg;


// The following function configures the AT90CAN spi hardware
void configure_spi_bus(){
    2996:	cd b7       	in	r28, 0x3d	; 61
    2998:	de b7       	in	r29, 0x3e	; 62
	
	//Lest bitte das nächste mal das Datenblatt...
	//Kapitel 16.2.2 vom AT90CAN Datenblatt
	DDRB |= (1<<PB0);
    299a:	84 e2       	ldi	r24, 0x24	; 36
    299c:	90 e0       	ldi	r25, 0x00	; 0
    299e:	24 e2       	ldi	r18, 0x24	; 36
    29a0:	30 e0       	ldi	r19, 0x00	; 0
    29a2:	f9 01       	movw	r30, r18
    29a4:	20 81       	ld	r18, Z
    29a6:	21 60       	ori	r18, 0x01	; 1
    29a8:	fc 01       	movw	r30, r24
    29aa:	20 83       	st	Z, r18
	
	// configure MOSI and SCK as Output
	//PB1 - SCK
	//PB2 - MOSI
	DDRB |= (1<<PB2)|(1<<PB1);
    29ac:	84 e2       	ldi	r24, 0x24	; 36
    29ae:	90 e0       	ldi	r25, 0x00	; 0
    29b0:	24 e2       	ldi	r18, 0x24	; 36
    29b2:	30 e0       	ldi	r19, 0x00	; 0
    29b4:	f9 01       	movw	r30, r18
    29b6:	20 81       	ld	r18, Z
    29b8:	26 60       	ori	r18, 0x06	; 6
    29ba:	fc 01       	movw	r30, r24
    29bc:	20 83       	st	Z, r18
	//Enable SPI, SPI Interrupts and select Master Mode
	SPCR = 0|(1<<SPE)|(1<<SPIE)|(1<<MSTR);
    29be:	8c e4       	ldi	r24, 0x4C	; 76
    29c0:	90 e0       	ldi	r25, 0x00	; 0
    29c2:	20 ed       	ldi	r18, 0xD0	; 208
    29c4:	fc 01       	movw	r30, r24
    29c6:	20 83       	st	Z, r18
	//SET CLOCK PRESCALER to / 16
	//CLK ~ 1MHz
	SPCR |= (1<<SPR0);
    29c8:	8c e4       	ldi	r24, 0x4C	; 76
    29ca:	90 e0       	ldi	r25, 0x00	; 0
    29cc:	2c e4       	ldi	r18, 0x4C	; 76
    29ce:	30 e0       	ldi	r19, 0x00	; 0
    29d0:	f9 01       	movw	r30, r18
    29d2:	20 81       	ld	r18, Z
    29d4:	21 60       	ori	r18, 0x01	; 1
    29d6:	fc 01       	movw	r30, r24
    29d8:	20 83       	st	Z, r18
	
	//mark CS Pins as Output
	DDRA |= (1<<PA3);
    29da:	81 e2       	ldi	r24, 0x21	; 33
    29dc:	90 e0       	ldi	r25, 0x00	; 0
    29de:	21 e2       	ldi	r18, 0x21	; 33
    29e0:	30 e0       	ldi	r19, 0x00	; 0
    29e2:	f9 01       	movw	r30, r18
    29e4:	20 81       	ld	r18, Z
    29e6:	28 60       	ori	r18, 0x08	; 8
    29e8:	fc 01       	movw	r30, r24
    29ea:	20 83       	st	Z, r18
	DDRB |= (1<<PB7);
    29ec:	84 e2       	ldi	r24, 0x24	; 36
    29ee:	90 e0       	ldi	r25, 0x00	; 0
    29f0:	24 e2       	ldi	r18, 0x24	; 36
    29f2:	30 e0       	ldi	r19, 0x00	; 0
    29f4:	f9 01       	movw	r30, r18
    29f6:	20 81       	ld	r18, Z
    29f8:	20 68       	ori	r18, 0x80	; 128
    29fa:	fc 01       	movw	r30, r24
    29fc:	20 83       	st	Z, r18
	//THE CS ARE ACTIVE LOW -> PULLING THEM HIGH!
	DIS_CS_LEFT
    29fe:	82 e2       	ldi	r24, 0x22	; 34
    2a00:	90 e0       	ldi	r25, 0x00	; 0
    2a02:	22 e2       	ldi	r18, 0x22	; 34
    2a04:	30 e0       	ldi	r19, 0x00	; 0
    2a06:	f9 01       	movw	r30, r18
    2a08:	20 81       	ld	r18, Z
    2a0a:	28 60       	ori	r18, 0x08	; 8
    2a0c:	fc 01       	movw	r30, r24
    2a0e:	20 83       	st	Z, r18
	DIS_CS_LEFT
    2a10:	82 e2       	ldi	r24, 0x22	; 34
    2a12:	90 e0       	ldi	r25, 0x00	; 0
    2a14:	22 e2       	ldi	r18, 0x22	; 34
    2a16:	30 e0       	ldi	r19, 0x00	; 0
    2a18:	f9 01       	movw	r30, r18
    2a1a:	20 81       	ld	r18, Z
    2a1c:	28 60       	ori	r18, 0x08	; 8
    2a1e:	fc 01       	movw	r30, r24
    2a20:	20 83       	st	Z, r18
		
}
    2a22:	00 00       	nop
    2a24:	df 91       	pop	r29
    2a26:	cf 91       	pop	r28
    2a28:	08 95       	ret

00002a2a <spi_free>:

// the following function checks if we completed our SPI Data Transfer
// 1 means busy
// 0 mens we are done!
uint8_t spi_free(){
    2a2a:	cf 93       	push	r28
    2a2c:	df 93       	push	r29
    2a2e:	cd b7       	in	r28, 0x3d	; 61
    2a30:	de b7       	in	r29, 0x3e	; 62
	
	if(spi_state == 0){
    2a32:	80 91 a6 02 	lds	r24, 0x02A6	; 0x8002a6 <spi_state>
    2a36:	88 23       	and	r24, r24
    2a38:	11 f4       	brne	.+4      	; 0x2a3e <spi_free+0x14>
		return 1;
    2a3a:	81 e0       	ldi	r24, 0x01	; 1
    2a3c:	01 c0       	rjmp	.+2      	; 0x2a40 <spi_free+0x16>
	}
	return 0;
    2a3e:	80 e0       	ldi	r24, 0x00	; 0
	
}
    2a40:	df 91       	pop	r29
    2a42:	cf 91       	pop	r28
    2a44:	08 95       	ret

00002a46 <send_data>:

// address is for the 2 bytes of possible Address pins
void send_data(enum portextender extender, uint8_t control, uint8_t reg, uint8_t data){
    2a46:	cf 93       	push	r28
    2a48:	df 93       	push	r29
    2a4a:	00 d0       	rcall	.+0      	; 0x2a4c <send_data+0x6>
    2a4c:	00 d0       	rcall	.+0      	; 0x2a4e <send_data+0x8>
    2a4e:	cd b7       	in	r28, 0x3d	; 61
    2a50:	de b7       	in	r29, 0x3e	; 62
    2a52:	89 83       	std	Y+1, r24	; 0x01
    2a54:	6a 83       	std	Y+2, r22	; 0x02
    2a56:	4b 83       	std	Y+3, r20	; 0x03
    2a58:	2c 83       	std	Y+4, r18	; 0x04
	
	current_msg.selected_extender = extender;
    2a5a:	89 81       	ldd	r24, Y+1	; 0x01
    2a5c:	80 93 54 03 	sts	0x0354, r24	; 0x800354 <current_msg>
	current_msg.register_addr = reg;
    2a60:	8b 81       	ldd	r24, Y+3	; 0x03
    2a62:	80 93 56 03 	sts	0x0356, r24	; 0x800356 <current_msg+0x2>
	current_msg.control_byte = control;
    2a66:	8a 81       	ldd	r24, Y+2	; 0x02
    2a68:	80 93 55 03 	sts	0x0355, r24	; 0x800355 <current_msg+0x1>
	current_msg.data = data;
    2a6c:	8c 81       	ldd	r24, Y+4	; 0x04
    2a6e:	80 93 57 03 	sts	0x0357, r24	; 0x800357 <current_msg+0x3>
	
	spi_state = 1;
    2a72:	81 e0       	ldi	r24, 0x01	; 1
    2a74:	80 93 a6 02 	sts	0x02A6, r24	; 0x8002a6 <spi_state>
	
	//set chip select!
	
	//Write the control byte into the SPI Data Register
	switch(extender){
    2a78:	89 81       	ldd	r24, Y+1	; 0x01
    2a7a:	88 2f       	mov	r24, r24
    2a7c:	90 e0       	ldi	r25, 0x00	; 0
    2a7e:	00 97       	sbiw	r24, 0x00	; 0
    2a80:	19 f0       	breq	.+6      	; 0x2a88 <send_data+0x42>
    2a82:	01 97       	sbiw	r24, 0x01	; 1
    2a84:	a1 f0       	breq	.+40     	; 0x2aae <send_data+0x68>
    2a86:	26 c0       	rjmp	.+76     	; 0x2ad4 <send_data+0x8e>
		case RGB_LEFT:
			EN_CS_LEFT
    2a88:	82 e2       	ldi	r24, 0x22	; 34
    2a8a:	90 e0       	ldi	r25, 0x00	; 0
    2a8c:	22 e2       	ldi	r18, 0x22	; 34
    2a8e:	30 e0       	ldi	r19, 0x00	; 0
    2a90:	f9 01       	movw	r30, r18
    2a92:	20 81       	ld	r18, Z
    2a94:	27 7f       	andi	r18, 0xF7	; 247
    2a96:	fc 01       	movw	r30, r24
    2a98:	20 83       	st	Z, r18
			//make sure chip select for the right is off
			DIS_CS_RIGHT
    2a9a:	85 e2       	ldi	r24, 0x25	; 37
    2a9c:	90 e0       	ldi	r25, 0x00	; 0
    2a9e:	25 e2       	ldi	r18, 0x25	; 37
    2aa0:	30 e0       	ldi	r19, 0x00	; 0
    2aa2:	f9 01       	movw	r30, r18
    2aa4:	20 81       	ld	r18, Z
    2aa6:	20 68       	ori	r18, 0x80	; 128
    2aa8:	fc 01       	movw	r30, r24
    2aaa:	20 83       	st	Z, r18
			break;
    2aac:	13 c0       	rjmp	.+38     	; 0x2ad4 <send_data+0x8e>
		case RGB_RIGHT:
			EN_CS_RIGHT
    2aae:	85 e2       	ldi	r24, 0x25	; 37
    2ab0:	90 e0       	ldi	r25, 0x00	; 0
    2ab2:	25 e2       	ldi	r18, 0x25	; 37
    2ab4:	30 e0       	ldi	r19, 0x00	; 0
    2ab6:	f9 01       	movw	r30, r18
    2ab8:	20 81       	ld	r18, Z
    2aba:	2f 77       	andi	r18, 0x7F	; 127
    2abc:	fc 01       	movw	r30, r24
    2abe:	20 83       	st	Z, r18
			//make sure chip select for the left is off
			DIS_CS_LEFT
    2ac0:	82 e2       	ldi	r24, 0x22	; 34
    2ac2:	90 e0       	ldi	r25, 0x00	; 0
    2ac4:	22 e2       	ldi	r18, 0x22	; 34
    2ac6:	30 e0       	ldi	r19, 0x00	; 0
    2ac8:	f9 01       	movw	r30, r18
    2aca:	20 81       	ld	r18, Z
    2acc:	28 60       	ori	r18, 0x08	; 8
    2ace:	fc 01       	movw	r30, r24
    2ad0:	20 83       	st	Z, r18
			break;
    2ad2:	00 00       	nop
	}
	SPDR = control;
    2ad4:	8e e4       	ldi	r24, 0x4E	; 78
    2ad6:	90 e0       	ldi	r25, 0x00	; 0
    2ad8:	2a 81       	ldd	r18, Y+2	; 0x02
    2ada:	fc 01       	movw	r30, r24
    2adc:	20 83       	st	Z, r18
	
};
    2ade:	00 00       	nop
    2ae0:	0f 90       	pop	r0
    2ae2:	0f 90       	pop	r0
    2ae4:	0f 90       	pop	r0
    2ae6:	0f 90       	pop	r0
    2ae8:	df 91       	pop	r29
    2aea:	cf 91       	pop	r28
    2aec:	08 95       	ret

00002aee <send_data_blocking>:

void send_data_blocking(enum portextender extender, uint8_t control, uint8_t reg, uint8_t data){
    2aee:	cf 93       	push	r28
    2af0:	df 93       	push	r29
    2af2:	00 d0       	rcall	.+0      	; 0x2af4 <send_data_blocking+0x6>
    2af4:	00 d0       	rcall	.+0      	; 0x2af6 <send_data_blocking+0x8>
    2af6:	1f 92       	push	r1
    2af8:	cd b7       	in	r28, 0x3d	; 61
    2afa:	de b7       	in	r29, 0x3e	; 62
    2afc:	8a 83       	std	Y+2, r24	; 0x02
    2afe:	6b 83       	std	Y+3, r22	; 0x03
    2b00:	4c 83       	std	Y+4, r20	; 0x04
    2b02:	2d 83       	std	Y+5, r18	; 0x05
	//wait until the bus is free
	while (!spi_free()){
    2b04:	09 c0       	rjmp	.+18     	; 0x2b18 <send_data_blocking+0x2a>
		//wait for some time
		WASTE_CPU_TIME
    2b06:	8f ef       	ldi	r24, 0xFF	; 255
    2b08:	89 83       	std	Y+1, r24	; 0x01
    2b0a:	03 c0       	rjmp	.+6      	; 0x2b12 <send_data_blocking+0x24>
    2b0c:	89 81       	ldd	r24, Y+1	; 0x01
    2b0e:	81 50       	subi	r24, 0x01	; 1
    2b10:	89 83       	std	Y+1, r24	; 0x01
    2b12:	89 81       	ldd	r24, Y+1	; 0x01
    2b14:	88 23       	and	r24, r24
    2b16:	d1 f7       	brne	.-12     	; 0x2b0c <send_data_blocking+0x1e>
	
};

void send_data_blocking(enum portextender extender, uint8_t control, uint8_t reg, uint8_t data){
	//wait until the bus is free
	while (!spi_free()){
    2b18:	88 df       	rcall	.-240    	; 0x2a2a <spi_free>
    2b1a:	88 23       	and	r24, r24
    2b1c:	a1 f3       	breq	.-24     	; 0x2b06 <send_data_blocking+0x18>
		//wait for some time
		WASTE_CPU_TIME
	}
	send_data(extender,control,reg,data);
    2b1e:	2d 81       	ldd	r18, Y+5	; 0x05
    2b20:	4c 81       	ldd	r20, Y+4	; 0x04
    2b22:	6b 81       	ldd	r22, Y+3	; 0x03
    2b24:	8a 81       	ldd	r24, Y+2	; 0x02
    2b26:	8f df       	rcall	.-226    	; 0x2a46 <send_data>
};
    2b28:	00 00       	nop
    2b2a:	0f 90       	pop	r0
    2b2c:	0f 90       	pop	r0
    2b2e:	0f 90       	pop	r0
    2b30:	0f 90       	pop	r0
    2b32:	0f 90       	pop	r0
    2b34:	df 91       	pop	r29
    2b36:	cf 91       	pop	r28
    2b38:	08 95       	ret

00002b3a <extender_leds>:



void extender_leds(enum portextender extender, uint8_t data){
    2b3a:	cf 93       	push	r28
    2b3c:	df 93       	push	r29
    2b3e:	00 d0       	rcall	.+0      	; 0x2b40 <extender_leds+0x6>
    2b40:	cd b7       	in	r28, 0x3d	; 61
    2b42:	de b7       	in	r29, 0x3e	; 62
    2b44:	89 83       	std	Y+1, r24	; 0x01
    2b46:	6a 83       	std	Y+2, r22	; 0x02
	
	send_data(extender,0b01000000,PE_OLAT,~data);
    2b48:	8a 81       	ldd	r24, Y+2	; 0x02
    2b4a:	80 95       	com	r24
    2b4c:	28 2f       	mov	r18, r24
    2b4e:	4a e0       	ldi	r20, 0x0A	; 10
    2b50:	60 e4       	ldi	r22, 0x40	; 64
    2b52:	89 81       	ldd	r24, Y+1	; 0x01
    2b54:	78 df       	rcall	.-272    	; 0x2a46 <send_data>
};
    2b56:	00 00       	nop
    2b58:	0f 90       	pop	r0
    2b5a:	0f 90       	pop	r0
    2b5c:	df 91       	pop	r29
    2b5e:	cf 91       	pop	r28
    2b60:	08 95       	ret

00002b62 <extender_leds_blocking>:

void extender_leds_blocking(enum portextender extender, uint8_t data){
    2b62:	cf 93       	push	r28
    2b64:	df 93       	push	r29
    2b66:	00 d0       	rcall	.+0      	; 0x2b68 <extender_leds_blocking+0x6>
    2b68:	cd b7       	in	r28, 0x3d	; 61
    2b6a:	de b7       	in	r29, 0x3e	; 62
    2b6c:	89 83       	std	Y+1, r24	; 0x01
    2b6e:	6a 83       	std	Y+2, r22	; 0x02
	send_data_blocking(extender,0b01000000,PE_OLAT,~data);
    2b70:	8a 81       	ldd	r24, Y+2	; 0x02
    2b72:	80 95       	com	r24
    2b74:	28 2f       	mov	r18, r24
    2b76:	4a e0       	ldi	r20, 0x0A	; 10
    2b78:	60 e4       	ldi	r22, 0x40	; 64
    2b7a:	89 81       	ldd	r24, Y+1	; 0x01
    2b7c:	b8 df       	rcall	.-144    	; 0x2aee <send_data_blocking>
}
    2b7e:	00 00       	nop
    2b80:	0f 90       	pop	r0
    2b82:	0f 90       	pop	r0
    2b84:	df 91       	pop	r29
    2b86:	cf 91       	pop	r28
    2b88:	08 95       	ret

00002b8a <__vector_20>:

ISR(SPI_STC_vect){
    2b8a:	1f 92       	push	r1
    2b8c:	0f 92       	push	r0
    2b8e:	00 90 5f 00 	lds	r0, 0x005F	; 0x80005f <__TEXT_REGION_LENGTH__+0x7e005f>
    2b92:	0f 92       	push	r0
    2b94:	11 24       	eor	r1, r1
    2b96:	00 90 5b 00 	lds	r0, 0x005B	; 0x80005b <__TEXT_REGION_LENGTH__+0x7e005b>
    2b9a:	0f 92       	push	r0
    2b9c:	2f 93       	push	r18
    2b9e:	3f 93       	push	r19
    2ba0:	8f 93       	push	r24
    2ba2:	9f 93       	push	r25
    2ba4:	ef 93       	push	r30
    2ba6:	ff 93       	push	r31
    2ba8:	cf 93       	push	r28
    2baa:	df 93       	push	r29
    2bac:	cd b7       	in	r28, 0x3d	; 61
    2bae:	de b7       	in	r29, 0x3e	; 62
	switch (spi_state){
    2bb0:	80 91 a6 02 	lds	r24, 0x02A6	; 0x8002a6 <spi_state>
    2bb4:	88 2f       	mov	r24, r24
    2bb6:	90 e0       	ldi	r25, 0x00	; 0
    2bb8:	82 30       	cpi	r24, 0x02	; 2
    2bba:	91 05       	cpc	r25, r1
    2bbc:	81 f0       	breq	.+32     	; 0x2bde <__vector_20+0x54>
    2bbe:	83 30       	cpi	r24, 0x03	; 3
    2bc0:	91 05       	cpc	r25, r1
    2bc2:	b9 f0       	breq	.+46     	; 0x2bf2 <__vector_20+0x68>
    2bc4:	01 97       	sbiw	r24, 0x01	; 1
    2bc6:	09 f0       	breq	.+2      	; 0x2bca <__vector_20+0x40>
			//set spi state to 0
			spi_state = 0;
			break;
	}
	
}
    2bc8:	29 c0       	rjmp	.+82     	; 0x2c1c <__vector_20+0x92>
ISR(SPI_STC_vect){
	switch (spi_state){
		case 1:
			//control byte was send!
			//send register
			SPDR = current_msg.register_addr;
    2bca:	8e e4       	ldi	r24, 0x4E	; 78
    2bcc:	90 e0       	ldi	r25, 0x00	; 0
    2bce:	20 91 56 03 	lds	r18, 0x0356	; 0x800356 <current_msg+0x2>
    2bd2:	fc 01       	movw	r30, r24
    2bd4:	20 83       	st	Z, r18
			//update SPI State			
			spi_state = 2;
    2bd6:	82 e0       	ldi	r24, 0x02	; 2
    2bd8:	80 93 a6 02 	sts	0x02A6, r24	; 0x8002a6 <spi_state>
			break;
    2bdc:	1f c0       	rjmp	.+62     	; 0x2c1c <__vector_20+0x92>
		case 2:
			//register was send
			//send data
			SPDR = current_msg.data;
    2bde:	8e e4       	ldi	r24, 0x4E	; 78
    2be0:	90 e0       	ldi	r25, 0x00	; 0
    2be2:	20 91 57 03 	lds	r18, 0x0357	; 0x800357 <current_msg+0x3>
    2be6:	fc 01       	movw	r30, r24
    2be8:	20 83       	st	Z, r18
			//update SPI State
			spi_state = 3;
    2bea:	83 e0       	ldi	r24, 0x03	; 3
    2bec:	80 93 a6 02 	sts	0x02A6, r24	; 0x8002a6 <spi_state>
			break;
    2bf0:	15 c0       	rjmp	.+42     	; 0x2c1c <__vector_20+0x92>
		case 3:
			//data was send
			//disable chip selects
			DIS_CS_RIGHT
    2bf2:	85 e2       	ldi	r24, 0x25	; 37
    2bf4:	90 e0       	ldi	r25, 0x00	; 0
    2bf6:	25 e2       	ldi	r18, 0x25	; 37
    2bf8:	30 e0       	ldi	r19, 0x00	; 0
    2bfa:	f9 01       	movw	r30, r18
    2bfc:	20 81       	ld	r18, Z
    2bfe:	20 68       	ori	r18, 0x80	; 128
    2c00:	fc 01       	movw	r30, r24
    2c02:	20 83       	st	Z, r18
			DIS_CS_LEFT
    2c04:	82 e2       	ldi	r24, 0x22	; 34
    2c06:	90 e0       	ldi	r25, 0x00	; 0
    2c08:	22 e2       	ldi	r18, 0x22	; 34
    2c0a:	30 e0       	ldi	r19, 0x00	; 0
    2c0c:	f9 01       	movw	r30, r18
    2c0e:	20 81       	ld	r18, Z
    2c10:	28 60       	ori	r18, 0x08	; 8
    2c12:	fc 01       	movw	r30, r24
    2c14:	20 83       	st	Z, r18
			//set spi state to 0
			spi_state = 0;
    2c16:	10 92 a6 02 	sts	0x02A6, r1	; 0x8002a6 <spi_state>
			break;
    2c1a:	00 00       	nop
	}
	
}
    2c1c:	00 00       	nop
    2c1e:	df 91       	pop	r29
    2c20:	cf 91       	pop	r28
    2c22:	ff 91       	pop	r31
    2c24:	ef 91       	pop	r30
    2c26:	9f 91       	pop	r25
    2c28:	8f 91       	pop	r24
    2c2a:	3f 91       	pop	r19
    2c2c:	2f 91       	pop	r18
    2c2e:	0f 90       	pop	r0
    2c30:	00 92 5b 00 	sts	0x005B, r0	; 0x80005b <__TEXT_REGION_LENGTH__+0x7e005b>
    2c34:	0f 90       	pop	r0
    2c36:	00 92 5f 00 	sts	0x005F, r0	; 0x80005f <__TEXT_REGION_LENGTH__+0x7e005f>
    2c3a:	0f 90       	pop	r0
    2c3c:	1f 90       	pop	r1
    2c3e:	18 95       	reti

00002c40 <configure_portextenders>:

void configure_portextenders(){
    2c40:	cf 93       	push	r28
    2c42:	df 93       	push	r29
    2c44:	cd b7       	in	r28, 0x3d	; 61
    2c46:	de b7       	in	r29, 0x3e	; 62
	
	//mark all pins as output
	send_data_blocking(RGB_LEFT,0b01000100,PE_IODIR,0x00);
    2c48:	20 e0       	ldi	r18, 0x00	; 0
    2c4a:	40 e0       	ldi	r20, 0x00	; 0
    2c4c:	64 e4       	ldi	r22, 0x44	; 68
    2c4e:	80 e0       	ldi	r24, 0x00	; 0
    2c50:	4e df       	rcall	.-356    	; 0x2aee <send_data_blocking>
	send_data_blocking(RGB_RIGHT,0b01000010,PE_IODIR,0x00);
    2c52:	20 e0       	ldi	r18, 0x00	; 0
    2c54:	40 e0       	ldi	r20, 0x00	; 0
    2c56:	62 e4       	ldi	r22, 0x42	; 66
    2c58:	81 e0       	ldi	r24, 0x01	; 1
    2c5a:	49 df       	rcall	.-366    	; 0x2aee <send_data_blocking>

	//disable HA Pins...
	send_data_blocking(RGB_LEFT,0b01000100,PE_IOCON,0);
    2c5c:	20 e0       	ldi	r18, 0x00	; 0
    2c5e:	45 e0       	ldi	r20, 0x05	; 5
    2c60:	64 e4       	ldi	r22, 0x44	; 68
    2c62:	80 e0       	ldi	r24, 0x00	; 0
    2c64:	44 df       	rcall	.-376    	; 0x2aee <send_data_blocking>
	send_data_blocking(RGB_RIGHT,0b01000010,PE_IOCON,0);
    2c66:	20 e0       	ldi	r18, 0x00	; 0
    2c68:	45 e0       	ldi	r20, 0x05	; 5
    2c6a:	62 e4       	ldi	r22, 0x42	; 66
    2c6c:	81 e0       	ldi	r24, 0x01	; 1
    2c6e:	3f df       	rcall	.-386    	; 0x2aee <send_data_blocking>
    2c70:	00 00       	nop
}
    2c72:	df 91       	pop	r29
    2c74:	cf 91       	pop	r28
    2c76:	08 95       	ret

00002c78 <pre_defined_led_colors>:
    2c78:	cf 93       	push	r28

void pre_defined_led_colors(enum led_color color){
    2c7a:	df 93       	push	r29
    2c7c:	1f 92       	push	r1
    2c7e:	cd b7       	in	r28, 0x3d	; 61
    2c80:	de b7       	in	r29, 0x3e	; 62
    2c82:	89 83       	std	Y+1, r24	; 0x01
    2c84:	89 81       	ldd	r24, Y+1	; 0x01
	switch(color){
    2c86:	88 2f       	mov	r24, r24
    2c88:	90 e0       	ldi	r25, 0x00	; 0
    2c8a:	09 2e       	mov	r0, r25
    2c8c:	00 0c       	add	r0, r0
    2c8e:	aa 0b       	sbc	r26, r26
    2c90:	bb 0b       	sbc	r27, r27
    2c92:	40 e0       	ldi	r20, 0x00	; 0
    2c94:	50 e0       	ldi	r21, 0x00	; 0
    2c96:	27 e0       	ldi	r18, 0x07	; 7
    2c98:	30 e0       	ldi	r19, 0x00	; 0
    2c9a:	84 1b       	sub	r24, r20
    2c9c:	95 0b       	sbc	r25, r21
    2c9e:	28 17       	cp	r18, r24
    2ca0:	39 07       	cpc	r19, r25
    2ca2:	08 f4       	brcc	.+2      	; 0x2ca6 <pre_defined_led_colors+0x2e>
    2ca4:	3c c0       	rjmp	.+120    	; 0x2d1e <pre_defined_led_colors+0xa6>
    2ca6:	8e 59       	subi	r24, 0x9E	; 158
    2ca8:	9f 4f       	sbci	r25, 0xFF	; 255
    2caa:	fc 01       	movw	r30, r24
		case PE_RED:
		extender_leds_blocking(RGB_LEFT,0|(1<<F_RED)|(1<<R_RED));
    2cac:	9f c4       	rjmp	.+2366   	; 0x35ec <__tablejump2__>
    2cae:	69 e0       	ldi	r22, 0x09	; 9
    2cb0:	80 e0       	ldi	r24, 0x00	; 0
		extender_leds_blocking(RGB_RIGHT,0|(1<<F_RED)|(1<<R_RED));
    2cb2:	57 df       	rcall	.-338    	; 0x2b62 <extender_leds_blocking>
    2cb4:	69 e0       	ldi	r22, 0x09	; 9
    2cb6:	81 e0       	ldi	r24, 0x01	; 1
		break;
    2cb8:	54 df       	rcall	.-344    	; 0x2b62 <extender_leds_blocking>
		case PE_GREEN:
		extender_leds_blocking(RGB_LEFT,0|(1<<F_GREEN)|(1<<R_GREEN));
    2cba:	31 c0       	rjmp	.+98     	; 0x2d1e <pre_defined_led_colors+0xa6>
    2cbc:	66 e0       	ldi	r22, 0x06	; 6
    2cbe:	80 e0       	ldi	r24, 0x00	; 0
		extender_leds_blocking(RGB_RIGHT,0|(1<<F_GREEN)|(1<<R_GREEN));
    2cc0:	50 df       	rcall	.-352    	; 0x2b62 <extender_leds_blocking>
    2cc2:	66 e0       	ldi	r22, 0x06	; 6
    2cc4:	81 e0       	ldi	r24, 0x01	; 1
		break;
		case PE_BLUE:
		extender_leds_blocking(RGB_LEFT,0|(1<<F_BLUE)|(1<<R_BLUE));
    2cc6:	4d df       	rcall	.-358    	; 0x2b62 <extender_leds_blocking>
    2cc8:	2a c0       	rjmp	.+84     	; 0x2d1e <pre_defined_led_colors+0xa6>
    2cca:	60 e3       	ldi	r22, 0x30	; 48
		extender_leds_blocking(RGB_RIGHT,0|(1<<F_BLUE)|(1<<R_BLUE));
    2ccc:	80 e0       	ldi	r24, 0x00	; 0
    2cce:	49 df       	rcall	.-366    	; 0x2b62 <extender_leds_blocking>
    2cd0:	60 e3       	ldi	r22, 0x30	; 48
		break;
    2cd2:	81 e0       	ldi	r24, 0x01	; 1
		case PE_PURPLE:
		extender_leds_blocking(RGB_LEFT,0|(1<<F_BLUE)|(1<<R_BLUE)|(1<<R_RED)|(1<<F_RED));
    2cd4:	46 df       	rcall	.-372    	; 0x2b62 <extender_leds_blocking>
    2cd6:	23 c0       	rjmp	.+70     	; 0x2d1e <pre_defined_led_colors+0xa6>
    2cd8:	69 e3       	ldi	r22, 0x39	; 57
		extender_leds_blocking(RGB_RIGHT,0|(1<<F_BLUE)|(1<<R_BLUE)|(1<<R_RED)|(1<<F_RED));
    2cda:	80 e0       	ldi	r24, 0x00	; 0
    2cdc:	42 df       	rcall	.-380    	; 0x2b62 <extender_leds_blocking>
    2cde:	69 e3       	ldi	r22, 0x39	; 57
		break;
		case PE_LIGHTBLUE:
		extender_leds_blocking(RGB_LEFT,0|(1<<F_GREEN)|(1<<R_GREEN)|(1<<R_BLUE)|(1<<F_BLUE));
    2ce0:	81 e0       	ldi	r24, 0x01	; 1
    2ce2:	3f df       	rcall	.-386    	; 0x2b62 <extender_leds_blocking>
    2ce4:	1c c0       	rjmp	.+56     	; 0x2d1e <pre_defined_led_colors+0xa6>
		extender_leds_blocking(RGB_RIGHT,0|(1<<F_GREEN)|(1<<R_GREEN)|(1<<R_BLUE)|(1<<F_BLUE));
    2ce6:	66 e3       	ldi	r22, 0x36	; 54
    2ce8:	80 e0       	ldi	r24, 0x00	; 0
    2cea:	3b df       	rcall	.-394    	; 0x2b62 <extender_leds_blocking>
		break;
    2cec:	66 e3       	ldi	r22, 0x36	; 54
		case PE_WHITE:
		extender_leds_blocking(RGB_LEFT,0xff);
    2cee:	81 e0       	ldi	r24, 0x01	; 1
    2cf0:	38 df       	rcall	.-400    	; 0x2b62 <extender_leds_blocking>
    2cf2:	15 c0       	rjmp	.+42     	; 0x2d1e <pre_defined_led_colors+0xa6>
		extender_leds_blocking(RGB_RIGHT,0xff);
    2cf4:	6f ef       	ldi	r22, 0xFF	; 255
    2cf6:	80 e0       	ldi	r24, 0x00	; 0
    2cf8:	34 df       	rcall	.-408    	; 0x2b62 <extender_leds_blocking>
    2cfa:	6f ef       	ldi	r22, 0xFF	; 255
		break;
    2cfc:	81 e0       	ldi	r24, 0x01	; 1
		case PE_OFF:
		extender_leds_blocking(RGB_LEFT,0);
    2cfe:	31 df       	rcall	.-414    	; 0x2b62 <extender_leds_blocking>
    2d00:	0e c0       	rjmp	.+28     	; 0x2d1e <pre_defined_led_colors+0xa6>
    2d02:	60 e0       	ldi	r22, 0x00	; 0
    2d04:	80 e0       	ldi	r24, 0x00	; 0
		extender_leds_blocking(RGB_RIGHT,0);
    2d06:	2d df       	rcall	.-422    	; 0x2b62 <extender_leds_blocking>
    2d08:	60 e0       	ldi	r22, 0x00	; 0
    2d0a:	81 e0       	ldi	r24, 0x01	; 1
    2d0c:	2a df       	rcall	.-428    	; 0x2b62 <extender_leds_blocking>
		break;
    2d0e:	07 c0       	rjmp	.+14     	; 0x2d1e <pre_defined_led_colors+0xa6>
		case PE_AMBER:
		extender_leds_blocking(RGB_LEFT,0|(1<<F_GREEN)|(1<<R_GREEN)|(1<<R_RED)|(1<<F_RED));
    2d10:	6f e0       	ldi	r22, 0x0F	; 15
    2d12:	80 e0       	ldi	r24, 0x00	; 0
    2d14:	26 df       	rcall	.-436    	; 0x2b62 <extender_leds_blocking>
    2d16:	6f e0       	ldi	r22, 0x0F	; 15
		extender_leds_blocking(RGB_RIGHT,0|(1<<F_GREEN)|(1<<R_GREEN)|(1<<R_RED)|(1<<F_RED));
    2d18:	81 e0       	ldi	r24, 0x01	; 1
    2d1a:	23 df       	rcall	.-442    	; 0x2b62 <extender_leds_blocking>
    2d1c:	00 00       	nop
    2d1e:	00 00       	nop
		break;
    2d20:	0f 90       	pop	r0
	}

}
    2d22:	df 91       	pop	r29
    2d24:	cf 91       	pop	r28
    2d26:	08 95       	ret

00002d28 <pre_defined_led_colors_right>:
    2d28:	cf 93       	push	r28
    2d2a:	df 93       	push	r29


void pre_defined_led_colors_right(enum led_color color)
{
    2d2c:	1f 92       	push	r1
    2d2e:	cd b7       	in	r28, 0x3d	; 61
    2d30:	de b7       	in	r29, 0x3e	; 62
    2d32:	89 83       	std	Y+1, r24	; 0x01
	switch(color)
    2d34:	89 81       	ldd	r24, Y+1	; 0x01
    2d36:	88 2f       	mov	r24, r24
    2d38:	90 e0       	ldi	r25, 0x00	; 0
    2d3a:	09 2e       	mov	r0, r25
    2d3c:	00 0c       	add	r0, r0
    2d3e:	aa 0b       	sbc	r26, r26
    2d40:	bb 0b       	sbc	r27, r27
    2d42:	40 e0       	ldi	r20, 0x00	; 0
    2d44:	50 e0       	ldi	r21, 0x00	; 0
    2d46:	27 e0       	ldi	r18, 0x07	; 7
    2d48:	30 e0       	ldi	r19, 0x00	; 0
    2d4a:	84 1b       	sub	r24, r20
    2d4c:	95 0b       	sbc	r25, r21
    2d4e:	28 17       	cp	r18, r24
    2d50:	39 07       	cpc	r19, r25
    2d52:	20 f1       	brcs	.+72     	; 0x2d9c <pre_defined_led_colors_right+0x74>
    2d54:	86 59       	subi	r24, 0x96	; 150
	{
		case PE_RED:
		extender_leds_blocking(RGB_RIGHT,0|(1<<F_RED)|(1<<R_RED));
    2d56:	9f 4f       	sbci	r25, 0xFF	; 255
    2d58:	fc 01       	movw	r30, r24
    2d5a:	48 c4       	rjmp	.+2192   	; 0x35ec <__tablejump2__>
		break;
		case PE_GREEN:
		extender_leds_blocking(RGB_RIGHT,0|(1<<F_GREEN)|(1<<R_GREEN));
    2d5c:	69 e0       	ldi	r22, 0x09	; 9
    2d5e:	81 e0       	ldi	r24, 0x01	; 1
    2d60:	00 df       	rcall	.-512    	; 0x2b62 <extender_leds_blocking>
    2d62:	1c c0       	rjmp	.+56     	; 0x2d9c <pre_defined_led_colors_right+0x74>
		break;
    2d64:	66 e0       	ldi	r22, 0x06	; 6
		case PE_BLUE:
		extender_leds_blocking(RGB_RIGHT,0|(1<<F_BLUE)|(1<<R_BLUE));
    2d66:	81 e0       	ldi	r24, 0x01	; 1
    2d68:	fc de       	rcall	.-520    	; 0x2b62 <extender_leds_blocking>
    2d6a:	18 c0       	rjmp	.+48     	; 0x2d9c <pre_defined_led_colors_right+0x74>
    2d6c:	60 e3       	ldi	r22, 0x30	; 48
		break;
    2d6e:	81 e0       	ldi	r24, 0x01	; 1
		case PE_PURPLE:
		extender_leds_blocking(RGB_RIGHT,0|(1<<F_BLUE)|(1<<R_BLUE)|(1<<R_RED)|(1<<F_RED));
    2d70:	f8 de       	rcall	.-528    	; 0x2b62 <extender_leds_blocking>
    2d72:	14 c0       	rjmp	.+40     	; 0x2d9c <pre_defined_led_colors_right+0x74>
    2d74:	69 e3       	ldi	r22, 0x39	; 57
    2d76:	81 e0       	ldi	r24, 0x01	; 1
		break;
    2d78:	f4 de       	rcall	.-536    	; 0x2b62 <extender_leds_blocking>
		case PE_LIGHTBLUE:
		extender_leds_blocking(RGB_RIGHT,0|(1<<F_GREEN)|(1<<R_GREEN)|(1<<R_BLUE)|(1<<F_BLUE));
    2d7a:	10 c0       	rjmp	.+32     	; 0x2d9c <pre_defined_led_colors_right+0x74>
    2d7c:	66 e3       	ldi	r22, 0x36	; 54
    2d7e:	81 e0       	ldi	r24, 0x01	; 1
    2d80:	f0 de       	rcall	.-544    	; 0x2b62 <extender_leds_blocking>
		break;
    2d82:	0c c0       	rjmp	.+24     	; 0x2d9c <pre_defined_led_colors_right+0x74>
		case PE_WHITE:
		extender_leds_blocking(RGB_RIGHT,0xff);
    2d84:	6f ef       	ldi	r22, 0xFF	; 255
    2d86:	81 e0       	ldi	r24, 0x01	; 1
    2d88:	ec de       	rcall	.-552    	; 0x2b62 <extender_leds_blocking>
    2d8a:	08 c0       	rjmp	.+16     	; 0x2d9c <pre_defined_led_colors_right+0x74>
		break;
    2d8c:	60 e0       	ldi	r22, 0x00	; 0
		case PE_OFF:
		extender_leds_blocking(RGB_RIGHT,0);
    2d8e:	81 e0       	ldi	r24, 0x01	; 1
    2d90:	e8 de       	rcall	.-560    	; 0x2b62 <extender_leds_blocking>
    2d92:	04 c0       	rjmp	.+8      	; 0x2d9c <pre_defined_led_colors_right+0x74>
    2d94:	6f e0       	ldi	r22, 0x0F	; 15
		break;
    2d96:	81 e0       	ldi	r24, 0x01	; 1
		case PE_AMBER:
		extender_leds_blocking(RGB_RIGHT,0|(1<<F_GREEN)|(1<<R_GREEN)|(1<<R_RED)|(1<<F_RED));
    2d98:	e4 de       	rcall	.-568    	; 0x2b62 <extender_leds_blocking>
    2d9a:	00 00       	nop
    2d9c:	00 00       	nop
		break;
	}
}
    2d9e:	0f 90       	pop	r0
    2da0:	df 91       	pop	r29
    2da2:	cf 91       	pop	r28
    2da4:	08 95       	ret

00002da6 <pre_defined_led_colors_left>:

void pre_defined_led_colors_left(enum led_color color)
{
    2da6:	cf 93       	push	r28
    2da8:	df 93       	push	r29
    2daa:	1f 92       	push	r1
    2dac:	cd b7       	in	r28, 0x3d	; 61
    2dae:	de b7       	in	r29, 0x3e	; 62
	switch(color)
    2db0:	89 83       	std	Y+1, r24	; 0x01
    2db2:	89 81       	ldd	r24, Y+1	; 0x01
    2db4:	88 2f       	mov	r24, r24
    2db6:	90 e0       	ldi	r25, 0x00	; 0
    2db8:	09 2e       	mov	r0, r25
    2dba:	00 0c       	add	r0, r0
    2dbc:	aa 0b       	sbc	r26, r26
    2dbe:	bb 0b       	sbc	r27, r27
    2dc0:	40 e0       	ldi	r20, 0x00	; 0
    2dc2:	50 e0       	ldi	r21, 0x00	; 0
    2dc4:	27 e0       	ldi	r18, 0x07	; 7
    2dc6:	30 e0       	ldi	r19, 0x00	; 0
    2dc8:	84 1b       	sub	r24, r20
    2dca:	95 0b       	sbc	r25, r21
    2dcc:	28 17       	cp	r18, r24
    2dce:	39 07       	cpc	r19, r25
	{
		case PE_RED:
		extender_leds_blocking(RGB_LEFT,0|(1<<F_RED)|(1<<R_RED));
    2dd0:	20 f1       	brcs	.+72     	; 0x2e1a <pre_defined_led_colors_left+0x74>
    2dd2:	8e 58       	subi	r24, 0x8E	; 142
    2dd4:	9f 4f       	sbci	r25, 0xFF	; 255
    2dd6:	fc 01       	movw	r30, r24
		break;
    2dd8:	09 c4       	rjmp	.+2066   	; 0x35ec <__tablejump2__>
		case PE_GREEN:
		extender_leds_blocking(RGB_LEFT,0|(1<<F_GREEN)|(1<<R_GREEN));
    2dda:	69 e0       	ldi	r22, 0x09	; 9
    2ddc:	80 e0       	ldi	r24, 0x00	; 0
    2dde:	c1 de       	rcall	.-638    	; 0x2b62 <extender_leds_blocking>
    2de0:	1c c0       	rjmp	.+56     	; 0x2e1a <pre_defined_led_colors_left+0x74>
		break;
    2de2:	66 e0       	ldi	r22, 0x06	; 6
		case PE_BLUE:
		extender_leds_blocking(RGB_LEFT,0|(1<<F_BLUE)|(1<<R_BLUE));
    2de4:	80 e0       	ldi	r24, 0x00	; 0
    2de6:	bd de       	rcall	.-646    	; 0x2b62 <extender_leds_blocking>
    2de8:	18 c0       	rjmp	.+48     	; 0x2e1a <pre_defined_led_colors_left+0x74>
    2dea:	60 e3       	ldi	r22, 0x30	; 48
		break;
    2dec:	80 e0       	ldi	r24, 0x00	; 0
		case PE_PURPLE:
		extender_leds_blocking(RGB_LEFT,0|(1<<F_BLUE)|(1<<R_BLUE)|(1<<R_RED)|(1<<F_RED));
    2dee:	b9 de       	rcall	.-654    	; 0x2b62 <extender_leds_blocking>
    2df0:	14 c0       	rjmp	.+40     	; 0x2e1a <pre_defined_led_colors_left+0x74>
    2df2:	69 e3       	ldi	r22, 0x39	; 57
    2df4:	80 e0       	ldi	r24, 0x00	; 0
		break;
    2df6:	b5 de       	rcall	.-662    	; 0x2b62 <extender_leds_blocking>
		case PE_LIGHTBLUE:
		extender_leds_blocking(RGB_LEFT,0|(1<<F_GREEN)|(1<<R_GREEN)|(1<<R_BLUE)|(1<<F_BLUE));
    2df8:	10 c0       	rjmp	.+32     	; 0x2e1a <pre_defined_led_colors_left+0x74>
    2dfa:	66 e3       	ldi	r22, 0x36	; 54
    2dfc:	80 e0       	ldi	r24, 0x00	; 0
    2dfe:	b1 de       	rcall	.-670    	; 0x2b62 <extender_leds_blocking>
		break;
    2e00:	0c c0       	rjmp	.+24     	; 0x2e1a <pre_defined_led_colors_left+0x74>
		case PE_WHITE:
		extender_leds_blocking(RGB_LEFT,0xff);
    2e02:	6f ef       	ldi	r22, 0xFF	; 255
    2e04:	80 e0       	ldi	r24, 0x00	; 0
    2e06:	ad de       	rcall	.-678    	; 0x2b62 <extender_leds_blocking>
    2e08:	08 c0       	rjmp	.+16     	; 0x2e1a <pre_defined_led_colors_left+0x74>
		break;
    2e0a:	60 e0       	ldi	r22, 0x00	; 0
		case PE_OFF:
		extender_leds_blocking(RGB_LEFT,0);
    2e0c:	80 e0       	ldi	r24, 0x00	; 0
    2e0e:	a9 de       	rcall	.-686    	; 0x2b62 <extender_leds_blocking>
    2e10:	04 c0       	rjmp	.+8      	; 0x2e1a <pre_defined_led_colors_left+0x74>
    2e12:	6f e0       	ldi	r22, 0x0F	; 15
		break;
    2e14:	80 e0       	ldi	r24, 0x00	; 0
		case PE_AMBER:
		extender_leds_blocking(RGB_LEFT,0|(1<<F_GREEN)|(1<<R_GREEN)|(1<<R_RED)|(1<<F_RED));
    2e16:	a5 de       	rcall	.-694    	; 0x2b62 <extender_leds_blocking>
    2e18:	00 00       	nop
    2e1a:	00 00       	nop
    2e1c:	0f 90       	pop	r0
		break;
    2e1e:	df 91       	pop	r29
	}
}
    2e20:	cf 91       	pop	r28
    2e22:	08 95       	ret

00002e24 <clear_top_left_bar>:
    2e24:	cf 93       	push	r28
    2e26:	df 93       	push	r29
    2e28:	cd b7       	in	r28, 0x3d	; 61



//This Function turns off the left Top Bar
void clear_top_left_bar(void)
{
    2e2a:	de b7       	in	r29, 0x3e	; 62
    2e2c:	82 e2       	ldi	r24, 0x22	; 34
    2e2e:	90 e0       	ldi	r25, 0x00	; 0
    2e30:	22 e2       	ldi	r18, 0x22	; 34
	PORTA &= ~(1<<PA4) & ~(1<<PA5) & ~(1<<PA6) & ~(1<<PA7);
    2e32:	30 e0       	ldi	r19, 0x00	; 0
    2e34:	f9 01       	movw	r30, r18
    2e36:	20 81       	ld	r18, Z
    2e38:	2f 70       	andi	r18, 0x0F	; 15
    2e3a:	fc 01       	movw	r30, r24
    2e3c:	20 83       	st	Z, r18
    2e3e:	84 e3       	ldi	r24, 0x34	; 52
    2e40:	90 e0       	ldi	r25, 0x00	; 0
    2e42:	24 e3       	ldi	r18, 0x34	; 52
	PORTG &= ~(1<<PG2);
    2e44:	30 e0       	ldi	r19, 0x00	; 0
    2e46:	f9 01       	movw	r30, r18
    2e48:	20 81       	ld	r18, Z
    2e4a:	2b 7f       	andi	r18, 0xFB	; 251
    2e4c:	fc 01       	movw	r30, r24
    2e4e:	20 83       	st	Z, r18
    2e50:	00 00       	nop
    2e52:	df 91       	pop	r29
}
    2e54:	cf 91       	pop	r28
    2e56:	08 95       	ret

00002e58 <clear_top_right_bar>:
    2e58:	cf 93       	push	r28
    2e5a:	df 93       	push	r29

//This Function turns off the right Top Bar
void clear_top_right_bar(void)
{
    2e5c:	cd b7       	in	r28, 0x3d	; 61
    2e5e:	de b7       	in	r29, 0x3e	; 62
    2e60:	88 e2       	ldi	r24, 0x28	; 40
    2e62:	90 e0       	ldi	r25, 0x00	; 0
	PORTC = 0;
    2e64:	fc 01       	movw	r30, r24
    2e66:	10 82       	st	Z, r1
    2e68:	84 e3       	ldi	r24, 0x34	; 52
    2e6a:	90 e0       	ldi	r25, 0x00	; 0
	PORTG &= ~(1<<PG0) & ~(1<<PG1);
    2e6c:	24 e3       	ldi	r18, 0x34	; 52
    2e6e:	30 e0       	ldi	r19, 0x00	; 0
    2e70:	f9 01       	movw	r30, r18
    2e72:	20 81       	ld	r18, Z
    2e74:	2c 7f       	andi	r18, 0xFC	; 252
    2e76:	fc 01       	movw	r30, r24
    2e78:	20 83       	st	Z, r18
    2e7a:	00 00       	nop
    2e7c:	df 91       	pop	r29
}
    2e7e:	cf 91       	pop	r28
    2e80:	08 95       	ret

00002e82 <led_top_left_bar>:
    2e82:	cf 93       	push	r28
    2e84:	df 93       	push	r29

//This Function calculates the amount of LEDs of the left Top Bar which needs to be turned on
void led_top_left_bar(uint16_t max_value_l, uint16_t min_value_l, uint16_t current_value_l)
{
    2e86:	cd b7       	in	r28, 0x3d	; 61
    2e88:	de b7       	in	r29, 0x3e	; 62
    2e8a:	29 97       	sbiw	r28, 0x09	; 9
    2e8c:	0f b6       	in	r0, 0x3f	; 63
    2e8e:	f8 94       	cli
    2e90:	de bf       	out	0x3e, r29	; 62
    2e92:	0f be       	out	0x3f, r0	; 63
    2e94:	cd bf       	out	0x3d, r28	; 61
    2e96:	9d 83       	std	Y+5, r25	; 0x05
    2e98:	8c 83       	std	Y+4, r24	; 0x04
    2e9a:	7f 83       	std	Y+7, r23	; 0x07
    2e9c:	6e 83       	std	Y+6, r22	; 0x06
    2e9e:	59 87       	std	Y+9, r21	; 0x09
	clear_top_left_bar();
    2ea0:	48 87       	std	Y+8, r20	; 0x08
    2ea2:	c0 df       	rcall	.-128    	; 0x2e24 <clear_top_left_bar>
	uint16_t Top_Left_Bar_Divider = (max_value_l - min_value_l) / (LED_COUNT_TOP_LEFT - 1);
    2ea4:	2c 81       	ldd	r18, Y+4	; 0x04
    2ea6:	3d 81       	ldd	r19, Y+5	; 0x05
    2ea8:	8e 81       	ldd	r24, Y+6	; 0x06
    2eaa:	9f 81       	ldd	r25, Y+7	; 0x07
    2eac:	a9 01       	movw	r20, r18
    2eae:	48 1b       	sub	r20, r24
    2eb0:	59 0b       	sbc	r21, r25
    2eb2:	ca 01       	movw	r24, r20
    2eb4:	96 95       	lsr	r25
    2eb6:	87 95       	ror	r24
    2eb8:	96 95       	lsr	r25
    2eba:	87 95       	ror	r24
    2ebc:	9a 83       	std	Y+2, r25	; 0x02
    2ebe:	89 83       	std	Y+1, r24	; 0x01
	int8_t amount_l = (current_value_l - min_value_l + Top_Left_Bar_Divider) / Top_Left_Bar_Divider;
    2ec0:	28 85       	ldd	r18, Y+8	; 0x08
    2ec2:	39 85       	ldd	r19, Y+9	; 0x09
    2ec4:	8e 81       	ldd	r24, Y+6	; 0x06
    2ec6:	9f 81       	ldd	r25, Y+7	; 0x07
    2ec8:	28 1b       	sub	r18, r24
    2eca:	39 0b       	sbc	r19, r25
    2ecc:	89 81       	ldd	r24, Y+1	; 0x01
    2ece:	9a 81       	ldd	r25, Y+2	; 0x02
    2ed0:	82 0f       	add	r24, r18
    2ed2:	93 1f       	adc	r25, r19
    2ed4:	29 81       	ldd	r18, Y+1	; 0x01
    2ed6:	3a 81       	ldd	r19, Y+2	; 0x02
    2ed8:	b9 01       	movw	r22, r18
    2eda:	61 d3       	rcall	.+1730   	; 0x359e <__udivmodhi4>
    2edc:	cb 01       	movw	r24, r22
    2ede:	8b 83       	std	Y+3, r24	; 0x03
	if (amount_l > 0) {led_left_top_bar_select(amount_l);}
    2ee0:	8b 81       	ldd	r24, Y+3	; 0x03
    2ee2:	18 16       	cp	r1, r24
    2ee4:	1c f4       	brge	.+6      	; 0x2eec <led_top_left_bar+0x6a>
    2ee6:	8b 81       	ldd	r24, Y+3	; 0x03
    2ee8:	54 d0       	rcall	.+168    	; 0x2f92 <led_left_top_bar_select>
	else {led_left_top_bar_select(0);}
}
    2eea:	02 c0       	rjmp	.+4      	; 0x2ef0 <led_top_left_bar+0x6e>
{
	clear_top_left_bar();
	uint16_t Top_Left_Bar_Divider = (max_value_l - min_value_l) / (LED_COUNT_TOP_LEFT - 1);
	int8_t amount_l = (current_value_l - min_value_l + Top_Left_Bar_Divider) / Top_Left_Bar_Divider;
	if (amount_l > 0) {led_left_top_bar_select(amount_l);}
	else {led_left_top_bar_select(0);}
    2eec:	80 e0       	ldi	r24, 0x00	; 0
    2eee:	51 d0       	rcall	.+162    	; 0x2f92 <led_left_top_bar_select>
    2ef0:	00 00       	nop
}
    2ef2:	29 96       	adiw	r28, 0x09	; 9
    2ef4:	0f b6       	in	r0, 0x3f	; 63
    2ef6:	f8 94       	cli
    2ef8:	de bf       	out	0x3e, r29	; 62
    2efa:	0f be       	out	0x3f, r0	; 63
    2efc:	cd bf       	out	0x3d, r28	; 61
    2efe:	df 91       	pop	r29
    2f00:	cf 91       	pop	r28
    2f02:	08 95       	ret

00002f04 <led_top_right_bar>:
    2f04:	cf 93       	push	r28

//This Function calculates the amount of LEDs of the right Top Bar which needs to be turned on
void led_top_right_bar(uint16_t max_value_r, uint16_t min_value_r, uint16_t current_value_r)
{
    2f06:	df 93       	push	r29
    2f08:	cd b7       	in	r28, 0x3d	; 61
    2f0a:	de b7       	in	r29, 0x3e	; 62
    2f0c:	29 97       	sbiw	r28, 0x09	; 9
    2f0e:	0f b6       	in	r0, 0x3f	; 63
    2f10:	f8 94       	cli
    2f12:	de bf       	out	0x3e, r29	; 62
    2f14:	0f be       	out	0x3f, r0	; 63
    2f16:	cd bf       	out	0x3d, r28	; 61
    2f18:	9d 83       	std	Y+5, r25	; 0x05
    2f1a:	8c 83       	std	Y+4, r24	; 0x04
    2f1c:	7f 83       	std	Y+7, r23	; 0x07
    2f1e:	6e 83       	std	Y+6, r22	; 0x06
	clear_top_right_bar();
    2f20:	59 87       	std	Y+9, r21	; 0x09
    2f22:	48 87       	std	Y+8, r20	; 0x08
	uint16_t Top_Right_Bar_Divider = (max_value_r - min_value_r) / (LED_COUNT_TOP_RIGHT - 1);
    2f24:	99 df       	rcall	.-206    	; 0x2e58 <clear_top_right_bar>
    2f26:	2c 81       	ldd	r18, Y+4	; 0x04
    2f28:	3d 81       	ldd	r19, Y+5	; 0x05
    2f2a:	8e 81       	ldd	r24, Y+6	; 0x06
    2f2c:	9f 81       	ldd	r25, Y+7	; 0x07
    2f2e:	a9 01       	movw	r20, r18
    2f30:	48 1b       	sub	r20, r24
    2f32:	59 0b       	sbc	r21, r25
    2f34:	ca 01       	movw	r24, r20
    2f36:	9c 01       	movw	r18, r24
    2f38:	af e8       	ldi	r26, 0x8F	; 143
    2f3a:	b3 ee       	ldi	r27, 0xE3	; 227
    2f3c:	60 d3       	rcall	.+1728   	; 0x35fe <__umulhisi3>
    2f3e:	96 95       	lsr	r25
    2f40:	87 95       	ror	r24
    2f42:	96 95       	lsr	r25
    2f44:	87 95       	ror	r24
    2f46:	96 95       	lsr	r25
    2f48:	87 95       	ror	r24
    2f4a:	9a 83       	std	Y+2, r25	; 0x02
    2f4c:	89 83       	std	Y+1, r24	; 0x01
	int8_t amount_r = (current_value_r - min_value_r + Top_Right_Bar_Divider) / Top_Right_Bar_Divider;
    2f4e:	28 85       	ldd	r18, Y+8	; 0x08
    2f50:	39 85       	ldd	r19, Y+9	; 0x09
    2f52:	8e 81       	ldd	r24, Y+6	; 0x06
    2f54:	9f 81       	ldd	r25, Y+7	; 0x07
    2f56:	28 1b       	sub	r18, r24
    2f58:	39 0b       	sbc	r19, r25
    2f5a:	89 81       	ldd	r24, Y+1	; 0x01
    2f5c:	9a 81       	ldd	r25, Y+2	; 0x02
    2f5e:	82 0f       	add	r24, r18
    2f60:	93 1f       	adc	r25, r19
    2f62:	29 81       	ldd	r18, Y+1	; 0x01
    2f64:	3a 81       	ldd	r19, Y+2	; 0x02
    2f66:	b9 01       	movw	r22, r18
    2f68:	1a d3       	rcall	.+1588   	; 0x359e <__udivmodhi4>
    2f6a:	cb 01       	movw	r24, r22
    2f6c:	8b 83       	std	Y+3, r24	; 0x03
    2f6e:	8b 81       	ldd	r24, Y+3	; 0x03
	if (amount_r > 0) {led_right_top_bar_select(amount_r);}
    2f70:	18 16       	cp	r1, r24
    2f72:	1c f4       	brge	.+6      	; 0x2f7a <led_top_right_bar+0x76>
    2f74:	8b 81       	ldd	r24, Y+3	; 0x03
    2f76:	49 d0       	rcall	.+146    	; 0x300a <led_right_top_bar_select>
    2f78:	02 c0       	rjmp	.+4      	; 0x2f7e <led_top_right_bar+0x7a>
    2f7a:	80 e0       	ldi	r24, 0x00	; 0
	else {led_right_top_bar_select(0);}
}
    2f7c:	46 d0       	rcall	.+140    	; 0x300a <led_right_top_bar_select>
{
	clear_top_right_bar();
	uint16_t Top_Right_Bar_Divider = (max_value_r - min_value_r) / (LED_COUNT_TOP_RIGHT - 1);
	int8_t amount_r = (current_value_r - min_value_r + Top_Right_Bar_Divider) / Top_Right_Bar_Divider;
	if (amount_r > 0) {led_right_top_bar_select(amount_r);}
	else {led_right_top_bar_select(0);}
    2f7e:	00 00       	nop
    2f80:	29 96       	adiw	r28, 0x09	; 9
    2f82:	0f b6       	in	r0, 0x3f	; 63
}
    2f84:	f8 94       	cli
    2f86:	de bf       	out	0x3e, r29	; 62
    2f88:	0f be       	out	0x3f, r0	; 63
    2f8a:	cd bf       	out	0x3d, r28	; 61
    2f8c:	df 91       	pop	r29
    2f8e:	cf 91       	pop	r28
    2f90:	08 95       	ret

00002f92 <led_left_top_bar_select>:
    2f92:	cf 93       	push	r28
    2f94:	df 93       	push	r29
    2f96:	1f 92       	push	r1

//This Function turns on the desired amount of LEDs of the left Top Bar
void led_left_top_bar_select(uint8_t select_l)
{
    2f98:	cd b7       	in	r28, 0x3d	; 61
    2f9a:	de b7       	in	r29, 0x3e	; 62
    2f9c:	89 83       	std	Y+1, r24	; 0x01
    2f9e:	82 e2       	ldi	r24, 0x22	; 34
    2fa0:	90 e0       	ldi	r25, 0x00	; 0
    2fa2:	22 e2       	ldi	r18, 0x22	; 34
	PORTA |= ~(0xFF << select_l) << PA4;
    2fa4:	30 e0       	ldi	r19, 0x00	; 0
    2fa6:	f9 01       	movw	r30, r18
    2fa8:	20 81       	ld	r18, Z
    2faa:	62 2f       	mov	r22, r18
    2fac:	29 81       	ldd	r18, Y+1	; 0x01
    2fae:	42 2f       	mov	r20, r18
    2fb0:	50 e0       	ldi	r21, 0x00	; 0
    2fb2:	2f ef       	ldi	r18, 0xFF	; 255
    2fb4:	30 e0       	ldi	r19, 0x00	; 0
    2fb6:	02 c0       	rjmp	.+4      	; 0x2fbc <led_left_top_bar_select+0x2a>
    2fb8:	22 0f       	add	r18, r18
    2fba:	33 1f       	adc	r19, r19
    2fbc:	4a 95       	dec	r20
    2fbe:	e2 f7       	brpl	.-8      	; 0x2fb8 <led_left_top_bar_select+0x26>
    2fc0:	20 95       	com	r18
    2fc2:	30 95       	com	r19
    2fc4:	22 95       	swap	r18
    2fc6:	32 95       	swap	r19
    2fc8:	30 7f       	andi	r19, 0xF0	; 240
    2fca:	32 27       	eor	r19, r18
    2fcc:	20 7f       	andi	r18, 0xF0	; 240
    2fce:	32 27       	eor	r19, r18
    2fd0:	26 2b       	or	r18, r22
    2fd2:	fc 01       	movw	r30, r24
    2fd4:	20 83       	st	Z, r18
    2fd6:	84 e3       	ldi	r24, 0x34	; 52
    2fd8:	90 e0       	ldi	r25, 0x00	; 0
    2fda:	24 e3       	ldi	r18, 0x34	; 52
	PORTG |= (1<<PG2) & ((0x80) >> select_l);
    2fdc:	30 e0       	ldi	r19, 0x00	; 0
    2fde:	f9 01       	movw	r30, r18
    2fe0:	20 81       	ld	r18, Z
    2fe2:	62 2f       	mov	r22, r18
    2fe4:	29 81       	ldd	r18, Y+1	; 0x01
    2fe6:	42 2f       	mov	r20, r18
    2fe8:	50 e0       	ldi	r21, 0x00	; 0
    2fea:	20 e8       	ldi	r18, 0x80	; 128
    2fec:	30 e0       	ldi	r19, 0x00	; 0
    2fee:	02 c0       	rjmp	.+4      	; 0x2ff4 <led_left_top_bar_select+0x62>
    2ff0:	35 95       	asr	r19
    2ff2:	27 95       	ror	r18
    2ff4:	4a 95       	dec	r20
    2ff6:	e2 f7       	brpl	.-8      	; 0x2ff0 <led_left_top_bar_select+0x5e>
    2ff8:	24 70       	andi	r18, 0x04	; 4
    2ffa:	26 2b       	or	r18, r22
    2ffc:	fc 01       	movw	r30, r24
    2ffe:	20 83       	st	Z, r18
    3000:	00 00       	nop
    3002:	0f 90       	pop	r0
    3004:	df 91       	pop	r29
}
    3006:	cf 91       	pop	r28
    3008:	08 95       	ret

0000300a <led_right_top_bar_select>:
    300a:	cf 93       	push	r28
    300c:	df 93       	push	r29
    300e:	1f 92       	push	r1

//This Function turns on the desired amount of LEDs of the right Top Bar
void led_right_top_bar_select(uint8_t select_r)
{
    3010:	cd b7       	in	r28, 0x3d	; 61
    3012:	de b7       	in	r29, 0x3e	; 62
    3014:	89 83       	std	Y+1, r24	; 0x01
    3016:	88 e2       	ldi	r24, 0x28	; 40
    3018:	90 e0       	ldi	r25, 0x00	; 0
    301a:	28 e2       	ldi	r18, 0x28	; 40
	PORTC |= ~(0xFF >> select_r);
    301c:	30 e0       	ldi	r19, 0x00	; 0
    301e:	f9 01       	movw	r30, r18
    3020:	20 81       	ld	r18, Z
    3022:	62 2f       	mov	r22, r18
    3024:	29 81       	ldd	r18, Y+1	; 0x01
    3026:	42 2f       	mov	r20, r18
    3028:	50 e0       	ldi	r21, 0x00	; 0
    302a:	2f ef       	ldi	r18, 0xFF	; 255
    302c:	30 e0       	ldi	r19, 0x00	; 0
    302e:	02 c0       	rjmp	.+4      	; 0x3034 <led_right_top_bar_select+0x2a>
    3030:	35 95       	asr	r19
    3032:	27 95       	ror	r18
    3034:	4a 95       	dec	r20
    3036:	e2 f7       	brpl	.-8      	; 0x3030 <led_right_top_bar_select+0x26>
    3038:	20 95       	com	r18
    303a:	26 2b       	or	r18, r22
    303c:	fc 01       	movw	r30, r24
    303e:	20 83       	st	Z, r18
    3040:	84 e3       	ldi	r24, 0x34	; 52
    3042:	90 e0       	ldi	r25, 0x00	; 0
    3044:	24 e3       	ldi	r18, 0x34	; 52
	PORTG |= (~(0xFF << (select_r/9)) << (select_r/9)) + (select_r/10);
    3046:	30 e0       	ldi	r19, 0x00	; 0
    3048:	f9 01       	movw	r30, r18
    304a:	20 81       	ld	r18, Z
    304c:	62 2f       	mov	r22, r18
    304e:	39 81       	ldd	r19, Y+1	; 0x01
    3050:	29 e3       	ldi	r18, 0x39	; 57
    3052:	32 9f       	mul	r19, r18
    3054:	21 2d       	mov	r18, r1
    3056:	11 24       	eor	r1, r1
    3058:	26 95       	lsr	r18
    305a:	42 2f       	mov	r20, r18
    305c:	50 e0       	ldi	r21, 0x00	; 0
    305e:	2f ef       	ldi	r18, 0xFF	; 255
    3060:	30 e0       	ldi	r19, 0x00	; 0
    3062:	02 c0       	rjmp	.+4      	; 0x3068 <led_right_top_bar_select+0x5e>
    3064:	22 0f       	add	r18, r18
    3066:	33 1f       	adc	r19, r19
    3068:	4a 95       	dec	r20
    306a:	e2 f7       	brpl	.-8      	; 0x3064 <led_right_top_bar_select+0x5a>
    306c:	20 95       	com	r18
    306e:	30 95       	com	r19
    3070:	59 81       	ldd	r21, Y+1	; 0x01
    3072:	49 e3       	ldi	r20, 0x39	; 57
    3074:	54 9f       	mul	r21, r20
    3076:	41 2d       	mov	r20, r1
    3078:	11 24       	eor	r1, r1
    307a:	46 95       	lsr	r20
    307c:	44 2f       	mov	r20, r20
    307e:	50 e0       	ldi	r21, 0x00	; 0
    3080:	02 c0       	rjmp	.+4      	; 0x3086 <led_right_top_bar_select+0x7c>
    3082:	22 0f       	add	r18, r18
    3084:	33 1f       	adc	r19, r19
    3086:	4a 95       	dec	r20
    3088:	e2 f7       	brpl	.-8      	; 0x3082 <led_right_top_bar_select+0x78>
    308a:	42 2f       	mov	r20, r18
    308c:	39 81       	ldd	r19, Y+1	; 0x01
    308e:	2d ec       	ldi	r18, 0xCD	; 205
    3090:	32 9f       	mul	r19, r18
    3092:	21 2d       	mov	r18, r1
    3094:	11 24       	eor	r1, r1
    3096:	26 95       	lsr	r18
    3098:	26 95       	lsr	r18
    309a:	26 95       	lsr	r18
    309c:	24 0f       	add	r18, r20
    309e:	26 2b       	or	r18, r22
    30a0:	fc 01       	movw	r30, r24
    30a2:	20 83       	st	Z, r18
    30a4:	00 00       	nop
    30a6:	0f 90       	pop	r0
}
    30a8:	df 91       	pop	r29
    30aa:	cf 91       	pop	r28
    30ac:	08 95       	ret

000030ae <led_top_light>:
    30ae:	cf 93       	push	r28
    30b0:	df 93       	push	r29

void led_top_light( uint8_t LED)
{
    30b2:	1f 92       	push	r1
    30b4:	cd b7       	in	r28, 0x3d	; 61
    30b6:	de b7       	in	r29, 0x3e	; 62
    30b8:	89 83       	std	Y+1, r24	; 0x01
    30ba:	89 81       	ldd	r24, Y+1	; 0x01
    30bc:	88 2f       	mov	r24, r24
	
		switch(LED){
    30be:	90 e0       	ldi	r25, 0x00	; 0
    30c0:	09 2e       	mov	r0, r25
    30c2:	00 0c       	add	r0, r0
    30c4:	aa 0b       	sbc	r26, r26
    30c6:	bb 0b       	sbc	r27, r27
    30c8:	40 e0       	ldi	r20, 0x00	; 0
    30ca:	50 e0       	ldi	r21, 0x00	; 0
    30cc:	2e e0       	ldi	r18, 0x0E	; 14
    30ce:	30 e0       	ldi	r19, 0x00	; 0
    30d0:	84 1b       	sub	r24, r20
    30d2:	95 0b       	sbc	r25, r21
    30d4:	28 17       	cp	r18, r24
    30d6:	39 07       	cpc	r19, r25
    30d8:	08 f4       	brcc	.+2      	; 0x30dc <led_top_light+0x2e>
    30da:	9a c0       	rjmp	.+308    	; 0x3210 <led_top_light+0x162>
    30dc:	86 58       	subi	r24, 0x86	; 134
    30de:	9f 4f       	sbci	r25, 0xFF	; 255
    30e0:	fc 01       	movw	r30, r24
    30e2:	84 c2       	rjmp	.+1288   	; 0x35ec <__tablejump2__>
    30e4:	82 e2       	ldi	r24, 0x22	; 34
    30e6:	90 e0       	ldi	r25, 0x00	; 0
    30e8:	22 e2       	ldi	r18, 0x22	; 34
			
			case 0: {PORTA |= (1<<PA4); break;}
    30ea:	30 e0       	ldi	r19, 0x00	; 0
    30ec:	f9 01       	movw	r30, r18
    30ee:	20 81       	ld	r18, Z
    30f0:	20 61       	ori	r18, 0x10	; 16
    30f2:	fc 01       	movw	r30, r24
    30f4:	20 83       	st	Z, r18
    30f6:	8c c0       	rjmp	.+280    	; 0x3210 <led_top_light+0x162>
    30f8:	82 e2       	ldi	r24, 0x22	; 34
    30fa:	90 e0       	ldi	r25, 0x00	; 0
    30fc:	22 e2       	ldi	r18, 0x22	; 34
			case 1: {PORTA |= (1<<PA5); break;}	
    30fe:	30 e0       	ldi	r19, 0x00	; 0
    3100:	f9 01       	movw	r30, r18
    3102:	20 81       	ld	r18, Z
    3104:	20 62       	ori	r18, 0x20	; 32
    3106:	fc 01       	movw	r30, r24
    3108:	20 83       	st	Z, r18
    310a:	82 c0       	rjmp	.+260    	; 0x3210 <led_top_light+0x162>
    310c:	82 e2       	ldi	r24, 0x22	; 34
    310e:	90 e0       	ldi	r25, 0x00	; 0
    3110:	22 e2       	ldi	r18, 0x22	; 34
			case 2: {PORTA |= (1<<PA6); break;}
    3112:	30 e0       	ldi	r19, 0x00	; 0
    3114:	f9 01       	movw	r30, r18
    3116:	20 81       	ld	r18, Z
    3118:	20 64       	ori	r18, 0x40	; 64
    311a:	fc 01       	movw	r30, r24
    311c:	20 83       	st	Z, r18
    311e:	78 c0       	rjmp	.+240    	; 0x3210 <led_top_light+0x162>
    3120:	82 e2       	ldi	r24, 0x22	; 34
    3122:	90 e0       	ldi	r25, 0x00	; 0
    3124:	22 e2       	ldi	r18, 0x22	; 34
			case 3: {PORTA |= (1<<PA7); break;}
    3126:	30 e0       	ldi	r19, 0x00	; 0
    3128:	f9 01       	movw	r30, r18
    312a:	20 81       	ld	r18, Z
    312c:	20 68       	ori	r18, 0x80	; 128
    312e:	fc 01       	movw	r30, r24
    3130:	20 83       	st	Z, r18
    3132:	6e c0       	rjmp	.+220    	; 0x3210 <led_top_light+0x162>
    3134:	84 e3       	ldi	r24, 0x34	; 52
    3136:	90 e0       	ldi	r25, 0x00	; 0
    3138:	24 e3       	ldi	r18, 0x34	; 52
			case 4: {PORTG |= (1<<PG2); break;}
    313a:	30 e0       	ldi	r19, 0x00	; 0
    313c:	f9 01       	movw	r30, r18
    313e:	20 81       	ld	r18, Z
    3140:	24 60       	ori	r18, 0x04	; 4
    3142:	fc 01       	movw	r30, r24
    3144:	20 83       	st	Z, r18
    3146:	64 c0       	rjmp	.+200    	; 0x3210 <led_top_light+0x162>
    3148:	88 e2       	ldi	r24, 0x28	; 40
    314a:	90 e0       	ldi	r25, 0x00	; 0
    314c:	28 e2       	ldi	r18, 0x28	; 40
			case 5: {PORTC |= (1<<PC7); break;}
    314e:	30 e0       	ldi	r19, 0x00	; 0
    3150:	f9 01       	movw	r30, r18
    3152:	20 81       	ld	r18, Z
    3154:	20 68       	ori	r18, 0x80	; 128
    3156:	fc 01       	movw	r30, r24
    3158:	20 83       	st	Z, r18
    315a:	5a c0       	rjmp	.+180    	; 0x3210 <led_top_light+0x162>
    315c:	88 e2       	ldi	r24, 0x28	; 40
    315e:	90 e0       	ldi	r25, 0x00	; 0
    3160:	28 e2       	ldi	r18, 0x28	; 40
			case 6: {PORTC |= (1<<PC6); break;}
    3162:	30 e0       	ldi	r19, 0x00	; 0
    3164:	f9 01       	movw	r30, r18
    3166:	20 81       	ld	r18, Z
    3168:	20 64       	ori	r18, 0x40	; 64
    316a:	fc 01       	movw	r30, r24
    316c:	20 83       	st	Z, r18
    316e:	50 c0       	rjmp	.+160    	; 0x3210 <led_top_light+0x162>
    3170:	88 e2       	ldi	r24, 0x28	; 40
    3172:	90 e0       	ldi	r25, 0x00	; 0
    3174:	28 e2       	ldi	r18, 0x28	; 40
			case 7: {PORTC |= (1<<PC5); break;}
    3176:	30 e0       	ldi	r19, 0x00	; 0
    3178:	f9 01       	movw	r30, r18
    317a:	20 81       	ld	r18, Z
    317c:	20 62       	ori	r18, 0x20	; 32
    317e:	fc 01       	movw	r30, r24
    3180:	20 83       	st	Z, r18
    3182:	46 c0       	rjmp	.+140    	; 0x3210 <led_top_light+0x162>
    3184:	88 e2       	ldi	r24, 0x28	; 40
    3186:	90 e0       	ldi	r25, 0x00	; 0
    3188:	28 e2       	ldi	r18, 0x28	; 40
			case 8: {PORTC |= (1<<PC4); break;}
    318a:	30 e0       	ldi	r19, 0x00	; 0
    318c:	f9 01       	movw	r30, r18
    318e:	20 81       	ld	r18, Z
    3190:	20 61       	ori	r18, 0x10	; 16
    3192:	fc 01       	movw	r30, r24
    3194:	20 83       	st	Z, r18
    3196:	3c c0       	rjmp	.+120    	; 0x3210 <led_top_light+0x162>
    3198:	88 e2       	ldi	r24, 0x28	; 40
    319a:	90 e0       	ldi	r25, 0x00	; 0
    319c:	28 e2       	ldi	r18, 0x28	; 40
			case 9: {PORTC |= (1<<PC3); break;}
    319e:	30 e0       	ldi	r19, 0x00	; 0
    31a0:	f9 01       	movw	r30, r18
    31a2:	20 81       	ld	r18, Z
    31a4:	28 60       	ori	r18, 0x08	; 8
    31a6:	fc 01       	movw	r30, r24
    31a8:	20 83       	st	Z, r18
    31aa:	32 c0       	rjmp	.+100    	; 0x3210 <led_top_light+0x162>
    31ac:	88 e2       	ldi	r24, 0x28	; 40
    31ae:	90 e0       	ldi	r25, 0x00	; 0
    31b0:	28 e2       	ldi	r18, 0x28	; 40
			case 10: {PORTC |= (1<<PC2); break;}
    31b2:	30 e0       	ldi	r19, 0x00	; 0
    31b4:	f9 01       	movw	r30, r18
    31b6:	20 81       	ld	r18, Z
    31b8:	24 60       	ori	r18, 0x04	; 4
    31ba:	fc 01       	movw	r30, r24
    31bc:	20 83       	st	Z, r18
    31be:	28 c0       	rjmp	.+80     	; 0x3210 <led_top_light+0x162>
    31c0:	88 e2       	ldi	r24, 0x28	; 40
    31c2:	90 e0       	ldi	r25, 0x00	; 0
    31c4:	28 e2       	ldi	r18, 0x28	; 40
			case 11: {PORTC |= (1<<PC1); break;}
    31c6:	30 e0       	ldi	r19, 0x00	; 0
    31c8:	f9 01       	movw	r30, r18
    31ca:	20 81       	ld	r18, Z
    31cc:	22 60       	ori	r18, 0x02	; 2
    31ce:	fc 01       	movw	r30, r24
    31d0:	20 83       	st	Z, r18
    31d2:	1e c0       	rjmp	.+60     	; 0x3210 <led_top_light+0x162>
    31d4:	88 e2       	ldi	r24, 0x28	; 40
    31d6:	90 e0       	ldi	r25, 0x00	; 0
    31d8:	28 e2       	ldi	r18, 0x28	; 40
			case 12: {PORTC |= (1<<PC0); break;}
    31da:	30 e0       	ldi	r19, 0x00	; 0
    31dc:	f9 01       	movw	r30, r18
    31de:	20 81       	ld	r18, Z
    31e0:	21 60       	ori	r18, 0x01	; 1
    31e2:	fc 01       	movw	r30, r24
    31e4:	20 83       	st	Z, r18
    31e6:	14 c0       	rjmp	.+40     	; 0x3210 <led_top_light+0x162>
    31e8:	84 e3       	ldi	r24, 0x34	; 52
    31ea:	90 e0       	ldi	r25, 0x00	; 0
			case 13: {PORTG |= (1<<PG1); break;}
    31ec:	24 e3       	ldi	r18, 0x34	; 52
    31ee:	30 e0       	ldi	r19, 0x00	; 0
    31f0:	f9 01       	movw	r30, r18
    31f2:	20 81       	ld	r18, Z
    31f4:	22 60       	ori	r18, 0x02	; 2
    31f6:	fc 01       	movw	r30, r24
    31f8:	20 83       	st	Z, r18
    31fa:	0a c0       	rjmp	.+20     	; 0x3210 <led_top_light+0x162>
    31fc:	84 e3       	ldi	r24, 0x34	; 52
    31fe:	90 e0       	ldi	r25, 0x00	; 0
			case 14: {PORTG |= (1<<PG0); break;}
    3200:	24 e3       	ldi	r18, 0x34	; 52
    3202:	30 e0       	ldi	r19, 0x00	; 0
    3204:	f9 01       	movw	r30, r18
    3206:	20 81       	ld	r18, Z
    3208:	21 60       	ori	r18, 0x01	; 1
    320a:	fc 01       	movw	r30, r24
    320c:	20 83       	st	Z, r18
    320e:	00 00       	nop
    3210:	00 00       	nop
    3212:	0f 90       	pop	r0
		}

	
}
    3214:	df 91       	pop	r29
    3216:	cf 91       	pop	r28
    3218:	08 95       	ret

0000321a <led_top_clear>:
    321a:	cf 93       	push	r28
    321c:	df 93       	push	r29

void led_top_clear( uint8_t LED)
{
    321e:	1f 92       	push	r1
    3220:	cd b7       	in	r28, 0x3d	; 61
    3222:	de b7       	in	r29, 0x3e	; 62
    3224:	89 83       	std	Y+1, r24	; 0x01
    3226:	89 81       	ldd	r24, Y+1	; 0x01
    3228:	88 2f       	mov	r24, r24
	
	switch(LED){
    322a:	90 e0       	ldi	r25, 0x00	; 0
    322c:	09 2e       	mov	r0, r25
    322e:	00 0c       	add	r0, r0
    3230:	aa 0b       	sbc	r26, r26
    3232:	bb 0b       	sbc	r27, r27
    3234:	40 e0       	ldi	r20, 0x00	; 0
    3236:	50 e0       	ldi	r21, 0x00	; 0
    3238:	2e e0       	ldi	r18, 0x0E	; 14
    323a:	30 e0       	ldi	r19, 0x00	; 0
    323c:	84 1b       	sub	r24, r20
    323e:	95 0b       	sbc	r25, r21
    3240:	28 17       	cp	r18, r24
    3242:	39 07       	cpc	r19, r25
    3244:	08 f4       	brcc	.+2      	; 0x3248 <led_top_clear+0x2e>
    3246:	9a c0       	rjmp	.+308    	; 0x337c <led_top_clear+0x162>
    3248:	87 57       	subi	r24, 0x77	; 119
    324a:	9f 4f       	sbci	r25, 0xFF	; 255
    324c:	fc 01       	movw	r30, r24
    324e:	ce c1       	rjmp	.+924    	; 0x35ec <__tablejump2__>
    3250:	82 e2       	ldi	r24, 0x22	; 34
    3252:	90 e0       	ldi	r25, 0x00	; 0
    3254:	22 e2       	ldi	r18, 0x22	; 34
		
		case 0: {PORTA &= (1<<PA4); break;}
    3256:	30 e0       	ldi	r19, 0x00	; 0
    3258:	f9 01       	movw	r30, r18
    325a:	20 81       	ld	r18, Z
    325c:	20 71       	andi	r18, 0x10	; 16
    325e:	fc 01       	movw	r30, r24
    3260:	20 83       	st	Z, r18
    3262:	8c c0       	rjmp	.+280    	; 0x337c <led_top_clear+0x162>
    3264:	82 e2       	ldi	r24, 0x22	; 34
    3266:	90 e0       	ldi	r25, 0x00	; 0
    3268:	22 e2       	ldi	r18, 0x22	; 34
		case 1: {PORTA &= (1<<PA5); break;}
    326a:	30 e0       	ldi	r19, 0x00	; 0
    326c:	f9 01       	movw	r30, r18
    326e:	20 81       	ld	r18, Z
    3270:	20 72       	andi	r18, 0x20	; 32
    3272:	fc 01       	movw	r30, r24
    3274:	20 83       	st	Z, r18
    3276:	82 c0       	rjmp	.+260    	; 0x337c <led_top_clear+0x162>
    3278:	82 e2       	ldi	r24, 0x22	; 34
    327a:	90 e0       	ldi	r25, 0x00	; 0
    327c:	22 e2       	ldi	r18, 0x22	; 34
		case 2: {PORTA &= (1<<PA6); break;}
    327e:	30 e0       	ldi	r19, 0x00	; 0
    3280:	f9 01       	movw	r30, r18
    3282:	20 81       	ld	r18, Z
    3284:	20 74       	andi	r18, 0x40	; 64
    3286:	fc 01       	movw	r30, r24
    3288:	20 83       	st	Z, r18
    328a:	78 c0       	rjmp	.+240    	; 0x337c <led_top_clear+0x162>
    328c:	82 e2       	ldi	r24, 0x22	; 34
    328e:	90 e0       	ldi	r25, 0x00	; 0
    3290:	22 e2       	ldi	r18, 0x22	; 34
		case 3: {PORTA &= (1<<PA7); break;}
    3292:	30 e0       	ldi	r19, 0x00	; 0
    3294:	f9 01       	movw	r30, r18
    3296:	20 81       	ld	r18, Z
    3298:	20 78       	andi	r18, 0x80	; 128
    329a:	fc 01       	movw	r30, r24
    329c:	20 83       	st	Z, r18
    329e:	6e c0       	rjmp	.+220    	; 0x337c <led_top_clear+0x162>
    32a0:	84 e3       	ldi	r24, 0x34	; 52
    32a2:	90 e0       	ldi	r25, 0x00	; 0
    32a4:	24 e3       	ldi	r18, 0x34	; 52
		case 4: {PORTG &= (1<<PG2); break;}
    32a6:	30 e0       	ldi	r19, 0x00	; 0
    32a8:	f9 01       	movw	r30, r18
    32aa:	20 81       	ld	r18, Z
    32ac:	24 70       	andi	r18, 0x04	; 4
    32ae:	fc 01       	movw	r30, r24
    32b0:	20 83       	st	Z, r18
    32b2:	64 c0       	rjmp	.+200    	; 0x337c <led_top_clear+0x162>
    32b4:	88 e2       	ldi	r24, 0x28	; 40
    32b6:	90 e0       	ldi	r25, 0x00	; 0
    32b8:	28 e2       	ldi	r18, 0x28	; 40
		case 5: {PORTC &= (1<<PC7); break;}
    32ba:	30 e0       	ldi	r19, 0x00	; 0
    32bc:	f9 01       	movw	r30, r18
    32be:	20 81       	ld	r18, Z
    32c0:	20 78       	andi	r18, 0x80	; 128
    32c2:	fc 01       	movw	r30, r24
    32c4:	20 83       	st	Z, r18
    32c6:	5a c0       	rjmp	.+180    	; 0x337c <led_top_clear+0x162>
    32c8:	88 e2       	ldi	r24, 0x28	; 40
    32ca:	90 e0       	ldi	r25, 0x00	; 0
    32cc:	28 e2       	ldi	r18, 0x28	; 40
		case 6: {PORTC &= (1<<PC6); break;}
    32ce:	30 e0       	ldi	r19, 0x00	; 0
    32d0:	f9 01       	movw	r30, r18
    32d2:	20 81       	ld	r18, Z
    32d4:	20 74       	andi	r18, 0x40	; 64
    32d6:	fc 01       	movw	r30, r24
    32d8:	20 83       	st	Z, r18
    32da:	50 c0       	rjmp	.+160    	; 0x337c <led_top_clear+0x162>
    32dc:	88 e2       	ldi	r24, 0x28	; 40
    32de:	90 e0       	ldi	r25, 0x00	; 0
    32e0:	28 e2       	ldi	r18, 0x28	; 40
		case 7: {PORTC &= (1<<PC5); break;}
    32e2:	30 e0       	ldi	r19, 0x00	; 0
    32e4:	f9 01       	movw	r30, r18
    32e6:	20 81       	ld	r18, Z
    32e8:	20 72       	andi	r18, 0x20	; 32
    32ea:	fc 01       	movw	r30, r24
    32ec:	20 83       	st	Z, r18
    32ee:	46 c0       	rjmp	.+140    	; 0x337c <led_top_clear+0x162>
    32f0:	88 e2       	ldi	r24, 0x28	; 40
    32f2:	90 e0       	ldi	r25, 0x00	; 0
    32f4:	28 e2       	ldi	r18, 0x28	; 40
		case 8: {PORTC &= (1<<PC4); break;}
    32f6:	30 e0       	ldi	r19, 0x00	; 0
    32f8:	f9 01       	movw	r30, r18
    32fa:	20 81       	ld	r18, Z
    32fc:	20 71       	andi	r18, 0x10	; 16
    32fe:	fc 01       	movw	r30, r24
    3300:	20 83       	st	Z, r18
    3302:	3c c0       	rjmp	.+120    	; 0x337c <led_top_clear+0x162>
    3304:	88 e2       	ldi	r24, 0x28	; 40
    3306:	90 e0       	ldi	r25, 0x00	; 0
    3308:	28 e2       	ldi	r18, 0x28	; 40
		case 9: {PORTC &= (1<<PC3); break;}
    330a:	30 e0       	ldi	r19, 0x00	; 0
    330c:	f9 01       	movw	r30, r18
    330e:	20 81       	ld	r18, Z
    3310:	28 70       	andi	r18, 0x08	; 8
    3312:	fc 01       	movw	r30, r24
    3314:	20 83       	st	Z, r18
    3316:	32 c0       	rjmp	.+100    	; 0x337c <led_top_clear+0x162>
    3318:	88 e2       	ldi	r24, 0x28	; 40
    331a:	90 e0       	ldi	r25, 0x00	; 0
    331c:	28 e2       	ldi	r18, 0x28	; 40
		case 10: {PORTC &= (1<<PC2); break;}
    331e:	30 e0       	ldi	r19, 0x00	; 0
    3320:	f9 01       	movw	r30, r18
    3322:	20 81       	ld	r18, Z
    3324:	24 70       	andi	r18, 0x04	; 4
    3326:	fc 01       	movw	r30, r24
    3328:	20 83       	st	Z, r18
    332a:	28 c0       	rjmp	.+80     	; 0x337c <led_top_clear+0x162>
    332c:	88 e2       	ldi	r24, 0x28	; 40
    332e:	90 e0       	ldi	r25, 0x00	; 0
    3330:	28 e2       	ldi	r18, 0x28	; 40
		case 11: {PORTC &= (1<<PC1); break;}
    3332:	30 e0       	ldi	r19, 0x00	; 0
    3334:	f9 01       	movw	r30, r18
    3336:	20 81       	ld	r18, Z
    3338:	22 70       	andi	r18, 0x02	; 2
    333a:	fc 01       	movw	r30, r24
    333c:	20 83       	st	Z, r18
    333e:	1e c0       	rjmp	.+60     	; 0x337c <led_top_clear+0x162>
    3340:	88 e2       	ldi	r24, 0x28	; 40
    3342:	90 e0       	ldi	r25, 0x00	; 0
    3344:	28 e2       	ldi	r18, 0x28	; 40
		case 12: {PORTC &= (1<<PC0); break;}
    3346:	30 e0       	ldi	r19, 0x00	; 0
    3348:	f9 01       	movw	r30, r18
    334a:	20 81       	ld	r18, Z
    334c:	21 70       	andi	r18, 0x01	; 1
    334e:	fc 01       	movw	r30, r24
    3350:	20 83       	st	Z, r18
    3352:	14 c0       	rjmp	.+40     	; 0x337c <led_top_clear+0x162>
    3354:	84 e3       	ldi	r24, 0x34	; 52
    3356:	90 e0       	ldi	r25, 0x00	; 0
    3358:	24 e3       	ldi	r18, 0x34	; 52
		case 13: {PORTG &= (1<<PG1); break;}
    335a:	30 e0       	ldi	r19, 0x00	; 0
    335c:	f9 01       	movw	r30, r18
    335e:	20 81       	ld	r18, Z
    3360:	22 70       	andi	r18, 0x02	; 2
    3362:	fc 01       	movw	r30, r24
    3364:	20 83       	st	Z, r18
    3366:	0a c0       	rjmp	.+20     	; 0x337c <led_top_clear+0x162>
    3368:	84 e3       	ldi	r24, 0x34	; 52
    336a:	90 e0       	ldi	r25, 0x00	; 0
    336c:	24 e3       	ldi	r18, 0x34	; 52
		case 14: {PORTG &= (1<<PG0); break;}
    336e:	30 e0       	ldi	r19, 0x00	; 0
    3370:	f9 01       	movw	r30, r18
    3372:	20 81       	ld	r18, Z
    3374:	21 70       	andi	r18, 0x01	; 1
    3376:	fc 01       	movw	r30, r24
    3378:	20 83       	st	Z, r18
    337a:	00 00       	nop
    337c:	00 00       	nop
    337e:	0f 90       	pop	r0
		
	}

	
}
    3380:	df 91       	pop	r29
    3382:	cf 91       	pop	r28
    3384:	08 95       	ret

00003386 <bms_error>:
    3386:	cf 93       	push	r28

void bms_error(uint8_t error)
{
    3388:	df 93       	push	r29
    338a:	1f 92       	push	r1
    338c:	cd b7       	in	r28, 0x3d	; 61
    338e:	de b7       	in	r29, 0x3e	; 62
    3390:	89 83       	std	Y+1, r24	; 0x01
	switch (error)
    3392:	89 81       	ldd	r24, Y+1	; 0x01
    3394:	88 2f       	mov	r24, r24
    3396:	90 e0       	ldi	r25, 0x00	; 0
    3398:	00 97       	sbiw	r24, 0x00	; 0
    339a:	19 f0       	breq	.+6      	; 0x33a2 <bms_error+0x1c>
    339c:	01 97       	sbiw	r24, 0x01	; 1
	{
		case 0: {PORTD &= (0b01100000); break;}	//Every 1 in this number represents an Pin which is connected to the bottom LED bar, 0 = on
		case 1: {PORTD |= (0b10011111); break;}	//Every 1 in this number represents an Pin which is connected to the bottom LED bar, 1 = on
	}
}
    339e:	59 f0       	breq	.+22     	; 0x33b6 <bms_error+0x30>

void bms_error(uint8_t error)
{
	switch (error)
	{
		case 0: {PORTD &= (0b01100000); break;}	//Every 1 in this number represents an Pin which is connected to the bottom LED bar, 0 = on
    33a0:	14 c0       	rjmp	.+40     	; 0x33ca <bms_error+0x44>
    33a2:	8b e2       	ldi	r24, 0x2B	; 43
    33a4:	90 e0       	ldi	r25, 0x00	; 0
    33a6:	2b e2       	ldi	r18, 0x2B	; 43
    33a8:	30 e0       	ldi	r19, 0x00	; 0
    33aa:	f9 01       	movw	r30, r18
    33ac:	20 81       	ld	r18, Z
    33ae:	20 76       	andi	r18, 0x60	; 96
		case 1: {PORTD |= (0b10011111); break;}	//Every 1 in this number represents an Pin which is connected to the bottom LED bar, 1 = on
    33b0:	fc 01       	movw	r30, r24
    33b2:	20 83       	st	Z, r18
    33b4:	0a c0       	rjmp	.+20     	; 0x33ca <bms_error+0x44>
    33b6:	8b e2       	ldi	r24, 0x2B	; 43
    33b8:	90 e0       	ldi	r25, 0x00	; 0
    33ba:	2b e2       	ldi	r18, 0x2B	; 43
    33bc:	30 e0       	ldi	r19, 0x00	; 0
    33be:	f9 01       	movw	r30, r18
    33c0:	20 81       	ld	r18, Z
    33c2:	2f 69       	ori	r18, 0x9F	; 159
	}
}
    33c4:	fc 01       	movw	r30, r24
    33c6:	20 83       	st	Z, r18
    33c8:	00 00       	nop
    33ca:	00 00       	nop
    33cc:	0f 90       	pop	r0

void led_startup_animation(uint8_t frame)
{
    33ce:	df 91       	pop	r29
    33d0:	cf 91       	pop	r28
    33d2:	08 95       	ret

000033d4 <led_startup_animation>:
    33d4:	cf 93       	push	r28
    33d6:	df 93       	push	r29
    33d8:	1f 92       	push	r1
	
			led_top_light(7+frame);
    33da:	cd b7       	in	r28, 0x3d	; 61
    33dc:	de b7       	in	r29, 0x3e	; 62
    33de:	89 83       	std	Y+1, r24	; 0x01
    33e0:	89 81       	ldd	r24, Y+1	; 0x01
			led_top_light(7-frame);
    33e2:	89 5f       	subi	r24, 0xF9	; 249
    33e4:	64 de       	rcall	.-824    	; 0x30ae <led_top_light>
    33e6:	97 e0       	ldi	r25, 0x07	; 7
    33e8:	89 81       	ldd	r24, Y+1	; 0x01
    33ea:	29 2f       	mov	r18, r25
    33ec:	28 1b       	sub	r18, r24
    33ee:	82 2f       	mov	r24, r18
			
				

			if(frame >= 8)
    33f0:	5e de       	rcall	.-836    	; 0x30ae <led_top_light>
    33f2:	89 81       	ldd	r24, Y+1	; 0x01
    33f4:	88 30       	cpi	r24, 0x08	; 8
			{
				pre_defined_led_colors(PE_GREEN);
    33f6:	10 f0       	brcs	.+4      	; 0x33fc <led_startup_animation+0x28>
    33f8:	82 e0       	ldi	r24, 0x02	; 2
    33fa:	3e dc       	rcall	.-1924   	; 0x2c78 <pre_defined_led_colors>
			}
			
			if(frame >= 9)
    33fc:	89 81       	ldd	r24, Y+1	; 0x01
    33fe:	89 30       	cpi	r24, 0x09	; 9
    3400:	10 f0       	brcs	.+4      	; 0x3406 <led_startup_animation+0x32>
			{
				bms_error(1);
    3402:	81 e0       	ldi	r24, 0x01	; 1
    3404:	c0 df       	rcall	.-128    	; 0x3386 <bms_error>
    3406:	89 81       	ldd	r24, Y+1	; 0x01
			} 
			
			if(frame >= 14)
    3408:	8e 30       	cpi	r24, 0x0E	; 14
    340a:	20 f0       	brcs	.+8      	; 0x3414 <led_startup_animation+0x40>
    340c:	87 e0       	ldi	r24, 0x07	; 7
			{
				pre_defined_led_colors(PE_OFF);
    340e:	34 dc       	rcall	.-1944   	; 0x2c78 <pre_defined_led_colors>
    3410:	80 e0       	ldi	r24, 0x00	; 0
    3412:	b9 df       	rcall	.-142    	; 0x3386 <bms_error>
				bms_error(0);
    3414:	00 00       	nop
    3416:	0f 90       	pop	r0
    3418:	df 91       	pop	r29
					led_top_clear(7 + (frame - 2));
					led_top_clear(7 - (frame + 2));
				}
				*/
		
}
    341a:	cf 91       	pop	r28
    341c:	08 95       	ret

0000341e <port_config>:
    341e:	cf 93       	push	r28
    3420:	df 93       	push	r29
    3422:	cd b7       	in	r28, 0x3d	; 61
    3424:	de b7       	in	r29, 0x3e	; 62
    3426:	81 e2       	ldi	r24, 0x21	; 33
    3428:	90 e0       	ldi	r25, 0x00	; 0
    342a:	21 e2       	ldi	r18, 0x21	; 33
    342c:	30 e0       	ldi	r19, 0x00	; 0
    342e:	f9 01       	movw	r30, r18
    3430:	20 81       	ld	r18, Z
    3432:	2c 6f       	ori	r18, 0xFC	; 252
    3434:	fc 01       	movw	r30, r24
    3436:	20 83       	st	Z, r18
    3438:	81 e2       	ldi	r24, 0x21	; 33
    343a:	90 e0       	ldi	r25, 0x00	; 0
    343c:	21 e2       	ldi	r18, 0x21	; 33
    343e:	30 e0       	ldi	r19, 0x00	; 0
    3440:	f9 01       	movw	r30, r18
    3442:	20 81       	ld	r18, Z
    3444:	2c 7f       	andi	r18, 0xFC	; 252
    3446:	fc 01       	movw	r30, r24
    3448:	20 83       	st	Z, r18
    344a:	84 e2       	ldi	r24, 0x24	; 36
    344c:	90 e0       	ldi	r25, 0x00	; 0
    344e:	24 e2       	ldi	r18, 0x24	; 36
    3450:	30 e0       	ldi	r19, 0x00	; 0
    3452:	f9 01       	movw	r30, r18
    3454:	20 81       	ld	r18, Z
    3456:	26 6f       	ori	r18, 0xF6	; 246
    3458:	fc 01       	movw	r30, r24
    345a:	20 83       	st	Z, r18
    345c:	84 e2       	ldi	r24, 0x24	; 36
    345e:	90 e0       	ldi	r25, 0x00	; 0
    3460:	24 e2       	ldi	r18, 0x24	; 36
    3462:	30 e0       	ldi	r19, 0x00	; 0
    3464:	f9 01       	movw	r30, r18
    3466:	20 81       	ld	r18, Z
    3468:	27 7f       	andi	r18, 0xF7	; 247
    346a:	fc 01       	movw	r30, r24
    346c:	20 83       	st	Z, r18
    346e:	87 e2       	ldi	r24, 0x27	; 39
    3470:	90 e0       	ldi	r25, 0x00	; 0
    3472:	2f ef       	ldi	r18, 0xFF	; 255
    3474:	fc 01       	movw	r30, r24
    3476:	20 83       	st	Z, r18
    3478:	8a e2       	ldi	r24, 0x2A	; 42
    347a:	90 e0       	ldi	r25, 0x00	; 0
    347c:	2a e2       	ldi	r18, 0x2A	; 42
    347e:	30 e0       	ldi	r19, 0x00	; 0
    3480:	f9 01       	movw	r30, r18
    3482:	20 81       	ld	r18, Z
    3484:	2f 69       	ori	r18, 0x9F	; 159
    3486:	fc 01       	movw	r30, r24
    3488:	20 83       	st	Z, r18
    348a:	8d e2       	ldi	r24, 0x2D	; 45
    348c:	90 e0       	ldi	r25, 0x00	; 0
    348e:	2f ef       	ldi	r18, 0xFF	; 255
    3490:	fc 01       	movw	r30, r24
    3492:	20 83       	st	Z, r18
    3494:	80 e3       	ldi	r24, 0x30	; 48
    3496:	90 e0       	ldi	r25, 0x00	; 0
    3498:	20 e3       	ldi	r18, 0x30	; 48
    349a:	30 e0       	ldi	r19, 0x00	; 0
    349c:	f9 01       	movw	r30, r18
    349e:	20 81       	ld	r18, Z
    34a0:	21 7f       	andi	r18, 0xF1	; 241
    34a2:	fc 01       	movw	r30, r24
    34a4:	20 83       	st	Z, r18
    34a6:	83 e3       	ldi	r24, 0x33	; 51
    34a8:	90 e0       	ldi	r25, 0x00	; 0
    34aa:	23 e3       	ldi	r18, 0x33	; 51
    34ac:	30 e0       	ldi	r19, 0x00	; 0
    34ae:	f9 01       	movw	r30, r18
    34b0:	20 81       	ld	r18, Z
    34b2:	2f 61       	ori	r18, 0x1F	; 31
    34b4:	fc 01       	movw	r30, r24
    34b6:	20 83       	st	Z, r18
    34b8:	82 e2       	ldi	r24, 0x22	; 34
    34ba:	90 e0       	ldi	r25, 0x00	; 0
    34bc:	fc 01       	movw	r30, r24
    34be:	10 82       	st	Z, r1
    34c0:	85 e2       	ldi	r24, 0x25	; 37
    34c2:	90 e0       	ldi	r25, 0x00	; 0
    34c4:	fc 01       	movw	r30, r24
    34c6:	10 82       	st	Z, r1
    34c8:	88 e2       	ldi	r24, 0x28	; 40
    34ca:	90 e0       	ldi	r25, 0x00	; 0
    34cc:	fc 01       	movw	r30, r24
    34ce:	10 82       	st	Z, r1
    34d0:	8b e2       	ldi	r24, 0x2B	; 43
    34d2:	90 e0       	ldi	r25, 0x00	; 0
    34d4:	fc 01       	movw	r30, r24
    34d6:	10 82       	st	Z, r1
    34d8:	8e e2       	ldi	r24, 0x2E	; 46
    34da:	90 e0       	ldi	r25, 0x00	; 0
    34dc:	fc 01       	movw	r30, r24
    34de:	10 82       	st	Z, r1
    34e0:	81 e3       	ldi	r24, 0x31	; 49
    34e2:	90 e0       	ldi	r25, 0x00	; 0
    34e4:	fc 01       	movw	r30, r24
    34e6:	10 82       	st	Z, r1
    34e8:	84 e3       	ldi	r24, 0x34	; 52
    34ea:	90 e0       	ldi	r25, 0x00	; 0
    34ec:	fc 01       	movw	r30, r24
    34ee:	10 82       	st	Z, r1
    34f0:	82 e2       	ldi	r24, 0x22	; 34
    34f2:	90 e0       	ldi	r25, 0x00	; 0
    34f4:	22 e2       	ldi	r18, 0x22	; 34
    34f6:	30 e0       	ldi	r19, 0x00	; 0
    34f8:	f9 01       	movw	r30, r18
    34fa:	20 81       	ld	r18, Z
    34fc:	23 60       	ori	r18, 0x03	; 3
    34fe:	fc 01       	movw	r30, r24
    3500:	20 83       	st	Z, r18
    3502:	00 00       	nop
    3504:	df 91       	pop	r29
    3506:	cf 91       	pop	r28
    3508:	08 95       	ret

0000350a <sys_timer_config>:
    350a:	cf 93       	push	r28
    350c:	df 93       	push	r29
    350e:	cd b7       	in	r28, 0x3d	; 61
    3510:	de b7       	in	r29, 0x3e	; 62
    3512:	84 e4       	ldi	r24, 0x44	; 68
    3514:	90 e0       	ldi	r25, 0x00	; 0
    3516:	2b e0       	ldi	r18, 0x0B	; 11
    3518:	fc 01       	movw	r30, r24
    351a:	20 83       	st	Z, r18
    351c:	8e e6       	ldi	r24, 0x6E	; 110
    351e:	90 e0       	ldi	r25, 0x00	; 0
    3520:	22 e0       	ldi	r18, 0x02	; 2
    3522:	fc 01       	movw	r30, r24
    3524:	20 83       	st	Z, r18
    3526:	87 e4       	ldi	r24, 0x47	; 71
    3528:	90 e0       	ldi	r25, 0x00	; 0
    352a:	2a ef       	ldi	r18, 0xFA	; 250
    352c:	fc 01       	movw	r30, r24
    352e:	20 83       	st	Z, r18
    3530:	00 00       	nop
    3532:	df 91       	pop	r29
    3534:	cf 91       	pop	r28
    3536:	08 95       	ret

00003538 <__vector_16>:
    3538:	1f 92       	push	r1
    353a:	0f 92       	push	r0
    353c:	00 90 5f 00 	lds	r0, 0x005F	; 0x80005f <__TEXT_REGION_LENGTH__+0x7e005f>
    3540:	0f 92       	push	r0
    3542:	11 24       	eor	r1, r1
    3544:	8f 93       	push	r24
    3546:	9f 93       	push	r25
    3548:	af 93       	push	r26
    354a:	bf 93       	push	r27
    354c:	cf 93       	push	r28
    354e:	df 93       	push	r29
    3550:	cd b7       	in	r28, 0x3d	; 61
    3552:	de b7       	in	r29, 0x3e	; 62
    3554:	80 91 a7 02 	lds	r24, 0x02A7	; 0x8002a7 <sys_time>
    3558:	90 91 a8 02 	lds	r25, 0x02A8	; 0x8002a8 <sys_time+0x1>
    355c:	a0 91 a9 02 	lds	r26, 0x02A9	; 0x8002a9 <sys_time+0x2>
    3560:	b0 91 aa 02 	lds	r27, 0x02AA	; 0x8002aa <sys_time+0x3>
    3564:	01 96       	adiw	r24, 0x01	; 1
    3566:	a1 1d       	adc	r26, r1
    3568:	b1 1d       	adc	r27, r1
    356a:	80 93 a7 02 	sts	0x02A7, r24	; 0x8002a7 <sys_time>
    356e:	90 93 a8 02 	sts	0x02A8, r25	; 0x8002a8 <sys_time+0x1>
    3572:	a0 93 a9 02 	sts	0x02A9, r26	; 0x8002a9 <sys_time+0x2>
    3576:	b0 93 aa 02 	sts	0x02AA, r27	; 0x8002aa <sys_time+0x3>
    357a:	80 91 ab 02 	lds	r24, 0x02AB	; 0x8002ab <draw_data>
    357e:	8f 5f       	subi	r24, 0xFF	; 255
    3580:	80 93 ab 02 	sts	0x02AB, r24	; 0x8002ab <draw_data>
    3584:	00 00       	nop
    3586:	df 91       	pop	r29
    3588:	cf 91       	pop	r28
    358a:	bf 91       	pop	r27
    358c:	af 91       	pop	r26
    358e:	9f 91       	pop	r25
    3590:	8f 91       	pop	r24
    3592:	0f 90       	pop	r0
    3594:	00 92 5f 00 	sts	0x005F, r0	; 0x80005f <__TEXT_REGION_LENGTH__+0x7e005f>
    3598:	0f 90       	pop	r0
    359a:	1f 90       	pop	r1
    359c:	18 95       	reti

0000359e <__udivmodhi4>:
    359e:	aa 1b       	sub	r26, r26
    35a0:	bb 1b       	sub	r27, r27
    35a2:	51 e1       	ldi	r21, 0x11	; 17
    35a4:	07 c0       	rjmp	.+14     	; 0x35b4 <__udivmodhi4_ep>

000035a6 <__udivmodhi4_loop>:
    35a6:	aa 1f       	adc	r26, r26
    35a8:	bb 1f       	adc	r27, r27
    35aa:	a6 17       	cp	r26, r22
    35ac:	b7 07       	cpc	r27, r23
    35ae:	10 f0       	brcs	.+4      	; 0x35b4 <__udivmodhi4_ep>
    35b0:	a6 1b       	sub	r26, r22
    35b2:	b7 0b       	sbc	r27, r23

000035b4 <__udivmodhi4_ep>:
    35b4:	88 1f       	adc	r24, r24
    35b6:	99 1f       	adc	r25, r25
    35b8:	5a 95       	dec	r21
    35ba:	a9 f7       	brne	.-22     	; 0x35a6 <__udivmodhi4_loop>
    35bc:	80 95       	com	r24
    35be:	90 95       	com	r25
    35c0:	bc 01       	movw	r22, r24
    35c2:	cd 01       	movw	r24, r26
    35c4:	08 95       	ret

000035c6 <__divmodhi4>:
    35c6:	97 fb       	bst	r25, 7
    35c8:	07 2e       	mov	r0, r23
    35ca:	16 f4       	brtc	.+4      	; 0x35d0 <__divmodhi4+0xa>
    35cc:	00 94       	com	r0
    35ce:	06 d0       	rcall	.+12     	; 0x35dc <__divmodhi4_neg1>
    35d0:	77 fd       	sbrc	r23, 7
    35d2:	08 d0       	rcall	.+16     	; 0x35e4 <__divmodhi4_neg2>
    35d4:	e4 df       	rcall	.-56     	; 0x359e <__udivmodhi4>
    35d6:	07 fc       	sbrc	r0, 7
    35d8:	05 d0       	rcall	.+10     	; 0x35e4 <__divmodhi4_neg2>
    35da:	3e f4       	brtc	.+14     	; 0x35ea <__divmodhi4_exit>

000035dc <__divmodhi4_neg1>:
    35dc:	90 95       	com	r25
    35de:	81 95       	neg	r24
    35e0:	9f 4f       	sbci	r25, 0xFF	; 255
    35e2:	08 95       	ret

000035e4 <__divmodhi4_neg2>:
    35e4:	70 95       	com	r23
    35e6:	61 95       	neg	r22
    35e8:	7f 4f       	sbci	r23, 0xFF	; 255

000035ea <__divmodhi4_exit>:
    35ea:	08 95       	ret

000035ec <__tablejump2__>:
    35ec:	ee 0f       	add	r30, r30
    35ee:	ff 1f       	adc	r31, r31
    35f0:	00 24       	eor	r0, r0
    35f2:	00 1c       	adc	r0, r0
    35f4:	0b be       	out	0x3b, r0	; 59
    35f6:	07 90       	elpm	r0, Z+
    35f8:	f6 91       	elpm	r31, Z
    35fa:	e0 2d       	mov	r30, r0
    35fc:	09 94       	ijmp

000035fe <__umulhisi3>:
    35fe:	a2 9f       	mul	r26, r18
    3600:	b0 01       	movw	r22, r0
    3602:	b3 9f       	mul	r27, r19
    3604:	c0 01       	movw	r24, r0
    3606:	a3 9f       	mul	r26, r19
    3608:	70 0d       	add	r23, r0
    360a:	81 1d       	adc	r24, r1
    360c:	11 24       	eor	r1, r1
    360e:	91 1d       	adc	r25, r1
    3610:	b2 9f       	mul	r27, r18
    3612:	70 0d       	add	r23, r0
    3614:	81 1d       	adc	r24, r1
    3616:	11 24       	eor	r1, r1
    3618:	91 1d       	adc	r25, r1
    361a:	08 95       	ret

0000361c <_exit>:
    361c:	f8 94       	cli

0000361e <__stop_program>:
    361e:	ff cf       	rjmp	.-2      	; 0x361e <__stop_program>
