
DIC_23.elf:     file format elf32-avr

Sections:
Idx Name          Size      VMA       LMA       File off  Algn
  0 .data         00000158  00800100  000034b8  0000354c  2**0
                  CONTENTS, ALLOC, LOAD, DATA
  1 .text         000034b8  00000000  00000000  00000094  2**1
                  CONTENTS, ALLOC, LOAD, READONLY, CODE
  2 .bss          000000f6  00800258  00800258  000036a4  2**0
                  ALLOC
  3 .comment      00000030  00000000  00000000  000036a4  2**0
                  CONTENTS, READONLY
  4 .note.gnu.avr.deviceinfo 00000040  00000000  00000000  000036d4  2**2
                  CONTENTS, READONLY
  5 .debug_aranges 00000100  00000000  00000000  00003714  2**0
                  CONTENTS, READONLY, DEBUGGING
  6 .debug_info   000020ce  00000000  00000000  00003814  2**0
                  CONTENTS, READONLY, DEBUGGING
  7 .debug_abbrev 00001155  00000000  00000000  000058e2  2**0
                  CONTENTS, READONLY, DEBUGGING
  8 .debug_line   000019b9  00000000  00000000  00006a37  2**0
                  CONTENTS, READONLY, DEBUGGING
  9 .debug_frame  00000778  00000000  00000000  000083f0  2**2
                  CONTENTS, READONLY, DEBUGGING
 10 .debug_str    00000d6b  00000000  00000000  00008b68  2**0
                  CONTENTS, READONLY, DEBUGGING
 11 .debug_loc    00000ece  00000000  00000000  000098d3  2**0
                  CONTENTS, READONLY, DEBUGGING

Disassembly of section .text:

00000000 <__vectors>:
       0:	87 c0       	rjmp	.+270    	; 0x110 <__ctors_end>
       2:	00 00       	nop
       4:	a4 c0       	rjmp	.+328    	; 0x14e <__bad_interrupt>
       6:	00 00       	nop
       8:	a2 c0       	rjmp	.+324    	; 0x14e <__bad_interrupt>
       a:	00 00       	nop
       c:	a0 c0       	rjmp	.+320    	; 0x14e <__bad_interrupt>
       e:	00 00       	nop
      10:	9e c0       	rjmp	.+316    	; 0x14e <__bad_interrupt>
      12:	00 00       	nop
      14:	9c c0       	rjmp	.+312    	; 0x14e <__bad_interrupt>
      16:	00 00       	nop
      18:	9a c0       	rjmp	.+308    	; 0x14e <__bad_interrupt>
      1a:	00 00       	nop
      1c:	98 c0       	rjmp	.+304    	; 0x14e <__bad_interrupt>
      1e:	00 00       	nop
      20:	96 c0       	rjmp	.+300    	; 0x14e <__bad_interrupt>
      22:	00 00       	nop
      24:	94 c0       	rjmp	.+296    	; 0x14e <__bad_interrupt>
      26:	00 00       	nop
      28:	92 c0       	rjmp	.+292    	; 0x14e <__bad_interrupt>
      2a:	00 00       	nop
      2c:	90 c0       	rjmp	.+288    	; 0x14e <__bad_interrupt>
      2e:	00 00       	nop
      30:	8e c0       	rjmp	.+284    	; 0x14e <__bad_interrupt>
      32:	00 00       	nop
      34:	8c c0       	rjmp	.+280    	; 0x14e <__bad_interrupt>
      36:	00 00       	nop
      38:	8a c0       	rjmp	.+276    	; 0x14e <__bad_interrupt>
      3a:	00 00       	nop
      3c:	88 c0       	rjmp	.+272    	; 0x14e <__bad_interrupt>
      3e:	00 00       	nop
      40:	0c 94 fb 19 	jmp	0x33f6	; 0x33f6 <__vector_16>
      44:	84 c0       	rjmp	.+264    	; 0x14e <__bad_interrupt>
      46:	00 00       	nop
      48:	82 c0       	rjmp	.+260    	; 0x14e <__bad_interrupt>
      4a:	00 00       	nop
      4c:	80 c0       	rjmp	.+256    	; 0x14e <__bad_interrupt>
      4e:	00 00       	nop
      50:	0c 94 a2 15 	jmp	0x2b44	; 0x2b44 <__vector_20>
      54:	7c c0       	rjmp	.+248    	; 0x14e <__bad_interrupt>
      56:	00 00       	nop
      58:	7a c0       	rjmp	.+244    	; 0x14e <__bad_interrupt>
      5a:	00 00       	nop
      5c:	78 c0       	rjmp	.+240    	; 0x14e <__bad_interrupt>
      5e:	00 00       	nop
      60:	76 c0       	rjmp	.+236    	; 0x14e <__bad_interrupt>
      62:	00 00       	nop
      64:	74 c0       	rjmp	.+232    	; 0x14e <__bad_interrupt>
      66:	00 00       	nop
      68:	72 c0       	rjmp	.+228    	; 0x14e <__bad_interrupt>
      6a:	00 00       	nop
      6c:	70 c0       	rjmp	.+224    	; 0x14e <__bad_interrupt>
      6e:	00 00       	nop
      70:	6e c0       	rjmp	.+220    	; 0x14e <__bad_interrupt>
      72:	00 00       	nop
      74:	6c c0       	rjmp	.+216    	; 0x14e <__bad_interrupt>
      76:	00 00       	nop
      78:	6a c0       	rjmp	.+212    	; 0x14e <__bad_interrupt>
      7a:	00 00       	nop
      7c:	68 c0       	rjmp	.+208    	; 0x14e <__bad_interrupt>
      7e:	00 00       	nop
      80:	66 c0       	rjmp	.+204    	; 0x14e <__bad_interrupt>
      82:	00 00       	nop
      84:	64 c0       	rjmp	.+200    	; 0x14e <__bad_interrupt>
      86:	00 00       	nop
      88:	62 c0       	rjmp	.+196    	; 0x14e <__bad_interrupt>
      8a:	00 00       	nop
      8c:	60 c0       	rjmp	.+192    	; 0x14e <__bad_interrupt>
      8e:	00 00       	nop
      90:	5e c0       	rjmp	.+188    	; 0x14e <__bad_interrupt>
      92:	00 00       	nop
      94:	18 11       	cpse	r17, r8
      96:	39 11       	cpse	r19, r9
      98:	5a 11       	cpse	r21, r10
      9a:	7b 11       	cpse	r23, r11
      9c:	9c 11       	cpse	r25, r12
      9e:	bd 11       	cpse	r27, r13
      a0:	de 11       	cpse	r29, r14
      a2:	ff 11       	cpse	r31, r15
      a4:	20 12       	cpse	r2, r16
      a6:	41 12       	cpse	r4, r17
      a8:	62 12       	cpse	r6, r18
      aa:	83 12       	cpse	r8, r19
      ac:	a4 12       	cpse	r10, r20
      ae:	c5 12       	cpse	r12, r21
      b0:	30 13       	cpse	r19, r16
      b2:	39 13       	cpse	r19, r25
      b4:	42 13       	cpse	r20, r18
      b6:	4b 13       	cpse	r20, r27
      b8:	54 13       	cpse	r21, r20
      ba:	5d 13       	cpse	r21, r29
      bc:	66 13       	cpse	r22, r22
      be:	6f 13       	cpse	r22, r31
      c0:	78 13       	cpse	r23, r24
      c2:	81 13       	cpse	r24, r17
      c4:	34 16       	cp	r3, r20
      c6:	42 16       	cp	r4, r18
      c8:	3b 16       	cp	r3, r27
      ca:	57 16       	cp	r5, r23
      cc:	49 16       	cp	r4, r25
      ce:	50 16       	cp	r5, r16
      d0:	65 16       	cp	r6, r21
      d2:	5e 16       	cp	r5, r30
      d4:	d1 17       	cp	r29, r17
      d6:	db 17       	cp	r29, r27
      d8:	e5 17       	cp	r30, r21
      da:	ef 17       	cp	r30, r31
      dc:	f9 17       	cp	r31, r25
      de:	03 18       	sub	r0, r3
      e0:	0d 18       	sub	r0, r13
      e2:	17 18       	sub	r1, r7
      e4:	21 18       	sub	r2, r1
      e6:	2b 18       	sub	r2, r11
      e8:	35 18       	sub	r3, r5
      ea:	3f 18       	sub	r3, r15
      ec:	49 18       	sub	r4, r9
      ee:	53 18       	sub	r5, r3
      f0:	5d 18       	sub	r5, r13
      f2:	87 18       	sub	r8, r7
      f4:	91 18       	sub	r9, r1
      f6:	9b 18       	sub	r9, r11
      f8:	a5 18       	sub	r10, r5
      fa:	af 18       	sub	r10, r15
      fc:	b9 18       	sub	r11, r9
      fe:	c3 18       	sub	r12, r3
     100:	cd 18       	sub	r12, r13
     102:	d7 18       	sub	r13, r7
     104:	e1 18       	sub	r14, r1
     106:	eb 18       	sub	r14, r11
     108:	f5 18       	sub	r15, r5
     10a:	ff 18       	sub	r15, r15
     10c:	09 19       	sub	r16, r9
     10e:	13 19       	sub	r17, r3

00000110 <__ctors_end>:
     110:	11 24       	eor	r1, r1
     112:	1f be       	out	0x3f, r1	; 63
     114:	cf ef       	ldi	r28, 0xFF	; 255
     116:	d0 e1       	ldi	r29, 0x10	; 16
     118:	de bf       	out	0x3e, r29	; 62
     11a:	cd bf       	out	0x3d, r28	; 61

0000011c <__do_copy_data>:
     11c:	12 e0       	ldi	r17, 0x02	; 2
     11e:	a0 e0       	ldi	r26, 0x00	; 0
     120:	b1 e0       	ldi	r27, 0x01	; 1
     122:	e8 eb       	ldi	r30, 0xB8	; 184
     124:	f4 e3       	ldi	r31, 0x34	; 52
     126:	00 e0       	ldi	r16, 0x00	; 0
     128:	0b bf       	out	0x3b, r16	; 59
     12a:	02 c0       	rjmp	.+4      	; 0x130 <__do_copy_data+0x14>
     12c:	07 90       	elpm	r0, Z+
     12e:	0d 92       	st	X+, r0
     130:	a8 35       	cpi	r26, 0x58	; 88
     132:	b1 07       	cpc	r27, r17
     134:	d9 f7       	brne	.-10     	; 0x12c <__do_copy_data+0x10>

00000136 <__do_clear_bss>:
     136:	23 e0       	ldi	r18, 0x03	; 3
     138:	a8 e5       	ldi	r26, 0x58	; 88
     13a:	b2 e0       	ldi	r27, 0x02	; 2
     13c:	01 c0       	rjmp	.+2      	; 0x140 <.do_clear_bss_start>

0000013e <.do_clear_bss_loop>:
     13e:	1d 92       	st	X+, r1

00000140 <.do_clear_bss_start>:
     140:	ae 34       	cpi	r26, 0x4E	; 78
     142:	b2 07       	cpc	r27, r18
     144:	e1 f7       	brne	.-8      	; 0x13e <.do_clear_bss_loop>
     146:	0e 94 d2 13 	call	0x27a4	; 0x27a4 <main>
     14a:	0c 94 5a 1a 	jmp	0x34b4	; 0x34b4 <_exit>

0000014e <__bad_interrupt>:
     14e:	58 cf       	rjmp	.-336    	; 0x0 <__vectors>

00000150 <init_mobs>:
// 0: MCU Temperature
struct CAN_MOB inv11_mob;



void init_mobs(){
     150:	cf 93       	push	r28
     152:	df 93       	push	r29
     154:	cd b7       	in	r28, 0x3d	; 61
     156:	de b7       	in	r29, 0x3e	; 62
	
	ams0_mob.mob_id = AMS_0_MOB_ID;
     158:	80 e0       	ldi	r24, 0x00	; 0
     15a:	92 e0       	ldi	r25, 0x02	; 2
     15c:	90 93 df 02 	sts	0x02DF, r25	; 0x8002df <ams0_mob+0x1>
     160:	80 93 de 02 	sts	0x02DE, r24	; 0x8002de <ams0_mob>
	ams0_mob.mob_idmask = 0xffff;
     164:	8f ef       	ldi	r24, 0xFF	; 255
     166:	9f ef       	ldi	r25, 0xFF	; 255
     168:	90 93 e1 02 	sts	0x02E1, r25	; 0x8002e1 <ams0_mob+0x3>
     16c:	80 93 e0 02 	sts	0x02E0, r24	; 0x8002e0 <ams0_mob+0x2>
	ams0_mob.mob_number = 0;
     170:	10 92 e3 02 	sts	0x02E3, r1	; 0x8002e3 <ams0_mob+0x5>
     174:	10 92 e2 02 	sts	0x02E2, r1	; 0x8002e2 <ams0_mob+0x4>
	
	ams1_mob.mob_id = AMS_1_MOB_ID;
     178:	81 e0       	ldi	r24, 0x01	; 1
     17a:	92 e0       	ldi	r25, 0x02	; 2
     17c:	90 93 c7 02 	sts	0x02C7, r25	; 0x8002c7 <ams1_mob+0x1>
     180:	80 93 c6 02 	sts	0x02C6, r24	; 0x8002c6 <ams1_mob>
	ams1_mob.mob_idmask = 0xffff;
     184:	8f ef       	ldi	r24, 0xFF	; 255
     186:	9f ef       	ldi	r25, 0xFF	; 255
     188:	90 93 c9 02 	sts	0x02C9, r25	; 0x8002c9 <ams1_mob+0x3>
     18c:	80 93 c8 02 	sts	0x02C8, r24	; 0x8002c8 <ams1_mob+0x2>
	ams1_mob.mob_number = 1;
     190:	81 e0       	ldi	r24, 0x01	; 1
     192:	90 e0       	ldi	r25, 0x00	; 0
     194:	90 93 cb 02 	sts	0x02CB, r25	; 0x8002cb <ams1_mob+0x5>
     198:	80 93 ca 02 	sts	0x02CA, r24	; 0x8002ca <ams1_mob+0x4>
	
	shr_mob.mob_id = SHR_MOB_ID;
     19c:	80 e0       	ldi	r24, 0x00	; 0
     19e:	94 e0       	ldi	r25, 0x04	; 4
     1a0:	90 93 af 02 	sts	0x02AF, r25	; 0x8002af <shr_mob+0x1>
     1a4:	80 93 ae 02 	sts	0x02AE, r24	; 0x8002ae <shr_mob>
	shr_mob.mob_idmask = 0xffff;
     1a8:	8f ef       	ldi	r24, 0xFF	; 255
     1aa:	9f ef       	ldi	r25, 0xFF	; 255
     1ac:	90 93 b1 02 	sts	0x02B1, r25	; 0x8002b1 <shr_mob+0x3>
     1b0:	80 93 b0 02 	sts	0x02B0, r24	; 0x8002b0 <shr_mob+0x2>
	shr_mob.mob_number = 2;
     1b4:	82 e0       	ldi	r24, 0x02	; 2
     1b6:	90 e0       	ldi	r25, 0x00	; 0
     1b8:	90 93 b3 02 	sts	0x02B3, r25	; 0x8002b3 <shr_mob+0x5>
     1bc:	80 93 b2 02 	sts	0x02B2, r24	; 0x8002b2 <shr_mob+0x4>
	
	shl_mob.mob_id = SHL_MOB_ID;
     1c0:	80 e1       	ldi	r24, 0x10	; 16
     1c2:	94 e0       	ldi	r25, 0x04	; 4
     1c4:	90 93 d9 02 	sts	0x02D9, r25	; 0x8002d9 <shl_mob+0x1>
     1c8:	80 93 d8 02 	sts	0x02D8, r24	; 0x8002d8 <shl_mob>
	shl_mob.mob_idmask = 0xffff;
     1cc:	8f ef       	ldi	r24, 0xFF	; 255
     1ce:	9f ef       	ldi	r25, 0xFF	; 255
     1d0:	90 93 db 02 	sts	0x02DB, r25	; 0x8002db <shl_mob+0x3>
     1d4:	80 93 da 02 	sts	0x02DA, r24	; 0x8002da <shl_mob+0x2>
	shl_mob.mob_number = 3;
     1d8:	83 e0       	ldi	r24, 0x03	; 3
     1da:	90 e0       	ldi	r25, 0x00	; 0
     1dc:	90 93 dd 02 	sts	0x02DD, r25	; 0x8002dd <shl_mob+0x5>
     1e0:	80 93 dc 02 	sts	0x02DC, r24	; 0x8002dc <shl_mob+0x4>
	
	shb_mob.mob_id = SHB_MOB_ID;
     1e4:	80 e2       	ldi	r24, 0x20	; 32
     1e6:	94 e0       	ldi	r25, 0x04	; 4
     1e8:	90 93 bb 02 	sts	0x02BB, r25	; 0x8002bb <shb_mob+0x1>
     1ec:	80 93 ba 02 	sts	0x02BA, r24	; 0x8002ba <shb_mob>
	shb_mob.mob_idmask = 0xffff;
     1f0:	8f ef       	ldi	r24, 0xFF	; 255
     1f2:	9f ef       	ldi	r25, 0xFF	; 255
     1f4:	90 93 bd 02 	sts	0x02BD, r25	; 0x8002bd <shb_mob+0x3>
     1f8:	80 93 bc 02 	sts	0x02BC, r24	; 0x8002bc <shb_mob+0x2>
	shb_mob.mob_number = 4;
     1fc:	84 e0       	ldi	r24, 0x04	; 4
     1fe:	90 e0       	ldi	r25, 0x00	; 0
     200:	90 93 bf 02 	sts	0x02BF, r25	; 0x8002bf <shb_mob+0x5>
     204:	80 93 be 02 	sts	0x02BE, r24	; 0x8002be <shb_mob+0x4>
	
	dic_mob.mob_id = DIC_MOB_ID;
     208:	80 e0       	ldi	r24, 0x00	; 0
     20a:	95 e0       	ldi	r25, 0x05	; 5
     20c:	90 93 a3 02 	sts	0x02A3, r25	; 0x8002a3 <dic_mob+0x1>
     210:	80 93 a2 02 	sts	0x02A2, r24	; 0x8002a2 <dic_mob>
	dic_mob.mob_idmask = 0xffff;
     214:	8f ef       	ldi	r24, 0xFF	; 255
     216:	9f ef       	ldi	r25, 0xFF	; 255
     218:	90 93 a5 02 	sts	0x02A5, r25	; 0x8002a5 <dic_mob+0x3>
     21c:	80 93 a4 02 	sts	0x02A4, r24	; 0x8002a4 <dic_mob+0x2>
	dic_mob.mob_number = 5;
     220:	85 e0       	ldi	r24, 0x05	; 5
     222:	90 e0       	ldi	r25, 0x00	; 0
     224:	90 93 a7 02 	sts	0x02A7, r25	; 0x8002a7 <dic_mob+0x5>
     228:	80 93 a6 02 	sts	0x02A6, r24	; 0x8002a6 <dic_mob+0x4>
	
	fusebox_mob.mob_id = FUSEBOX_MOB_ID;
     22c:	80 e0       	ldi	r24, 0x00	; 0
     22e:	96 e0       	ldi	r25, 0x06	; 6
     230:	90 93 45 03 	sts	0x0345, r25	; 0x800345 <fusebox_mob+0x1>
     234:	80 93 44 03 	sts	0x0344, r24	; 0x800344 <fusebox_mob>
	fusebox_mob.mob_idmask = 0xffff;
     238:	8f ef       	ldi	r24, 0xFF	; 255
     23a:	9f ef       	ldi	r25, 0xFF	; 255
     23c:	90 93 47 03 	sts	0x0347, r25	; 0x800347 <fusebox_mob+0x3>
     240:	80 93 46 03 	sts	0x0346, r24	; 0x800346 <fusebox_mob+0x2>
	fusebox_mob.mob_number = 6;
     244:	86 e0       	ldi	r24, 0x06	; 6
     246:	90 e0       	ldi	r25, 0x00	; 0
     248:	90 93 49 03 	sts	0x0349, r25	; 0x800349 <fusebox_mob+0x5>
     24c:	80 93 48 03 	sts	0x0348, r24	; 0x800348 <fusebox_mob+0x4>
	
	swc_mob.mob_id = SWC_MOB_ID;
     250:	80 e5       	ldi	r24, 0x50	; 80
     252:	97 e0       	ldi	r25, 0x07	; 7
     254:	90 93 a9 02 	sts	0x02A9, r25	; 0x8002a9 <swc_mob+0x1>
     258:	80 93 a8 02 	sts	0x02A8, r24	; 0x8002a8 <swc_mob>
	swc_mob.mob_idmask = 0xffff;
     25c:	8f ef       	ldi	r24, 0xFF	; 255
     25e:	9f ef       	ldi	r25, 0xFF	; 255
     260:	90 93 ab 02 	sts	0x02AB, r25	; 0x8002ab <swc_mob+0x3>
     264:	80 93 aa 02 	sts	0x02AA, r24	; 0x8002aa <swc_mob+0x2>
	swc_mob.mob_number = 7;
     268:	87 e0       	ldi	r24, 0x07	; 7
     26a:	90 e0       	ldi	r25, 0x00	; 0
     26c:	90 93 ad 02 	sts	0x02AD, r25	; 0x8002ad <swc_mob+0x5>
     270:	80 93 ac 02 	sts	0x02AC, r24	; 0x8002ac <swc_mob+0x4>
	
	
	inv00_mob.mob_id = INV0_0_MOB_ID;
     274:	8a e0       	ldi	r24, 0x0A	; 10
     276:	90 e0       	ldi	r25, 0x00	; 0
     278:	90 93 b5 02 	sts	0x02B5, r25	; 0x8002b5 <inv00_mob+0x1>
     27c:	80 93 b4 02 	sts	0x02B4, r24	; 0x8002b4 <inv00_mob>
	inv00_mob.mob_idmask = 0xffff;
     280:	8f ef       	ldi	r24, 0xFF	; 255
     282:	9f ef       	ldi	r25, 0xFF	; 255
     284:	90 93 b7 02 	sts	0x02B7, r25	; 0x8002b7 <inv00_mob+0x3>
     288:	80 93 b6 02 	sts	0x02B6, r24	; 0x8002b6 <inv00_mob+0x2>
	inv00_mob.mob_number = 8;
     28c:	88 e0       	ldi	r24, 0x08	; 8
     28e:	90 e0       	ldi	r25, 0x00	; 0
     290:	90 93 b9 02 	sts	0x02B9, r25	; 0x8002b9 <inv00_mob+0x5>
     294:	80 93 b8 02 	sts	0x02B8, r24	; 0x8002b8 <inv00_mob+0x4>
	
	inv01_mob.mob_id = INV0_1_MOB_ID;
     298:	8a e4       	ldi	r24, 0x4A	; 74
     29a:	90 e0       	ldi	r25, 0x00	; 0
     29c:	90 93 d3 02 	sts	0x02D3, r25	; 0x8002d3 <inv01_mob+0x1>
     2a0:	80 93 d2 02 	sts	0x02D2, r24	; 0x8002d2 <inv01_mob>
	inv01_mob.mob_idmask = 0xffff;
     2a4:	8f ef       	ldi	r24, 0xFF	; 255
     2a6:	9f ef       	ldi	r25, 0xFF	; 255
     2a8:	90 93 d5 02 	sts	0x02D5, r25	; 0x8002d5 <inv01_mob+0x3>
     2ac:	80 93 d4 02 	sts	0x02D4, r24	; 0x8002d4 <inv01_mob+0x2>
	inv01_mob.mob_number = 9;
     2b0:	89 e0       	ldi	r24, 0x09	; 9
     2b2:	90 e0       	ldi	r25, 0x00	; 0
     2b4:	90 93 d7 02 	sts	0x02D7, r25	; 0x8002d7 <inv01_mob+0x5>
     2b8:	80 93 d6 02 	sts	0x02D6, r24	; 0x8002d6 <inv01_mob+0x4>
	
	inv10_mob.mob_id = INV0_1_MOB_ID;
     2bc:	8a e4       	ldi	r24, 0x4A	; 74
     2be:	90 e0       	ldi	r25, 0x00	; 0
     2c0:	90 93 c1 02 	sts	0x02C1, r25	; 0x8002c1 <inv10_mob+0x1>
     2c4:	80 93 c0 02 	sts	0x02C0, r24	; 0x8002c0 <inv10_mob>
	inv10_mob.mob_idmask = 0xffff;
     2c8:	8f ef       	ldi	r24, 0xFF	; 255
     2ca:	9f ef       	ldi	r25, 0xFF	; 255
     2cc:	90 93 c3 02 	sts	0x02C3, r25	; 0x8002c3 <inv10_mob+0x3>
     2d0:	80 93 c2 02 	sts	0x02C2, r24	; 0x8002c2 <inv10_mob+0x2>
	inv10_mob.mob_number = 10;
     2d4:	8a e0       	ldi	r24, 0x0A	; 10
     2d6:	90 e0       	ldi	r25, 0x00	; 0
     2d8:	90 93 c5 02 	sts	0x02C5, r25	; 0x8002c5 <inv10_mob+0x5>
     2dc:	80 93 c4 02 	sts	0x02C4, r24	; 0x8002c4 <inv10_mob+0x4>
	
	inv11_mob.mob_id = INV1_1_MOB_ID;
     2e0:	84 e5       	ldi	r24, 0x54	; 84
     2e2:	90 e0       	ldi	r25, 0x00	; 0
     2e4:	90 93 cd 02 	sts	0x02CD, r25	; 0x8002cd <inv11_mob+0x1>
     2e8:	80 93 cc 02 	sts	0x02CC, r24	; 0x8002cc <inv11_mob>
	inv11_mob.mob_idmask = 0xffff;
     2ec:	8f ef       	ldi	r24, 0xFF	; 255
     2ee:	9f ef       	ldi	r25, 0xFF	; 255
     2f0:	90 93 cf 02 	sts	0x02CF, r25	; 0x8002cf <inv11_mob+0x3>
     2f4:	80 93 ce 02 	sts	0x02CE, r24	; 0x8002ce <inv11_mob+0x2>
	inv11_mob.mob_number = 11;
     2f8:	8b e0       	ldi	r24, 0x0B	; 11
     2fa:	90 e0       	ldi	r25, 0x00	; 0
     2fc:	90 93 d1 02 	sts	0x02D1, r25	; 0x8002d1 <inv11_mob+0x5>
     300:	80 93 d0 02 	sts	0x02D0, r24	; 0x8002d0 <inv11_mob+0x4>
	
	
	
}
     304:	00 00       	nop
     306:	df 91       	pop	r29
     308:	cf 91       	pop	r28
     30a:	08 95       	ret

0000030c <can_receive>:

void can_receive(){
     30c:	cf 93       	push	r28
     30e:	df 93       	push	r29
     310:	1f 92       	push	r1
     312:	cd b7       	in	r28, 0x3d	; 61
     314:	de b7       	in	r29, 0x3e	; 62
	
	can_rx(&ams0_mob, mob_databytes[AMS0_DATA]);
     316:	64 ee       	ldi	r22, 0xE4	; 228
     318:	72 e0       	ldi	r23, 0x02	; 2
     31a:	8e ed       	ldi	r24, 0xDE	; 222
     31c:	92 e0       	ldi	r25, 0x02	; 2
     31e:	d7 d2       	rcall	.+1454   	; 0x8ce <can_rx>
	uint8_t ams_counter = mob_databytes[AMS0_DATA][7];
     320:	80 91 eb 02 	lds	r24, 0x02EB	; 0x8002eb <mob_databytes+0x7>
     324:	89 83       	std	Y+1, r24	; 0x01
	if (ams_counter == last_ams_counter){
     326:	80 91 9b 02 	lds	r24, 0x029B	; 0x80029b <last_ams_counter>
     32a:	99 81       	ldd	r25, Y+1	; 0x01
     32c:	98 17       	cp	r25, r24
     32e:	51 f4       	brne	.+20     	; 0x344 <can_receive+0x38>
		ams_error_counter++;
     330:	80 91 99 02 	lds	r24, 0x0299	; 0x800299 <ams_error_counter>
     334:	90 91 9a 02 	lds	r25, 0x029A	; 0x80029a <ams_error_counter+0x1>
     338:	01 96       	adiw	r24, 0x01	; 1
     33a:	90 93 9a 02 	sts	0x029A, r25	; 0x80029a <ams_error_counter+0x1>
     33e:	80 93 99 02 	sts	0x0299, r24	; 0x800299 <ams_error_counter>
     342:	04 c0       	rjmp	.+8      	; 0x34c <can_receive+0x40>
	} else {
		ams_error_counter = 0;
     344:	10 92 9a 02 	sts	0x029A, r1	; 0x80029a <ams_error_counter+0x1>
     348:	10 92 99 02 	sts	0x0299, r1	; 0x800299 <ams_error_counter>
	}
	last_ams_counter = ams_counter;			// AMS error muss 100 mal kommen, dann dann leuchtet led bar 
     34c:	89 81       	ldd	r24, Y+1	; 0x01
     34e:	80 93 9b 02 	sts	0x029B, r24	; 0x80029b <last_ams_counter>
	if (ams_error_counter > 1000 || ams_error != 0){
     352:	80 91 99 02 	lds	r24, 0x0299	; 0x800299 <ams_error_counter>
     356:	90 91 9a 02 	lds	r25, 0x029A	; 0x80029a <ams_error_counter+0x1>
     35a:	89 3e       	cpi	r24, 0xE9	; 233
     35c:	93 40       	sbci	r25, 0x03	; 3
     35e:	20 f4       	brcc	.+8      	; 0x368 <can_receive+0x5c>
     360:	80 91 5e 02 	lds	r24, 0x025E	; 0x80025e <ams_error>
     364:	88 23       	and	r24, r24
     366:	21 f0       	breq	.+8      	; 0x370 <can_receive+0x64>
		//LED anschalten
		bms_error(1);
     368:	81 e0       	ldi	r24, 0x01	; 1
     36a:	0e 94 22 19 	call	0x3244	; 0x3244 <bms_error>
     36e:	03 c0       	rjmp	.+6      	; 0x376 <can_receive+0x6a>
	} else {
		bms_error(0);
     370:	80 e0       	ldi	r24, 0x00	; 0
     372:	0e 94 22 19 	call	0x3244	; 0x3244 <bms_error>
	}
	
	can_rx(&ams1_mob, mob_databytes[AMS1_DATA]);
     376:	6c ee       	ldi	r22, 0xEC	; 236
     378:	72 e0       	ldi	r23, 0x02	; 2
     37a:	86 ec       	ldi	r24, 0xC6	; 198
     37c:	92 e0       	ldi	r25, 0x02	; 2
     37e:	a7 d2       	rcall	.+1358   	; 0x8ce <can_rx>
	can_rx(&shr_mob, mob_databytes[SHR_DATA]);
     380:	64 ef       	ldi	r22, 0xF4	; 244
     382:	72 e0       	ldi	r23, 0x02	; 2
     384:	8e ea       	ldi	r24, 0xAE	; 174
     386:	92 e0       	ldi	r25, 0x02	; 2
     388:	a2 d2       	rcall	.+1348   	; 0x8ce <can_rx>
	can_rx(&shl_mob, mob_databytes[SHL_DATA]);
     38a:	6c ef       	ldi	r22, 0xFC	; 252
     38c:	72 e0       	ldi	r23, 0x02	; 2
     38e:	88 ed       	ldi	r24, 0xD8	; 216
     390:	92 e0       	ldi	r25, 0x02	; 2
     392:	9d d2       	rcall	.+1338   	; 0x8ce <can_rx>
	can_rx(&shb_mob, mob_databytes[SHB_DATA]);
     394:	64 e0       	ldi	r22, 0x04	; 4
     396:	73 e0       	ldi	r23, 0x03	; 3
     398:	8a eb       	ldi	r24, 0xBA	; 186
     39a:	92 e0       	ldi	r25, 0x02	; 2
     39c:	98 d2       	rcall	.+1328   	; 0x8ce <can_rx>
	can_rx(&fusebox_mob, mob_databytes[FUSEBOX_DATA]);
     39e:	64 e1       	ldi	r22, 0x14	; 20
     3a0:	73 e0       	ldi	r23, 0x03	; 3
     3a2:	84 e4       	ldi	r24, 0x44	; 68
     3a4:	93 e0       	ldi	r25, 0x03	; 3
     3a6:	93 d2       	rcall	.+1318   	; 0x8ce <can_rx>
	can_rx(&swc_mob, mob_databytes[SWC_DATA]);
     3a8:	6c e1       	ldi	r22, 0x1C	; 28
     3aa:	73 e0       	ldi	r23, 0x03	; 3
     3ac:	88 ea       	ldi	r24, 0xA8	; 168
     3ae:	92 e0       	ldi	r25, 0x02	; 2
     3b0:	8e d2       	rcall	.+1308   	; 0x8ce <can_rx>
	can_rx(&inv01_mob, mob_databytes[INV01_DATA]);
     3b2:	6c e2       	ldi	r22, 0x2C	; 44
     3b4:	73 e0       	ldi	r23, 0x03	; 3
     3b6:	82 ed       	ldi	r24, 0xD2	; 210
     3b8:	92 e0       	ldi	r25, 0x02	; 2
     3ba:	89 d2       	rcall	.+1298   	; 0x8ce <can_rx>
	can_rx(&inv11_mob, mob_databytes[INV11_DATA]);
     3bc:	6c e3       	ldi	r22, 0x3C	; 60
     3be:	73 e0       	ldi	r23, 0x03	; 3
     3c0:	8c ec       	ldi	r24, 0xCC	; 204
     3c2:	92 e0       	ldi	r25, 0x02	; 2
     3c4:	84 d2       	rcall	.+1288   	; 0x8ce <can_rx>
     3c6:	00 00       	nop
	
	
}
     3c8:	0f 90       	pop	r0
     3ca:	df 91       	pop	r29
     3cc:	cf 91       	pop	r28
     3ce:	08 95       	ret

000003d0 <can_transmit>:

void can_transmit(){
     3d0:	cf 93       	push	r28
     3d2:	df 93       	push	r29
     3d4:	cd b7       	in	r28, 0x3d	; 61
     3d6:	de b7       	in	r29, 0x3e	; 62
	can_tx(&dic_mob, mob_databytes[DIC_DATA]);
     3d8:	6c e0       	ldi	r22, 0x0C	; 12
     3da:	73 e0       	ldi	r23, 0x03	; 3
     3dc:	82 ea       	ldi	r24, 0xA2	; 162
     3de:	92 e0       	ldi	r25, 0x02	; 2
     3e0:	12 d3       	rcall	.+1572   	; 0xa06 <can_tx>
     3e2:	00 00       	nop
}
     3e4:	df 91       	pop	r29
     3e6:	cf 91       	pop	r28
     3e8:	08 95       	ret

000003ea <get_dsp_mode>:
     3ea:	cf 93       	push	r28

uint8_t get_dsp_mode(){
     3ec:	df 93       	push	r29
     3ee:	cd b7       	in	r28, 0x3d	; 61
     3f0:	de b7       	in	r29, 0x3e	; 62
     3f2:	80 91 1c 03 	lds	r24, 0x031C	; 0x80031c <mob_databytes+0x38>
	return mob_databytes[SWC_DATA][DSP_MODE_BYTE];
     3f6:	df 91       	pop	r29
}
     3f8:	cf 91       	pop	r28
     3fa:	08 95       	ret

000003fc <get_mob_data>:
     3fc:	cf 93       	push	r28

uint8_t* get_mob_data(uint8_t mob){
     3fe:	df 93       	push	r29
     400:	1f 92       	push	r1
     402:	cd b7       	in	r28, 0x3d	; 61
     404:	de b7       	in	r29, 0x3e	; 62
     406:	89 83       	std	Y+1, r24	; 0x01
     408:	89 81       	ldd	r24, Y+1	; 0x01
	return mob_databytes[mob];
     40a:	88 2f       	mov	r24, r24
     40c:	90 e0       	ldi	r25, 0x00	; 0
     40e:	88 0f       	add	r24, r24
     410:	99 1f       	adc	r25, r25
     412:	88 0f       	add	r24, r24
     414:	99 1f       	adc	r25, r25
     416:	88 0f       	add	r24, r24
     418:	99 1f       	adc	r25, r25
     41a:	8c 51       	subi	r24, 0x1C	; 28
     41c:	9d 4f       	sbci	r25, 0xFD	; 253
     41e:	0f 90       	pop	r0
}
     420:	df 91       	pop	r29
     422:	cf 91       	pop	r28
     424:	08 95       	ret

00000426 <can_put_data>:
     426:	cf 93       	push	r28

void can_put_data(){
     428:	df 93       	push	r29
     42a:	cd b7       	in	r28, 0x3d	; 61
     42c:	de b7       	in	r29, 0x3e	; 62
     42e:	80 91 e4 02 	lds	r24, 0x02E4	; 0x8002e4 <mob_databytes>
	
	ts_voltage = (mob_databytes[AMS0_DATA][0] | (mob_databytes[AMS0_DATA][1] << 8));
     432:	28 2f       	mov	r18, r24
     434:	30 e0       	ldi	r19, 0x00	; 0
     436:	80 91 e5 02 	lds	r24, 0x02E5	; 0x8002e5 <mob_databytes+0x1>
     43a:	88 2f       	mov	r24, r24
     43c:	90 e0       	ldi	r25, 0x00	; 0
     43e:	98 2f       	mov	r25, r24
     440:	88 27       	eor	r24, r24
     442:	82 2b       	or	r24, r18
     444:	93 2b       	or	r25, r19
     446:	90 93 59 02 	sts	0x0259, r25	; 0x800259 <__data_end+0x1>
     44a:	80 93 58 02 	sts	0x0258, r24	; 0x800258 <__data_end>
     44e:	80 91 58 02 	lds	r24, 0x0258	; 0x800258 <__data_end>
	ts_voltage = ts_voltage/100;
     452:	90 91 59 02 	lds	r25, 0x0259	; 0x800259 <__data_end+0x1>
     456:	96 95       	lsr	r25
     458:	87 95       	ror	r24
     45a:	96 95       	lsr	r25
     45c:	87 95       	ror	r24
     45e:	9c 01       	movw	r18, r24
     460:	ab e7       	ldi	r26, 0x7B	; 123
     462:	b4 e1       	ldi	r27, 0x14	; 20
     464:	0e 94 4b 1a 	call	0x3496	; 0x3496 <__umulhisi3>
     468:	96 95       	lsr	r25
     46a:	87 95       	ror	r24
     46c:	90 93 59 02 	sts	0x0259, r25	; 0x800259 <__data_end+0x1>
     470:	80 93 58 02 	sts	0x0258, r24	; 0x800258 <__data_end>
     474:	80 91 ea 02 	lds	r24, 0x02EA	; 0x8002ea <mob_databytes+0x6>
	//ts_current = mob_databytes[AMS0_DATA][2] | (mob_databytes[AMS0_DATA][3] << 8);
	//state_of_charge = mob_databytes[AMS0_DATA][4] | (mob_databytes[AMS0_DATA][5] << 8);
	ams_error = ((mob_databytes[AMS0_DATA][6]>>7) & 1);
     478:	88 1f       	adc	r24, r24
     47a:	88 27       	eor	r24, r24
     47c:	88 1f       	adc	r24, r24
     47e:	80 93 5e 02 	sts	0x025E, r24	; 0x80025e <ams_error>
     482:	80 91 ea 02 	lds	r24, 0x02EA	; 0x8002ea <mob_databytes+0x6>
	imd_error = ((mob_databytes[AMS0_DATA][6]>>6) & 1);
     486:	82 95       	swap	r24
     488:	86 95       	lsr	r24
     48a:	86 95       	lsr	r24
     48c:	83 70       	andi	r24, 0x03	; 3
     48e:	81 70       	andi	r24, 0x01	; 1
     490:	80 93 5f 02 	sts	0x025F, r24	; 0x80025f <imd_error>
     494:	80 91 5f 02 	lds	r24, 0x025F	; 0x80025f <imd_error>
	if (imd_error == 0){
     498:	88 23       	and	r24, r24
     49a:	49 f4       	brne	.+18     	; 0x4ae <can_put_data+0x88>
     49c:	82 e2       	ldi	r24, 0x22	; 34
		//pre_defined_led_colors(PE_RED);
		PORTA |= (0<<PA2);
     49e:	90 e0       	ldi	r25, 0x00	; 0
     4a0:	22 e2       	ldi	r18, 0x22	; 34
     4a2:	30 e0       	ldi	r19, 0x00	; 0
     4a4:	f9 01       	movw	r30, r18
     4a6:	20 81       	ld	r18, Z
     4a8:	fc 01       	movw	r30, r24
     4aa:	20 83       	st	Z, r18
     4ac:	09 c0       	rjmp	.+18     	; 0x4c0 <can_put_data+0x9a>
     4ae:	82 e2       	ldi	r24, 0x22	; 34
		//extender_leds_blocking(RGB_LEFT,0|(0<<F_RED));
	}
	else
	{
		//pre_defined_led_colors(PE_OFF);
		PORTA |= (1<<PA2);
     4b0:	90 e0       	ldi	r25, 0x00	; 0
     4b2:	22 e2       	ldi	r18, 0x22	; 34
     4b4:	30 e0       	ldi	r19, 0x00	; 0
     4b6:	f9 01       	movw	r30, r18
     4b8:	20 81       	ld	r18, Z
     4ba:	24 60       	ori	r18, 0x04	; 4
     4bc:	fc 01       	movw	r30, r24
     4be:	20 83       	st	Z, r18
     4c0:	80 91 ea 02 	lds	r24, 0x02EA	; 0x8002ea <mob_databytes+0x6>
		//extender_leds_blocking(RGB_LEFT,0|(1<<F_RED));
	}
	//can_ok = ((mob_databytes[AMS0_DATA][6]>>5) & 1);
	precharge_active = ((mob_databytes[AMS0_DATA][6]>>4) & 1);
     4c4:	82 95       	swap	r24
     4c6:	8f 70       	andi	r24, 0x0F	; 15
     4c8:	81 70       	andi	r24, 0x01	; 1
     4ca:	80 93 61 02 	sts	0x0261, r24	; 0x800261 <precharge_active>
     4ce:	80 91 ec 02 	lds	r24, 0x02EC	; 0x8002ec <mob_databytes+0x8>
    //TS_RDY = ((mob_databytes[AMS0_DATA][6]>>3) & 1);
	
	bms_min_voltage = mob_databytes[AMS1_DATA][0] | (mob_databytes[AMS1_DATA][1] << 8);
     4d2:	28 2f       	mov	r18, r24
     4d4:	30 e0       	ldi	r19, 0x00	; 0
     4d6:	80 91 ed 02 	lds	r24, 0x02ED	; 0x8002ed <mob_databytes+0x9>
     4da:	88 2f       	mov	r24, r24
     4dc:	90 e0       	ldi	r25, 0x00	; 0
     4de:	98 2f       	mov	r25, r24
     4e0:	88 27       	eor	r24, r24
     4e2:	82 2b       	or	r24, r18
     4e4:	93 2b       	or	r25, r19
     4e6:	90 93 66 02 	sts	0x0266, r25	; 0x800266 <bms_min_voltage+0x1>
     4ea:	80 93 65 02 	sts	0x0265, r24	; 0x800265 <bms_min_voltage>
     4ee:	80 91 65 02 	lds	r24, 0x0265	; 0x800265 <bms_min_voltage>
	bms_min_voltage = bms_min_voltage/100;
     4f2:	90 91 66 02 	lds	r25, 0x0266	; 0x800266 <bms_min_voltage+0x1>
     4f6:	96 95       	lsr	r25
     4f8:	87 95       	ror	r24
     4fa:	96 95       	lsr	r25
     4fc:	87 95       	ror	r24
     4fe:	9c 01       	movw	r18, r24
     500:	ab e7       	ldi	r26, 0x7B	; 123
     502:	b4 e1       	ldi	r27, 0x14	; 20
     504:	0e 94 4b 1a 	call	0x3496	; 0x3496 <__umulhisi3>
     508:	96 95       	lsr	r25
     50a:	87 95       	ror	r24
     50c:	90 93 66 02 	sts	0x0266, r25	; 0x800266 <bms_min_voltage+0x1>
     510:	80 93 65 02 	sts	0x0265, r24	; 0x800265 <bms_min_voltage>
     514:	80 91 f2 02 	lds	r24, 0x02F2	; 0x8002f2 <mob_databytes+0xe>
	//bms_max_voltage = mob_databytes[AMS1_DATA][2] | (mob_databytes[AMS1_DATA][3] << 8);
	//bms_min_temp = (mob_databytes[AMS1_DATA][4] | (mob_databytes[AMS1_DATA][5] << 8))/100;
	bms_max_temp = (mob_databytes[AMS1_DATA][6] | (mob_databytes[AMS1_DATA][7] << 8));
     518:	28 2f       	mov	r18, r24
     51a:	30 e0       	ldi	r19, 0x00	; 0
     51c:	80 91 f3 02 	lds	r24, 0x02F3	; 0x8002f3 <mob_databytes+0xf>
     520:	88 2f       	mov	r24, r24
     522:	90 e0       	ldi	r25, 0x00	; 0
     524:	98 2f       	mov	r25, r24
     526:	88 27       	eor	r24, r24
     528:	82 2b       	or	r24, r18
     52a:	93 2b       	or	r25, r19
     52c:	90 93 68 02 	sts	0x0268, r25	; 0x800268 <bms_max_temp+0x1>
     530:	80 93 67 02 	sts	0x0267, r24	; 0x800267 <bms_max_temp>
     534:	80 91 67 02 	lds	r24, 0x0267	; 0x800267 <bms_max_temp>
	bms_max_temp = bms_max_temp/100;
     538:	90 91 68 02 	lds	r25, 0x0268	; 0x800268 <bms_max_temp+0x1>
     53c:	96 95       	lsr	r25
     53e:	87 95       	ror	r24
     540:	96 95       	lsr	r25
     542:	87 95       	ror	r24
     544:	9c 01       	movw	r18, r24
     546:	ab e7       	ldi	r26, 0x7B	; 123
     548:	b4 e1       	ldi	r27, 0x14	; 20
     54a:	0e 94 4b 1a 	call	0x3496	; 0x3496 <__umulhisi3>
     54e:	96 95       	lsr	r25
     550:	87 95       	ror	r24
     552:	90 93 68 02 	sts	0x0268, r25	; 0x800268 <bms_max_temp+0x1>
     556:	80 93 67 02 	sts	0x0267, r24	; 0x800267 <bms_max_temp>
     55a:	80 91 f4 02 	lds	r24, 0x02F4	; 0x8002f4 <mob_databytes+0x10>
	
	APPS1 = mob_databytes[SHR_DATA][0] | (mob_databytes[SHR_DATA][1] << 8);
     55e:	28 2f       	mov	r18, r24
     560:	30 e0       	ldi	r19, 0x00	; 0
     562:	80 91 f5 02 	lds	r24, 0x02F5	; 0x8002f5 <mob_databytes+0x11>
     566:	88 2f       	mov	r24, r24
     568:	90 e0       	ldi	r25, 0x00	; 0
     56a:	98 2f       	mov	r25, r24
     56c:	88 27       	eor	r24, r24
     56e:	82 2b       	or	r24, r18
     570:	93 2b       	or	r25, r19
     572:	90 93 6c 02 	sts	0x026C, r25	; 0x80026c <APPS1+0x1>
     576:	80 93 6b 02 	sts	0x026B, r24	; 0x80026b <APPS1>
     57a:	80 91 f6 02 	lds	r24, 0x02F6	; 0x8002f6 <mob_databytes+0x12>
	APPS2 = mob_databytes[SHR_DATA][2] | (mob_databytes[SHR_DATA][3] << 8);
     57e:	28 2f       	mov	r18, r24
     580:	30 e0       	ldi	r19, 0x00	; 0
     582:	80 91 f7 02 	lds	r24, 0x02F7	; 0x8002f7 <mob_databytes+0x13>
     586:	88 2f       	mov	r24, r24
     588:	90 e0       	ldi	r25, 0x00	; 0
     58a:	98 2f       	mov	r25, r24
     58c:	88 27       	eor	r24, r24
     58e:	82 2b       	or	r24, r18
     590:	93 2b       	or	r25, r19
     592:	90 93 6e 02 	sts	0x026E, r25	; 0x80026e <APPS2+0x1>
     596:	80 93 6d 02 	sts	0x026D, r24	; 0x80026d <APPS2>
     59a:	80 91 fc 02 	lds	r24, 0x02FC	; 0x8002fc <mob_databytes+0x18>
	BPSF = mob_databytes[SHL_DATA][0] | (mob_databytes[SHL_DATA][1] << 8);
     59e:	28 2f       	mov	r18, r24
     5a0:	30 e0       	ldi	r19, 0x00	; 0
     5a2:	80 91 fd 02 	lds	r24, 0x02FD	; 0x8002fd <mob_databytes+0x19>
     5a6:	88 2f       	mov	r24, r24
     5a8:	90 e0       	ldi	r25, 0x00	; 0
     5aa:	98 2f       	mov	r25, r24
     5ac:	88 27       	eor	r24, r24
     5ae:	82 2b       	or	r24, r18
     5b0:	93 2b       	or	r25, r19
     5b2:	90 93 70 02 	sts	0x0270, r25	; 0x800270 <BPSF+0x1>
     5b6:	80 93 6f 02 	sts	0x026F, r24	; 0x80026f <BPSF>
     5ba:	80 91 fe 02 	lds	r24, 0x02FE	; 0x8002fe <mob_databytes+0x1a>
	BPSR = mob_databytes[SHL_DATA][2] | (mob_databytes[SHL_DATA][3] << 8);
     5be:	28 2f       	mov	r18, r24
     5c0:	30 e0       	ldi	r19, 0x00	; 0
     5c2:	80 91 ff 02 	lds	r24, 0x02FF	; 0x8002ff <mob_databytes+0x1b>
     5c6:	88 2f       	mov	r24, r24
     5c8:	90 e0       	ldi	r25, 0x00	; 0
     5ca:	98 2f       	mov	r25, r24
     5cc:	88 27       	eor	r24, r24
     5ce:	82 2b       	or	r24, r18
     5d0:	93 2b       	or	r25, r19
     5d2:	90 93 72 02 	sts	0x0272, r25	; 0x800272 <BPSR+0x1>
     5d6:	80 93 71 02 	sts	0x0271, r24	; 0x800271 <BPSR>
     5da:	80 e2       	ldi	r24, 0x20	; 32
	//cooling_1 = (mob_databytes[SHB_DATA][0] | (mob_databytes[SHB_DATA][1] << 8));
	//cooling_2 = mob_databytes[SHB_DATA][2] | (mob_databytes[SHB_DATA][3] << 8);
	//cooling_temp = (cooling_1 + cooling_2) / 2 ;		//Mittelwert aus cooling 1 und 2
	//cooling_temp_deg =  ((0.128*cooling_1) - (8.137))*10; // NTC Kurve ist linearisiert im Bereich 80°-20°, außerhalb ungenauer
	
	TS_ON = (~PINA & (1 << PA0));
     5dc:	90 e0       	ldi	r25, 0x00	; 0
     5de:	fc 01       	movw	r30, r24
     5e0:	80 81       	ld	r24, Z
     5e2:	88 2f       	mov	r24, r24
     5e4:	90 e0       	ldi	r25, 0x00	; 0
     5e6:	81 70       	andi	r24, 0x01	; 1
     5e8:	99 27       	eor	r25, r25
     5ea:	21 e0       	ldi	r18, 0x01	; 1
     5ec:	89 2b       	or	r24, r25
     5ee:	09 f0       	breq	.+2      	; 0x5f2 <can_put_data+0x1cc>
     5f0:	20 e0       	ldi	r18, 0x00	; 0
     5f2:	82 2f       	mov	r24, r18
     5f4:	80 93 82 02 	sts	0x0282, r24	; 0x800282 <TS_ON>
     5f8:	10 92 81 02 	sts	0x0281, r1	; 0x800281 <Ready_2_Drive>
	Ready_2_Drive = 0;
     5fc:	80 e2       	ldi	r24, 0x20	; 32
	/*
	if (BPSR >= 10 && precharge_active){
		Ready_2_Drive = (~PINA >> PA1) & PA1;
	}
	*/
	Ready_2_Drive = (~PINA >> PA1) & PA1;
     5fe:	90 e0       	ldi	r25, 0x00	; 0
     600:	fc 01       	movw	r30, r24
     602:	80 81       	ld	r24, Z
     604:	88 2f       	mov	r24, r24
     606:	90 e0       	ldi	r25, 0x00	; 0
     608:	80 95       	com	r24
     60a:	90 95       	com	r25
     60c:	95 95       	asr	r25
     60e:	87 95       	ror	r24
     610:	81 70       	andi	r24, 0x01	; 1
     612:	80 93 81 02 	sts	0x0281, r24	; 0x800281 <Ready_2_Drive>
     616:	80 91 16 03 	lds	r24, 0x0316	; 0x800316 <mob_databytes+0x32>
	battery_voltage = mob_databytes[FUSEBOX_DATA][2] | (mob_databytes[FUSEBOX_DATA][3] << 8);
     61a:	28 2f       	mov	r18, r24
     61c:	30 e0       	ldi	r19, 0x00	; 0
     61e:	80 91 17 03 	lds	r24, 0x0317	; 0x800317 <mob_databytes+0x33>
     622:	88 2f       	mov	r24, r24
     624:	90 e0       	ldi	r25, 0x00	; 0
     626:	98 2f       	mov	r25, r24
     628:	88 27       	eor	r24, r24
     62a:	82 2b       	or	r24, r18
     62c:	93 2b       	or	r25, r19
     62e:	90 93 85 02 	sts	0x0285, r25	; 0x800285 <battery_voltage+0x1>
     632:	80 93 84 02 	sts	0x0284, r24	; 0x800284 <battery_voltage>
     636:	80 91 2f 03 	lds	r24, 0x032F	; 0x80032f <mob_databytes+0x4b>
	//SDCIFB = mob_databytes[FUSEBOX_DATA][4];
	//fuse_readout = mob_databytes[FUSEBOX_DATA][6] | (mob_databytes[FUSEBOX_DATA][7] << 8);
	
	motor_temp_1 = (mob_databytes[INV01_DATA][3] | (mob_databytes[INV01_DATA][2] << 8));
     63a:	28 2f       	mov	r18, r24
     63c:	30 e0       	ldi	r19, 0x00	; 0
     63e:	80 91 2e 03 	lds	r24, 0x032E	; 0x80032e <mob_databytes+0x4a>
     642:	88 2f       	mov	r24, r24
     644:	90 e0       	ldi	r25, 0x00	; 0
     646:	98 2f       	mov	r25, r24
     648:	88 27       	eor	r24, r24
     64a:	82 2b       	or	r24, r18
     64c:	93 2b       	or	r25, r19
     64e:	90 93 97 02 	sts	0x0297, r25	; 0x800297 <motor_temp_1+0x1>
     652:	80 93 96 02 	sts	0x0296, r24	; 0x800296 <motor_temp_1>
     656:	80 91 3f 03 	lds	r24, 0x033F	; 0x80033f <mob_databytes+0x5b>
	motor_temp_0 = (mob_databytes[INV11_DATA][3] | (mob_databytes[INV11_DATA][2] << 8));
     65a:	28 2f       	mov	r18, r24
     65c:	30 e0       	ldi	r19, 0x00	; 0
     65e:	80 91 3e 03 	lds	r24, 0x033E	; 0x80033e <mob_databytes+0x5a>
     662:	88 2f       	mov	r24, r24
     664:	90 e0       	ldi	r25, 0x00	; 0
     666:	98 2f       	mov	r25, r24
     668:	88 27       	eor	r24, r24
     66a:	82 2b       	or	r24, r18
     66c:	93 2b       	or	r25, r19
     66e:	90 93 92 02 	sts	0x0292, r25	; 0x800292 <motor_temp_0+0x1>
     672:	80 93 91 02 	sts	0x0291, r24	; 0x800291 <motor_temp_0>
     676:	20 91 96 02 	lds	r18, 0x0296	; 0x800296 <motor_temp_1>
	
	if (motor_temp_1>motor_temp_0)
     67a:	30 91 97 02 	lds	r19, 0x0297	; 0x800297 <motor_temp_1+0x1>
     67e:	80 91 91 02 	lds	r24, 0x0291	; 0x800291 <motor_temp_0>
     682:	90 91 92 02 	lds	r25, 0x0292	; 0x800292 <motor_temp_0+0x1>
     686:	82 17       	cp	r24, r18
     688:	93 07       	cpc	r25, r19
     68a:	48 f4       	brcc	.+18     	; 0x69e <can_put_data+0x278>
     68c:	80 91 96 02 	lds	r24, 0x0296	; 0x800296 <motor_temp_1>
	{
		motor_temp = motor_temp_1;
     690:	90 91 97 02 	lds	r25, 0x0297	; 0x800297 <motor_temp_1+0x1>
     694:	90 93 7e 02 	sts	0x027E, r25	; 0x80027e <motor_temp+0x1>
     698:	80 93 7d 02 	sts	0x027D, r24	; 0x80027d <motor_temp>
     69c:	08 c0       	rjmp	.+16     	; 0x6ae <can_put_data+0x288>
     69e:	80 91 91 02 	lds	r24, 0x0291	; 0x800291 <motor_temp_0>
	} 
	else
	{
		motor_temp = motor_temp_0;
     6a2:	90 91 92 02 	lds	r25, 0x0292	; 0x800292 <motor_temp_0+0x1>
     6a6:	90 93 7e 02 	sts	0x027E, r25	; 0x80027e <motor_temp+0x1>
     6aa:	80 93 7d 02 	sts	0x027D, r24	; 0x80027d <motor_temp>
     6ae:	80 91 2d 03 	lds	r24, 0x032D	; 0x80032d <mob_databytes+0x49>
	}
	
	mcu_temp_0 = (mob_databytes[INV01_DATA][1] | (mob_databytes[INV01_DATA][0] << 8));
     6b2:	28 2f       	mov	r18, r24
     6b4:	30 e0       	ldi	r19, 0x00	; 0
     6b6:	80 91 2c 03 	lds	r24, 0x032C	; 0x80032c <mob_databytes+0x48>
     6ba:	88 2f       	mov	r24, r24
     6bc:	90 e0       	ldi	r25, 0x00	; 0
     6be:	98 2f       	mov	r25, r24
     6c0:	88 27       	eor	r24, r24
     6c2:	82 2b       	or	r24, r18
     6c4:	93 2b       	or	r25, r19
     6c6:	90 93 90 02 	sts	0x0290, r25	; 0x800290 <mcu_temp_0+0x1>
     6ca:	80 93 8f 02 	sts	0x028F, r24	; 0x80028f <mcu_temp_0>
     6ce:	80 91 3d 03 	lds	r24, 0x033D	; 0x80033d <mob_databytes+0x59>
	mcu_temp_1 = (mob_databytes[INV11_DATA][1] | (mob_databytes[INV11_DATA][0] << 8));
     6d2:	28 2f       	mov	r18, r24
     6d4:	30 e0       	ldi	r19, 0x00	; 0
     6d6:	80 91 3c 03 	lds	r24, 0x033C	; 0x80033c <mob_databytes+0x58>
     6da:	88 2f       	mov	r24, r24
     6dc:	90 e0       	ldi	r25, 0x00	; 0
     6de:	98 2f       	mov	r25, r24
     6e0:	88 27       	eor	r24, r24
     6e2:	82 2b       	or	r24, r18
     6e4:	93 2b       	or	r25, r19
     6e6:	90 93 95 02 	sts	0x0295, r25	; 0x800295 <mcu_temp_1+0x1>
     6ea:	80 93 94 02 	sts	0x0294, r24	; 0x800294 <mcu_temp_1>
     6ee:	20 91 94 02 	lds	r18, 0x0294	; 0x800294 <mcu_temp_1>
	
	if (mcu_temp_1>mcu_temp_0)
     6f2:	30 91 95 02 	lds	r19, 0x0295	; 0x800295 <mcu_temp_1+0x1>
     6f6:	80 91 8f 02 	lds	r24, 0x028F	; 0x80028f <mcu_temp_0>
     6fa:	90 91 90 02 	lds	r25, 0x0290	; 0x800290 <mcu_temp_0+0x1>
     6fe:	82 17       	cp	r24, r18
     700:	93 07       	cpc	r25, r19
     702:	48 f4       	brcc	.+18     	; 0x716 <can_put_data+0x2f0>
     704:	80 91 94 02 	lds	r24, 0x0294	; 0x800294 <mcu_temp_1>
	{
		mcu_temp = mcu_temp_1;
     708:	90 91 95 02 	lds	r25, 0x0295	; 0x800295 <mcu_temp_1+0x1>
     70c:	90 93 80 02 	sts	0x0280, r25	; 0x800280 <mcu_temp+0x1>
     710:	80 93 7f 02 	sts	0x027F, r24	; 0x80027f <mcu_temp>
     714:	08 c0       	rjmp	.+16     	; 0x726 <can_put_data+0x300>
     716:	80 91 8f 02 	lds	r24, 0x028F	; 0x80028f <mcu_temp_0>
	}
	else
	{
		mcu_temp = mcu_temp_0;
     71a:	90 91 90 02 	lds	r25, 0x0290	; 0x800290 <mcu_temp_0+0x1>
     71e:	90 93 80 02 	sts	0x0280, r25	; 0x800280 <mcu_temp+0x1>
     722:	80 93 7f 02 	sts	0x027F, r24	; 0x80027f <mcu_temp>
     726:	80 91 82 02 	lds	r24, 0x0282	; 0x800282 <TS_ON>
	}
	mob_databytes[DIC_DATA][0] = TS_ON;
     72a:	80 93 0c 03 	sts	0x030C, r24	; 0x80030c <mob_databytes+0x28>
     72e:	80 91 81 02 	lds	r24, 0x0281	; 0x800281 <Ready_2_Drive>
	mob_databytes[DIC_DATA][1] = Ready_2_Drive;
     732:	80 93 0d 03 	sts	0x030D, r24	; 0x80030d <mob_databytes+0x29>
     736:	80 91 83 02 	lds	r24, 0x0283	; 0x800283 <SDCIDIC>
	mob_databytes[DIC_DATA][2] = SDCIDIC;
     73a:	80 93 0e 03 	sts	0x030E, r24	; 0x80030e <mob_databytes+0x2a>
     73e:	00 00       	nop
	
	
	
	
}
     740:	df 91       	pop	r29
     742:	cf 91       	pop	r28
     744:	08 95       	ret

00000746 <can_check_free>:

#include "canlib.h"



uint8_t can_check_free(uint8_t mobnum){
     746:	cf 93       	push	r28
     748:	df 93       	push	r29
     74a:	00 d0       	rcall	.+0      	; 0x74c <can_check_free+0x6>
     74c:	cd b7       	in	r28, 0x3d	; 61
     74e:	de b7       	in	r29, 0x3e	; 62
     750:	8a 83       	std	Y+2, r24	; 0x02
	
	uint8_t mob_status = 0;
     752:	19 82       	std	Y+1, r1	; 0x01
	
	if(mobnum >= 8){
     754:	8a 81       	ldd	r24, Y+2	; 0x02
     756:	88 30       	cpi	r24, 0x08	; 8
     758:	c0 f0       	brcs	.+48     	; 0x78a <can_check_free+0x44>
		
		mob_status = !((CANEN1 >> (mobnum-8)) &1);
     75a:	8d ed       	ldi	r24, 0xDD	; 221
     75c:	90 e0       	ldi	r25, 0x00	; 0
     75e:	fc 01       	movw	r30, r24
     760:	80 81       	ld	r24, Z
     762:	88 2f       	mov	r24, r24
     764:	90 e0       	ldi	r25, 0x00	; 0
     766:	2a 81       	ldd	r18, Y+2	; 0x02
     768:	22 2f       	mov	r18, r18
     76a:	30 e0       	ldi	r19, 0x00	; 0
     76c:	28 50       	subi	r18, 0x08	; 8
     76e:	31 09       	sbc	r19, r1
     770:	02 c0       	rjmp	.+4      	; 0x776 <can_check_free+0x30>
     772:	95 95       	asr	r25
     774:	87 95       	ror	r24
     776:	2a 95       	dec	r18
     778:	e2 f7       	brpl	.-8      	; 0x772 <can_check_free+0x2c>
     77a:	81 70       	andi	r24, 0x01	; 1
     77c:	99 27       	eor	r25, r25
     77e:	21 e0       	ldi	r18, 0x01	; 1
     780:	89 2b       	or	r24, r25
     782:	09 f0       	breq	.+2      	; 0x786 <can_check_free+0x40>
     784:	20 e0       	ldi	r18, 0x00	; 0
     786:	29 83       	std	Y+1, r18	; 0x01
     788:	15 c0       	rjmp	.+42     	; 0x7b4 <can_check_free+0x6e>


		} else {
		
		mob_status = !((CANEN2 >> mobnum) &1);
     78a:	8c ed       	ldi	r24, 0xDC	; 220
     78c:	90 e0       	ldi	r25, 0x00	; 0
     78e:	fc 01       	movw	r30, r24
     790:	80 81       	ld	r24, Z
     792:	88 2f       	mov	r24, r24
     794:	90 e0       	ldi	r25, 0x00	; 0
     796:	2a 81       	ldd	r18, Y+2	; 0x02
     798:	22 2f       	mov	r18, r18
     79a:	30 e0       	ldi	r19, 0x00	; 0
     79c:	02 c0       	rjmp	.+4      	; 0x7a2 <can_check_free+0x5c>
     79e:	95 95       	asr	r25
     7a0:	87 95       	ror	r24
     7a2:	2a 95       	dec	r18
     7a4:	e2 f7       	brpl	.-8      	; 0x79e <can_check_free+0x58>
     7a6:	81 70       	andi	r24, 0x01	; 1
     7a8:	99 27       	eor	r25, r25
     7aa:	21 e0       	ldi	r18, 0x01	; 1
     7ac:	89 2b       	or	r24, r25
     7ae:	09 f0       	breq	.+2      	; 0x7b2 <can_check_free+0x6c>
     7b0:	20 e0       	ldi	r18, 0x00	; 0
     7b2:	29 83       	std	Y+1, r18	; 0x01
	}

	return mob_status;
     7b4:	89 81       	ldd	r24, Y+1	; 0x01
	
}
     7b6:	0f 90       	pop	r0
     7b8:	0f 90       	pop	r0
     7ba:	df 91       	pop	r29
     7bc:	cf 91       	pop	r28
     7be:	08 95       	ret

000007c0 <can_cfg>:
void can_cfg(){
     7c0:	cf 93       	push	r28
     7c2:	df 93       	push	r29
     7c4:	00 d0       	rcall	.+0      	; 0x7c6 <can_cfg+0x6>
     7c6:	cd b7       	in	r28, 0x3d	; 61
     7c8:	de b7       	in	r29, 0x3e	; 62
	
	CANGCON = 0; // Disable CAN
     7ca:	88 ed       	ldi	r24, 0xD8	; 216
     7cc:	90 e0       	ldi	r25, 0x00	; 0
     7ce:	fc 01       	movw	r30, r24
     7d0:	10 82       	st	Z, r1
	
	for (uint8_t mob = 0; mob < 15 ; mob++){//reset all mobs
     7d2:	19 82       	std	Y+1, r1	; 0x01
     7d4:	56 c0       	rjmp	.+172    	; 0x882 <can_cfg+0xc2>
		CANPAGE = mob<<MOBNB0 | (1<<AINC);
     7d6:	8d ee       	ldi	r24, 0xED	; 237
     7d8:	90 e0       	ldi	r25, 0x00	; 0
     7da:	29 81       	ldd	r18, Y+1	; 0x01
     7dc:	22 2f       	mov	r18, r18
     7de:	30 e0       	ldi	r19, 0x00	; 0
     7e0:	22 95       	swap	r18
     7e2:	32 95       	swap	r19
     7e4:	30 7f       	andi	r19, 0xF0	; 240
     7e6:	32 27       	eor	r19, r18
     7e8:	20 7f       	andi	r18, 0xF0	; 240
     7ea:	32 27       	eor	r19, r18
     7ec:	28 60       	ori	r18, 0x08	; 8
     7ee:	fc 01       	movw	r30, r24
     7f0:	20 83       	st	Z, r18
		CANSTMOB = 0;
     7f2:	8e ee       	ldi	r24, 0xEE	; 238
     7f4:	90 e0       	ldi	r25, 0x00	; 0
     7f6:	fc 01       	movw	r30, r24
     7f8:	10 82       	st	Z, r1
		CANCDMOB = 0;
     7fa:	8f ee       	ldi	r24, 0xEF	; 239
     7fc:	90 e0       	ldi	r25, 0x00	; 0
     7fe:	fc 01       	movw	r30, r24
     800:	10 82       	st	Z, r1
		CANIDT4 = 0;
     802:	80 ef       	ldi	r24, 0xF0	; 240
     804:	90 e0       	ldi	r25, 0x00	; 0
     806:	fc 01       	movw	r30, r24
     808:	10 82       	st	Z, r1
		CANIDT3 = 0;
     80a:	81 ef       	ldi	r24, 0xF1	; 241
     80c:	90 e0       	ldi	r25, 0x00	; 0
     80e:	fc 01       	movw	r30, r24
     810:	10 82       	st	Z, r1
		CANIDT2 = 0;
     812:	82 ef       	ldi	r24, 0xF2	; 242
     814:	90 e0       	ldi	r25, 0x00	; 0
     816:	fc 01       	movw	r30, r24
     818:	10 82       	st	Z, r1
		CANIDT1 = 0;
     81a:	83 ef       	ldi	r24, 0xF3	; 243
     81c:	90 e0       	ldi	r25, 0x00	; 0
     81e:	fc 01       	movw	r30, r24
     820:	10 82       	st	Z, r1
		CANIDM4 = 0;
     822:	84 ef       	ldi	r24, 0xF4	; 244
     824:	90 e0       	ldi	r25, 0x00	; 0
     826:	fc 01       	movw	r30, r24
     828:	10 82       	st	Z, r1
		CANIDM3 = 0;
     82a:	85 ef       	ldi	r24, 0xF5	; 245
     82c:	90 e0       	ldi	r25, 0x00	; 0
     82e:	fc 01       	movw	r30, r24
     830:	10 82       	st	Z, r1
		CANIDM2 = 0;
     832:	86 ef       	ldi	r24, 0xF6	; 246
     834:	90 e0       	ldi	r25, 0x00	; 0
     836:	fc 01       	movw	r30, r24
     838:	10 82       	st	Z, r1
		CANIDM1 = 0;
     83a:	87 ef       	ldi	r24, 0xF7	; 247
     83c:	90 e0       	ldi	r25, 0x00	; 0
     83e:	fc 01       	movw	r30, r24
     840:	10 82       	st	Z, r1
		for (uint8_t byte = 0; byte < 8; byte++){
     842:	1a 82       	std	Y+2, r1	; 0x02
     844:	18 c0       	rjmp	.+48     	; 0x876 <can_cfg+0xb6>
			CANPAGE = mob<<MOBNB0 | 1<<AINC | byte;
     846:	8d ee       	ldi	r24, 0xED	; 237
     848:	90 e0       	ldi	r25, 0x00	; 0
     84a:	29 81       	ldd	r18, Y+1	; 0x01
     84c:	22 2f       	mov	r18, r18
     84e:	30 e0       	ldi	r19, 0x00	; 0
     850:	22 95       	swap	r18
     852:	32 95       	swap	r19
     854:	30 7f       	andi	r19, 0xF0	; 240
     856:	32 27       	eor	r19, r18
     858:	20 7f       	andi	r18, 0xF0	; 240
     85a:	32 27       	eor	r19, r18
     85c:	32 2f       	mov	r19, r18
     85e:	2a 81       	ldd	r18, Y+2	; 0x02
     860:	23 2b       	or	r18, r19
     862:	28 60       	ori	r18, 0x08	; 8
     864:	fc 01       	movw	r30, r24
     866:	20 83       	st	Z, r18
			CANMSG = 0;
     868:	8a ef       	ldi	r24, 0xFA	; 250
     86a:	90 e0       	ldi	r25, 0x00	; 0
     86c:	fc 01       	movw	r30, r24
     86e:	10 82       	st	Z, r1
		CANIDT1 = 0;
		CANIDM4 = 0;
		CANIDM3 = 0;
		CANIDM2 = 0;
		CANIDM1 = 0;
		for (uint8_t byte = 0; byte < 8; byte++){
     870:	8a 81       	ldd	r24, Y+2	; 0x02
     872:	8f 5f       	subi	r24, 0xFF	; 255
     874:	8a 83       	std	Y+2, r24	; 0x02
     876:	8a 81       	ldd	r24, Y+2	; 0x02
     878:	88 30       	cpi	r24, 0x08	; 8
     87a:	28 f3       	brcs	.-54     	; 0x846 <can_cfg+0x86>
}
void can_cfg(){
	
	CANGCON = 0; // Disable CAN
	
	for (uint8_t mob = 0; mob < 15 ; mob++){//reset all mobs
     87c:	89 81       	ldd	r24, Y+1	; 0x01
     87e:	8f 5f       	subi	r24, 0xFF	; 255
     880:	89 83       	std	Y+1, r24	; 0x01
     882:	89 81       	ldd	r24, Y+1	; 0x01
     884:	8f 30       	cpi	r24, 0x0F	; 15
     886:	08 f4       	brcc	.+2      	; 0x88a <can_cfg+0xca>
     888:	a6 cf       	rjmp	.-180    	; 0x7d6 <can_cfg+0x16>
			CANPAGE = mob<<MOBNB0 | 1<<AINC | byte;
			CANMSG = 0;
		}
	}

	CANBT1 = 0x02;// Set Baudrate
     88a:	82 ee       	ldi	r24, 0xE2	; 226
     88c:	90 e0       	ldi	r25, 0x00	; 0
     88e:	22 e0       	ldi	r18, 0x02	; 2
     890:	fc 01       	movw	r30, r24
     892:	20 83       	st	Z, r18
	CANBT2 = 0x0C;// 500kBaud according
     894:	83 ee       	ldi	r24, 0xE3	; 227
     896:	90 e0       	ldi	r25, 0x00	; 0
     898:	2c e0       	ldi	r18, 0x0C	; 12
     89a:	fc 01       	movw	r30, r24
     89c:	20 83       	st	Z, r18
	CANBT3 = 0x37;// to Datasheet S. 267
     89e:	84 ee       	ldi	r24, 0xE4	; 228
     8a0:	90 e0       	ldi	r25, 0x00	; 0
     8a2:	27 e3       	ldi	r18, 0x37	; 55
     8a4:	fc 01       	movw	r30, r24
     8a6:	20 83       	st	Z, r18

	CANGIE = 0;
     8a8:	8b ed       	ldi	r24, 0xDB	; 219
     8aa:	90 e0       	ldi	r25, 0x00	; 0
     8ac:	fc 01       	movw	r30, r24
     8ae:	10 82       	st	Z, r1

	CANGCON |= (1<<ENASTB); // Enable CAN
     8b0:	88 ed       	ldi	r24, 0xD8	; 216
     8b2:	90 e0       	ldi	r25, 0x00	; 0
     8b4:	28 ed       	ldi	r18, 0xD8	; 216
     8b6:	30 e0       	ldi	r19, 0x00	; 0
     8b8:	f9 01       	movw	r30, r18
     8ba:	20 81       	ld	r18, Z
     8bc:	22 60       	ori	r18, 0x02	; 2
     8be:	fc 01       	movw	r30, r24
     8c0:	20 83       	st	Z, r18
	
	
	
}
     8c2:	00 00       	nop
     8c4:	0f 90       	pop	r0
     8c6:	0f 90       	pop	r0
     8c8:	df 91       	pop	r29
     8ca:	cf 91       	pop	r28
     8cc:	08 95       	ret

000008ce <can_rx>:
void can_rx(struct CAN_MOB *to_receive, uint8_t *data){
     8ce:	cf 93       	push	r28
     8d0:	df 93       	push	r29
     8d2:	00 d0       	rcall	.+0      	; 0x8d4 <can_rx+0x6>
     8d4:	00 d0       	rcall	.+0      	; 0x8d6 <can_rx+0x8>
     8d6:	1f 92       	push	r1
     8d8:	cd b7       	in	r28, 0x3d	; 61
     8da:	de b7       	in	r29, 0x3e	; 62
     8dc:	9b 83       	std	Y+3, r25	; 0x03
     8de:	8a 83       	std	Y+2, r24	; 0x02
     8e0:	7d 83       	std	Y+5, r23	; 0x05
     8e2:	6c 83       	std	Y+4, r22	; 0x04
	
	CANPAGE = to_receive->mob_number << MOBNB0;
     8e4:	8d ee       	ldi	r24, 0xED	; 237
     8e6:	90 e0       	ldi	r25, 0x00	; 0
     8e8:	2a 81       	ldd	r18, Y+2	; 0x02
     8ea:	3b 81       	ldd	r19, Y+3	; 0x03
     8ec:	f9 01       	movw	r30, r18
     8ee:	24 81       	ldd	r18, Z+4	; 0x04
     8f0:	35 81       	ldd	r19, Z+5	; 0x05
     8f2:	22 95       	swap	r18
     8f4:	20 7f       	andi	r18, 0xF0	; 240
     8f6:	fc 01       	movw	r30, r24
     8f8:	20 83       	st	Z, r18
	if (can_check_free(to_receive->mob_number)){
     8fa:	8a 81       	ldd	r24, Y+2	; 0x02
     8fc:	9b 81       	ldd	r25, Y+3	; 0x03
     8fe:	fc 01       	movw	r30, r24
     900:	84 81       	ldd	r24, Z+4	; 0x04
     902:	95 81       	ldd	r25, Z+5	; 0x05
     904:	20 df       	rcall	.-448    	; 0x746 <can_check_free>
     906:	88 23       	and	r24, r24
     908:	09 f4       	brne	.+2      	; 0x90c <can_rx+0x3e>
     90a:	50 c0       	rjmp	.+160    	; 0x9ac <can_rx+0xde>
		/* load the id 11 bit */
		CANIDT1 = to_receive->mob_id >>3;
     90c:	83 ef       	ldi	r24, 0xF3	; 243
     90e:	90 e0       	ldi	r25, 0x00	; 0
     910:	2a 81       	ldd	r18, Y+2	; 0x02
     912:	3b 81       	ldd	r19, Y+3	; 0x03
     914:	f9 01       	movw	r30, r18
     916:	20 81       	ld	r18, Z
     918:	31 81       	ldd	r19, Z+1	; 0x01
     91a:	36 95       	lsr	r19
     91c:	27 95       	ror	r18
     91e:	36 95       	lsr	r19
     920:	27 95       	ror	r18
     922:	36 95       	lsr	r19
     924:	27 95       	ror	r18
     926:	fc 01       	movw	r30, r24
     928:	20 83       	st	Z, r18
		CANIDT2 = (to_receive->mob_id << 5)&0b11100000;
     92a:	82 ef       	ldi	r24, 0xF2	; 242
     92c:	90 e0       	ldi	r25, 0x00	; 0
     92e:	2a 81       	ldd	r18, Y+2	; 0x02
     930:	3b 81       	ldd	r19, Y+3	; 0x03
     932:	f9 01       	movw	r30, r18
     934:	20 81       	ld	r18, Z
     936:	31 81       	ldd	r19, Z+1	; 0x01
     938:	22 95       	swap	r18
     93a:	22 0f       	add	r18, r18
     93c:	20 7e       	andi	r18, 0xE0	; 224
     93e:	fc 01       	movw	r30, r24
     940:	20 83       	st	Z, r18
		CANIDT3 = 0;
     942:	81 ef       	ldi	r24, 0xF1	; 241
     944:	90 e0       	ldi	r25, 0x00	; 0
     946:	fc 01       	movw	r30, r24
     948:	10 82       	st	Z, r1
		CANIDT4 = 1<<RTRTAG;
     94a:	80 ef       	ldi	r24, 0xF0	; 240
     94c:	90 e0       	ldi	r25, 0x00	; 0
     94e:	24 e0       	ldi	r18, 0x04	; 4
     950:	fc 01       	movw	r30, r24
     952:	20 83       	st	Z, r18
		CANIDM1 = to_receive->mob_idmask >>3;
     954:	87 ef       	ldi	r24, 0xF7	; 247
     956:	90 e0       	ldi	r25, 0x00	; 0
     958:	2a 81       	ldd	r18, Y+2	; 0x02
     95a:	3b 81       	ldd	r19, Y+3	; 0x03
     95c:	f9 01       	movw	r30, r18
     95e:	22 81       	ldd	r18, Z+2	; 0x02
     960:	33 81       	ldd	r19, Z+3	; 0x03
     962:	36 95       	lsr	r19
     964:	27 95       	ror	r18
     966:	36 95       	lsr	r19
     968:	27 95       	ror	r18
     96a:	36 95       	lsr	r19
     96c:	27 95       	ror	r18
     96e:	fc 01       	movw	r30, r24
     970:	20 83       	st	Z, r18
		CANIDM2 = (to_receive->mob_idmask <<5)&0b11100000;
     972:	86 ef       	ldi	r24, 0xF6	; 246
     974:	90 e0       	ldi	r25, 0x00	; 0
     976:	2a 81       	ldd	r18, Y+2	; 0x02
     978:	3b 81       	ldd	r19, Y+3	; 0x03
     97a:	f9 01       	movw	r30, r18
     97c:	22 81       	ldd	r18, Z+2	; 0x02
     97e:	33 81       	ldd	r19, Z+3	; 0x03
     980:	22 95       	swap	r18
     982:	22 0f       	add	r18, r18
     984:	20 7e       	andi	r18, 0xE0	; 224
     986:	fc 01       	movw	r30, r24
     988:	20 83       	st	Z, r18
		CANIDM3 = 0;
     98a:	85 ef       	ldi	r24, 0xF5	; 245
     98c:	90 e0       	ldi	r25, 0x00	; 0
     98e:	fc 01       	movw	r30, r24
     990:	10 82       	st	Z, r1
		CANIDM4 = 0;
     992:	84 ef       	ldi	r24, 0xF4	; 244
     994:	90 e0       	ldi	r25, 0x00	; 0
     996:	fc 01       	movw	r30, r24
     998:	10 82       	st	Z, r1
		CANCDMOB = (1 << CONMOB1) | (1 << CONMOB0)| (1<<DLC3);
     99a:	8f ee       	ldi	r24, 0xEF	; 239
     99c:	90 e0       	ldi	r25, 0x00	; 0
     99e:	28 ec       	ldi	r18, 0xC8	; 200
     9a0:	fc 01       	movw	r30, r24
     9a2:	20 83       	st	Z, r18
		CANSTMOB = 0;
     9a4:	8e ee       	ldi	r24, 0xEE	; 238
     9a6:	90 e0       	ldi	r25, 0x00	; 0
     9a8:	fc 01       	movw	r30, r24
     9aa:	10 82       	st	Z, r1
	}
	
	for(uint8_t byte = 0; byte <8; byte++){
     9ac:	19 82       	std	Y+1, r1	; 0x01
     9ae:	1f c0       	rjmp	.+62     	; 0x9ee <can_rx+0x120>
		CANPAGE = (to_receive->mob_number << MOBNB0) | (1 << AINC) | byte;
     9b0:	8d ee       	ldi	r24, 0xED	; 237
     9b2:	90 e0       	ldi	r25, 0x00	; 0
     9b4:	2a 81       	ldd	r18, Y+2	; 0x02
     9b6:	3b 81       	ldd	r19, Y+3	; 0x03
     9b8:	f9 01       	movw	r30, r18
     9ba:	24 81       	ldd	r18, Z+4	; 0x04
     9bc:	35 81       	ldd	r19, Z+5	; 0x05
     9be:	32 2f       	mov	r19, r18
     9c0:	32 95       	swap	r19
     9c2:	30 7f       	andi	r19, 0xF0	; 240
     9c4:	29 81       	ldd	r18, Y+1	; 0x01
     9c6:	23 2b       	or	r18, r19
     9c8:	28 60       	ori	r18, 0x08	; 8
     9ca:	fc 01       	movw	r30, r24
     9cc:	20 83       	st	Z, r18
		data[byte] = CANMSG;
     9ce:	89 81       	ldd	r24, Y+1	; 0x01
     9d0:	88 2f       	mov	r24, r24
     9d2:	90 e0       	ldi	r25, 0x00	; 0
     9d4:	2c 81       	ldd	r18, Y+4	; 0x04
     9d6:	3d 81       	ldd	r19, Y+5	; 0x05
     9d8:	82 0f       	add	r24, r18
     9da:	93 1f       	adc	r25, r19
     9dc:	2a ef       	ldi	r18, 0xFA	; 250
     9de:	30 e0       	ldi	r19, 0x00	; 0
     9e0:	f9 01       	movw	r30, r18
     9e2:	20 81       	ld	r18, Z
     9e4:	fc 01       	movw	r30, r24
     9e6:	20 83       	st	Z, r18
		CANIDM4 = 0;
		CANCDMOB = (1 << CONMOB1) | (1 << CONMOB0)| (1<<DLC3);
		CANSTMOB = 0;
	}
	
	for(uint8_t byte = 0; byte <8; byte++){
     9e8:	89 81       	ldd	r24, Y+1	; 0x01
     9ea:	8f 5f       	subi	r24, 0xFF	; 255
     9ec:	89 83       	std	Y+1, r24	; 0x01
     9ee:	89 81       	ldd	r24, Y+1	; 0x01
     9f0:	88 30       	cpi	r24, 0x08	; 8
     9f2:	f0 f2       	brcs	.-68     	; 0x9b0 <can_rx+0xe2>
		CANPAGE = (to_receive->mob_number << MOBNB0) | (1 << AINC) | byte;
		data[byte] = CANMSG;
	}
	
	
}
     9f4:	00 00       	nop
     9f6:	0f 90       	pop	r0
     9f8:	0f 90       	pop	r0
     9fa:	0f 90       	pop	r0
     9fc:	0f 90       	pop	r0
     9fe:	0f 90       	pop	r0
     a00:	df 91       	pop	r29
     a02:	cf 91       	pop	r28
     a04:	08 95       	ret

00000a06 <can_tx>:
void can_tx(struct CAN_MOB *to_send, uint8_t *data){
     a06:	cf 93       	push	r28
     a08:	df 93       	push	r29
     a0a:	00 d0       	rcall	.+0      	; 0xa0c <can_tx+0x6>
     a0c:	00 d0       	rcall	.+0      	; 0xa0e <can_tx+0x8>
     a0e:	1f 92       	push	r1
     a10:	cd b7       	in	r28, 0x3d	; 61
     a12:	de b7       	in	r29, 0x3e	; 62
     a14:	9b 83       	std	Y+3, r25	; 0x03
     a16:	8a 83       	std	Y+2, r24	; 0x02
     a18:	7d 83       	std	Y+5, r23	; 0x05
     a1a:	6c 83       	std	Y+4, r22	; 0x04
	
	for(uint8_t byte = 0; byte <8; byte++){
     a1c:	19 82       	std	Y+1, r1	; 0x01
     a1e:	1f c0       	rjmp	.+62     	; 0xa5e <can_tx+0x58>
		CANPAGE = (to_send->mob_number << MOBNB0) | (1 << AINC) | byte;
     a20:	8d ee       	ldi	r24, 0xED	; 237
     a22:	90 e0       	ldi	r25, 0x00	; 0
     a24:	2a 81       	ldd	r18, Y+2	; 0x02
     a26:	3b 81       	ldd	r19, Y+3	; 0x03
     a28:	f9 01       	movw	r30, r18
     a2a:	24 81       	ldd	r18, Z+4	; 0x04
     a2c:	35 81       	ldd	r19, Z+5	; 0x05
     a2e:	32 2f       	mov	r19, r18
     a30:	32 95       	swap	r19
     a32:	30 7f       	andi	r19, 0xF0	; 240
     a34:	29 81       	ldd	r18, Y+1	; 0x01
     a36:	23 2b       	or	r18, r19
     a38:	28 60       	ori	r18, 0x08	; 8
     a3a:	fc 01       	movw	r30, r24
     a3c:	20 83       	st	Z, r18
		CANMSG = data[byte];
     a3e:	8a ef       	ldi	r24, 0xFA	; 250
     a40:	90 e0       	ldi	r25, 0x00	; 0
     a42:	29 81       	ldd	r18, Y+1	; 0x01
     a44:	22 2f       	mov	r18, r18
     a46:	30 e0       	ldi	r19, 0x00	; 0
     a48:	4c 81       	ldd	r20, Y+4	; 0x04
     a4a:	5d 81       	ldd	r21, Y+5	; 0x05
     a4c:	24 0f       	add	r18, r20
     a4e:	35 1f       	adc	r19, r21
     a50:	f9 01       	movw	r30, r18
     a52:	20 81       	ld	r18, Z
     a54:	fc 01       	movw	r30, r24
     a56:	20 83       	st	Z, r18
	
	
}
void can_tx(struct CAN_MOB *to_send, uint8_t *data){
	
	for(uint8_t byte = 0; byte <8; byte++){
     a58:	89 81       	ldd	r24, Y+1	; 0x01
     a5a:	8f 5f       	subi	r24, 0xFF	; 255
     a5c:	89 83       	std	Y+1, r24	; 0x01
     a5e:	89 81       	ldd	r24, Y+1	; 0x01
     a60:	88 30       	cpi	r24, 0x08	; 8
     a62:	f0 f2       	brcs	.-68     	; 0xa20 <can_tx+0x1a>
		CANPAGE = (to_send->mob_number << MOBNB0) | (1 << AINC) | byte;
		CANMSG = data[byte];
	}
	
	CANPAGE = to_send->mob_number << MOBNB0;
     a64:	8d ee       	ldi	r24, 0xED	; 237
     a66:	90 e0       	ldi	r25, 0x00	; 0
     a68:	2a 81       	ldd	r18, Y+2	; 0x02
     a6a:	3b 81       	ldd	r19, Y+3	; 0x03
     a6c:	f9 01       	movw	r30, r18
     a6e:	24 81       	ldd	r18, Z+4	; 0x04
     a70:	35 81       	ldd	r19, Z+5	; 0x05
     a72:	22 95       	swap	r18
     a74:	20 7f       	andi	r18, 0xF0	; 240
     a76:	fc 01       	movw	r30, r24
     a78:	20 83       	st	Z, r18
	if (can_check_free(to_send->mob_number)){
     a7a:	8a 81       	ldd	r24, Y+2	; 0x02
     a7c:	9b 81       	ldd	r25, Y+3	; 0x03
     a7e:	fc 01       	movw	r30, r24
     a80:	84 81       	ldd	r24, Z+4	; 0x04
     a82:	95 81       	ldd	r25, Z+5	; 0x05
     a84:	60 de       	rcall	.-832    	; 0x746 <can_check_free>
     a86:	88 23       	and	r24, r24
     a88:	09 f4       	brne	.+2      	; 0xa8c <can_tx+0x86>
     a8a:	44 c0       	rjmp	.+136    	; 0xb14 <can_tx+0x10e>
		CANSTMOB = 0;
     a8c:	8e ee       	ldi	r24, 0xEE	; 238
     a8e:	90 e0       	ldi	r25, 0x00	; 0
     a90:	fc 01       	movw	r30, r24
     a92:	10 82       	st	Z, r1
		CANIDT1 = to_send->mob_id>>3;
     a94:	83 ef       	ldi	r24, 0xF3	; 243
     a96:	90 e0       	ldi	r25, 0x00	; 0
     a98:	2a 81       	ldd	r18, Y+2	; 0x02
     a9a:	3b 81       	ldd	r19, Y+3	; 0x03
     a9c:	f9 01       	movw	r30, r18
     a9e:	20 81       	ld	r18, Z
     aa0:	31 81       	ldd	r19, Z+1	; 0x01
     aa2:	36 95       	lsr	r19
     aa4:	27 95       	ror	r18
     aa6:	36 95       	lsr	r19
     aa8:	27 95       	ror	r18
     aaa:	36 95       	lsr	r19
     aac:	27 95       	ror	r18
     aae:	fc 01       	movw	r30, r24
     ab0:	20 83       	st	Z, r18
		CANIDT2 = (to_send->mob_id << 5) & 0b11100000;
     ab2:	82 ef       	ldi	r24, 0xF2	; 242
     ab4:	90 e0       	ldi	r25, 0x00	; 0
     ab6:	2a 81       	ldd	r18, Y+2	; 0x02
     ab8:	3b 81       	ldd	r19, Y+3	; 0x03
     aba:	f9 01       	movw	r30, r18
     abc:	20 81       	ld	r18, Z
     abe:	31 81       	ldd	r19, Z+1	; 0x01
     ac0:	22 95       	swap	r18
     ac2:	22 0f       	add	r18, r18
     ac4:	20 7e       	andi	r18, 0xE0	; 224
     ac6:	fc 01       	movw	r30, r24
     ac8:	20 83       	st	Z, r18
		CANIDT3 = 0;
     aca:	81 ef       	ldi	r24, 0xF1	; 241
     acc:	90 e0       	ldi	r25, 0x00	; 0
     ace:	fc 01       	movw	r30, r24
     ad0:	10 82       	st	Z, r1
		CANIDT4 = 0;
     ad2:	80 ef       	ldi	r24, 0xF0	; 240
     ad4:	90 e0       	ldi	r25, 0x00	; 0
     ad6:	fc 01       	movw	r30, r24
     ad8:	10 82       	st	Z, r1
		CANIDM1 = 0; //0b11111111;
     ada:	87 ef       	ldi	r24, 0xF7	; 247
     adc:	90 e0       	ldi	r25, 0x00	; 0
     ade:	fc 01       	movw	r30, r24
     ae0:	10 82       	st	Z, r1
		CANIDM2 = 0; //0b11100000;
     ae2:	86 ef       	ldi	r24, 0xF6	; 246
     ae4:	90 e0       	ldi	r25, 0x00	; 0
     ae6:	fc 01       	movw	r30, r24
     ae8:	10 82       	st	Z, r1
		CANIDM3 = 0;
     aea:	85 ef       	ldi	r24, 0xF5	; 245
     aec:	90 e0       	ldi	r25, 0x00	; 0
     aee:	fc 01       	movw	r30, r24
     af0:	10 82       	st	Z, r1
		CANIDM4 = 0;
     af2:	84 ef       	ldi	r24, 0xF4	; 244
     af4:	90 e0       	ldi	r25, 0x00	; 0
     af6:	fc 01       	movw	r30, r24
     af8:	10 82       	st	Z, r1
		CANSTMOB = 0;
     afa:	8e ee       	ldi	r24, 0xEE	; 238
     afc:	90 e0       	ldi	r25, 0x00	; 0
     afe:	fc 01       	movw	r30, r24
     b00:	10 82       	st	Z, r1
		CANCDMOB = (1<<CONMOB0) | 1 << DLC3;
     b02:	8f ee       	ldi	r24, 0xEF	; 239
     b04:	90 e0       	ldi	r25, 0x00	; 0
     b06:	28 e4       	ldi	r18, 0x48	; 72
     b08:	fc 01       	movw	r30, r24
     b0a:	20 83       	st	Z, r18
		CANSTMOB = 0;
     b0c:	8e ee       	ldi	r24, 0xEE	; 238
     b0e:	90 e0       	ldi	r25, 0x00	; 0
     b10:	fc 01       	movw	r30, r24
     b12:	10 82       	st	Z, r1
	}
	
}
     b14:	00 00       	nop
     b16:	0f 90       	pop	r0
     b18:	0f 90       	pop	r0
     b1a:	0f 90       	pop	r0
     b1c:	0f 90       	pop	r0
     b1e:	0f 90       	pop	r0
     b20:	df 91       	pop	r29
     b22:	cf 91       	pop	r28
     b24:	08 95       	ret

00000b26 <draw_char>:
	0x94, //row 2
	0xD4, //row 3
	0x80, //row 1
};

void draw_char(struct DISPLAY_PAGE *display,struct DISPLAY_STATE *display_state){
     b26:	cf 93       	push	r28
     b28:	df 93       	push	r29
     b2a:	00 d0       	rcall	.+0      	; 0xb2c <draw_char+0x6>
     b2c:	00 d0       	rcall	.+0      	; 0xb2e <draw_char+0x8>
     b2e:	cd b7       	in	r28, 0x3d	; 61
     b30:	de b7       	in	r29, 0x3e	; 62
     b32:	9a 83       	std	Y+2, r25	; 0x02
     b34:	89 83       	std	Y+1, r24	; 0x01
     b36:	7c 83       	std	Y+4, r23	; 0x04
     b38:	6b 83       	std	Y+3, r22	; 0x03
	
	if (display_state->column == 20){
     b3a:	8b 81       	ldd	r24, Y+3	; 0x03
     b3c:	9c 81       	ldd	r25, Y+4	; 0x04
     b3e:	fc 01       	movw	r30, r24
     b40:	81 81       	ldd	r24, Z+1	; 0x01
     b42:	84 31       	cpi	r24, 0x14	; 20
     b44:	d1 f4       	brne	.+52     	; 0xb7a <draw_char+0x54>
		display_write_data(dsp_row[display_state->row],0);
     b46:	8b 81       	ldd	r24, Y+3	; 0x03
     b48:	9c 81       	ldd	r25, Y+4	; 0x04
     b4a:	fc 01       	movw	r30, r24
     b4c:	80 81       	ld	r24, Z
     b4e:	88 2f       	mov	r24, r24
     b50:	90 e0       	ldi	r25, 0x00	; 0
     b52:	89 5f       	subi	r24, 0xF9	; 249
     b54:	9e 4f       	sbci	r25, 0xFE	; 254
     b56:	fc 01       	movw	r30, r24
     b58:	80 81       	ld	r24, Z
     b5a:	60 e0       	ldi	r22, 0x00	; 0
     b5c:	aa d0       	rcall	.+340    	; 0xcb2 <display_write_data>
		display_state->column = 0;
     b5e:	8b 81       	ldd	r24, Y+3	; 0x03
     b60:	9c 81       	ldd	r25, Y+4	; 0x04
     b62:	fc 01       	movw	r30, r24
     b64:	11 82       	std	Z+1, r1	; 0x01
		display_state->row += 1;
     b66:	8b 81       	ldd	r24, Y+3	; 0x03
     b68:	9c 81       	ldd	r25, Y+4	; 0x04
     b6a:	fc 01       	movw	r30, r24
     b6c:	80 81       	ld	r24, Z
     b6e:	21 e0       	ldi	r18, 0x01	; 1
     b70:	28 0f       	add	r18, r24
     b72:	8b 81       	ldd	r24, Y+3	; 0x03
     b74:	9c 81       	ldd	r25, Y+4	; 0x04
     b76:	fc 01       	movw	r30, r24
     b78:	20 83       	st	Z, r18
	}
	if (display_state->row == 4){
     b7a:	8b 81       	ldd	r24, Y+3	; 0x03
     b7c:	9c 81       	ldd	r25, Y+4	; 0x04
     b7e:	fc 01       	movw	r30, r24
     b80:	80 81       	ld	r24, Z
     b82:	84 30       	cpi	r24, 0x04	; 4
     b84:	21 f4       	brne	.+8      	; 0xb8e <draw_char+0x68>
		display_state->row = 0;
     b86:	8b 81       	ldd	r24, Y+3	; 0x03
     b88:	9c 81       	ldd	r25, Y+4	; 0x04
     b8a:	fc 01       	movw	r30, r24
     b8c:	10 82       	st	Z, r1
	}
	display_write_data(display->data[display_state->row][display_state->column],1);
     b8e:	8b 81       	ldd	r24, Y+3	; 0x03
     b90:	9c 81       	ldd	r25, Y+4	; 0x04
     b92:	fc 01       	movw	r30, r24
     b94:	80 81       	ld	r24, Z
     b96:	68 2f       	mov	r22, r24
     b98:	70 e0       	ldi	r23, 0x00	; 0
     b9a:	8b 81       	ldd	r24, Y+3	; 0x03
     b9c:	9c 81       	ldd	r25, Y+4	; 0x04
     b9e:	fc 01       	movw	r30, r24
     ba0:	81 81       	ldd	r24, Z+1	; 0x01
     ba2:	88 2f       	mov	r24, r24
     ba4:	90 e0       	ldi	r25, 0x00	; 0
     ba6:	49 81       	ldd	r20, Y+1	; 0x01
     ba8:	5a 81       	ldd	r21, Y+2	; 0x02
     baa:	e4 e1       	ldi	r30, 0x14	; 20
     bac:	e6 9f       	mul	r30, r22
     bae:	90 01       	movw	r18, r0
     bb0:	e7 9f       	mul	r30, r23
     bb2:	30 0d       	add	r19, r0
     bb4:	11 24       	eor	r1, r1
     bb6:	24 0f       	add	r18, r20
     bb8:	35 1f       	adc	r19, r21
     bba:	82 0f       	add	r24, r18
     bbc:	93 1f       	adc	r25, r19
     bbe:	fc 01       	movw	r30, r24
     bc0:	80 81       	ld	r24, Z
     bc2:	61 e0       	ldi	r22, 0x01	; 1
     bc4:	76 d0       	rcall	.+236    	; 0xcb2 <display_write_data>
	display_state->column++;
     bc6:	8b 81       	ldd	r24, Y+3	; 0x03
     bc8:	9c 81       	ldd	r25, Y+4	; 0x04
     bca:	fc 01       	movw	r30, r24
     bcc:	81 81       	ldd	r24, Z+1	; 0x01
     bce:	21 e0       	ldi	r18, 0x01	; 1
     bd0:	28 0f       	add	r18, r24
     bd2:	8b 81       	ldd	r24, Y+3	; 0x03
     bd4:	9c 81       	ldd	r25, Y+4	; 0x04
     bd6:	fc 01       	movw	r30, r24
     bd8:	21 83       	std	Z+1, r18	; 0x01
}
     bda:	00 00       	nop
     bdc:	0f 90       	pop	r0
     bde:	0f 90       	pop	r0
     be0:	0f 90       	pop	r0
     be2:	0f 90       	pop	r0
     be4:	df 91       	pop	r29
     be6:	cf 91       	pop	r28
     be8:	08 95       	ret

00000bea <get_empty_state>:
struct DISPLAY_STATE get_empty_state(){
     bea:	cf 93       	push	r28
     bec:	df 93       	push	r29
     bee:	00 d0       	rcall	.+0      	; 0xbf0 <get_empty_state+0x6>
     bf0:	cd b7       	in	r28, 0x3d	; 61
     bf2:	de b7       	in	r29, 0x3e	; 62
	struct DISPLAY_STATE display_state;
	display_state.row = 0;
     bf4:	19 82       	std	Y+1, r1	; 0x01
	display_state.column = 0;
     bf6:	1a 82       	std	Y+2, r1	; 0x02
	
	return display_state;
     bf8:	89 81       	ldd	r24, Y+1	; 0x01
     bfa:	9a 81       	ldd	r25, Y+2	; 0x02
}
     bfc:	0f 90       	pop	r0
     bfe:	0f 90       	pop	r0
     c00:	df 91       	pop	r29
     c02:	cf 91       	pop	r28
     c04:	08 95       	ret

00000c06 <get_empty_display>:
struct DISPLAY_PAGE get_empty_display(){
     c06:	cf 93       	push	r28
     c08:	df 93       	push	r29
     c0a:	cd b7       	in	r28, 0x3d	; 61
     c0c:	de b7       	in	r29, 0x3e	; 62
     c0e:	c4 55       	subi	r28, 0x54	; 84
     c10:	d1 09       	sbc	r29, r1
     c12:	0f b6       	in	r0, 0x3f	; 63
     c14:	f8 94       	cli
     c16:	de bf       	out	0x3e, r29	; 62
     c18:	0f be       	out	0x3f, r0	; 63
     c1a:	cd bf       	out	0x3d, r28	; 61
     c1c:	9e 01       	movw	r18, r28
     c1e:	2d 5a       	subi	r18, 0xAD	; 173
     c20:	3f 4f       	sbci	r19, 0xFF	; 255
     c22:	f9 01       	movw	r30, r18
     c24:	91 83       	std	Z+1, r25	; 0x01
     c26:	80 83       	st	Z, r24
	
	struct DISPLAY_PAGE display_data;
	
	for(uint8_t row = 0; row < 4; row++){
     c28:	19 82       	std	Y+1, r1	; 0x01
     c2a:	22 c0       	rjmp	.+68     	; 0xc70 <get_empty_display+0x6a>
		for (uint8_t column = 0; column < 20; column++){
     c2c:	1a 82       	std	Y+2, r1	; 0x02
     c2e:	1a c0       	rjmp	.+52     	; 0xc64 <get_empty_display+0x5e>
			display_data.data[row][column] = 0x10;
     c30:	89 81       	ldd	r24, Y+1	; 0x01
     c32:	48 2f       	mov	r20, r24
     c34:	50 e0       	ldi	r21, 0x00	; 0
     c36:	8a 81       	ldd	r24, Y+2	; 0x02
     c38:	88 2f       	mov	r24, r24
     c3a:	90 e0       	ldi	r25, 0x00	; 0
     c3c:	64 e1       	ldi	r22, 0x14	; 20
     c3e:	64 9f       	mul	r22, r20
     c40:	90 01       	movw	r18, r0
     c42:	65 9f       	mul	r22, r21
     c44:	30 0d       	add	r19, r0
     c46:	11 24       	eor	r1, r1
     c48:	ae 01       	movw	r20, r28
     c4a:	4f 5f       	subi	r20, 0xFF	; 255
     c4c:	5f 4f       	sbci	r21, 0xFF	; 255
     c4e:	24 0f       	add	r18, r20
     c50:	35 1f       	adc	r19, r21
     c52:	82 0f       	add	r24, r18
     c54:	93 1f       	adc	r25, r19
     c56:	02 96       	adiw	r24, 0x02	; 2
     c58:	20 e1       	ldi	r18, 0x10	; 16
     c5a:	fc 01       	movw	r30, r24
     c5c:	20 83       	st	Z, r18
struct DISPLAY_PAGE get_empty_display(){
	
	struct DISPLAY_PAGE display_data;
	
	for(uint8_t row = 0; row < 4; row++){
		for (uint8_t column = 0; column < 20; column++){
     c5e:	8a 81       	ldd	r24, Y+2	; 0x02
     c60:	8f 5f       	subi	r24, 0xFF	; 255
     c62:	8a 83       	std	Y+2, r24	; 0x02
     c64:	8a 81       	ldd	r24, Y+2	; 0x02
     c66:	84 31       	cpi	r24, 0x14	; 20
     c68:	18 f3       	brcs	.-58     	; 0xc30 <get_empty_display+0x2a>
}
struct DISPLAY_PAGE get_empty_display(){
	
	struct DISPLAY_PAGE display_data;
	
	for(uint8_t row = 0; row < 4; row++){
     c6a:	89 81       	ldd	r24, Y+1	; 0x01
     c6c:	8f 5f       	subi	r24, 0xFF	; 255
     c6e:	89 83       	std	Y+1, r24	; 0x01
     c70:	89 81       	ldd	r24, Y+1	; 0x01
     c72:	84 30       	cpi	r24, 0x04	; 4
     c74:	d8 f2       	brcs	.-74     	; 0xc2c <get_empty_display+0x26>
		for (uint8_t column = 0; column < 20; column++){
			display_data.data[row][column] = 0x10;
		}	 
	}
	return display_data;
     c76:	ce 01       	movw	r24, r28
     c78:	8d 5a       	subi	r24, 0xAD	; 173
     c7a:	9f 4f       	sbci	r25, 0xFF	; 255
     c7c:	fc 01       	movw	r30, r24
     c7e:	80 81       	ld	r24, Z
     c80:	91 81       	ldd	r25, Z+1	; 0x01
     c82:	20 e5       	ldi	r18, 0x50	; 80
     c84:	fe 01       	movw	r30, r28
     c86:	33 96       	adiw	r30, 0x03	; 3
     c88:	dc 01       	movw	r26, r24
     c8a:	01 90       	ld	r0, Z+
     c8c:	0d 92       	st	X+, r0
     c8e:	2a 95       	dec	r18
     c90:	e1 f7       	brne	.-8      	; 0xc8a <get_empty_display+0x84>
}
     c92:	ce 01       	movw	r24, r28
     c94:	8d 5a       	subi	r24, 0xAD	; 173
     c96:	9f 4f       	sbci	r25, 0xFF	; 255
     c98:	fc 01       	movw	r30, r24
     c9a:	80 81       	ld	r24, Z
     c9c:	91 81       	ldd	r25, Z+1	; 0x01
     c9e:	cc 5a       	subi	r28, 0xAC	; 172
     ca0:	df 4f       	sbci	r29, 0xFF	; 255
     ca2:	0f b6       	in	r0, 0x3f	; 63
     ca4:	f8 94       	cli
     ca6:	de bf       	out	0x3e, r29	; 62
     ca8:	0f be       	out	0x3f, r0	; 63
     caa:	cd bf       	out	0x3d, r28	; 61
     cac:	df 91       	pop	r29
     cae:	cf 91       	pop	r28
     cb0:	08 95       	ret

00000cb2 <display_write_data>:

void display_write_data(uint8_t data,uint8_t rs){
     cb2:	0f 93       	push	r16
     cb4:	1f 93       	push	r17
     cb6:	cf 93       	push	r28
     cb8:	df 93       	push	r29
     cba:	00 d0       	rcall	.+0      	; 0xcbc <display_write_data+0xa>
     cbc:	00 d0       	rcall	.+0      	; 0xcbe <display_write_data+0xc>
     cbe:	cd b7       	in	r28, 0x3d	; 61
     cc0:	de b7       	in	r29, 0x3e	; 62
     cc2:	8b 83       	std	Y+3, r24	; 0x03
     cc4:	6c 83       	std	Y+4, r22	; 0x04
	
	DISPLAY_DATA = invert_binary_number(data);
     cc6:	0e e2       	ldi	r16, 0x2E	; 46
     cc8:	10 e0       	ldi	r17, 0x00	; 0
     cca:	8b 81       	ldd	r24, Y+3	; 0x03
     ccc:	0e 94 9c 13 	call	0x2738	; 0x2738 <invert_binary_number>
     cd0:	f8 01       	movw	r30, r16
     cd2:	80 83       	st	Z, r24
	
	if (rs==1){
     cd4:	8c 81       	ldd	r24, Y+4	; 0x04
     cd6:	81 30       	cpi	r24, 0x01	; 1
     cd8:	51 f4       	brne	.+20     	; 0xcee <display_write_data+0x3c>
		SET_RS_PIN
     cda:	85 e2       	ldi	r24, 0x25	; 37
     cdc:	90 e0       	ldi	r25, 0x00	; 0
     cde:	25 e2       	ldi	r18, 0x25	; 37
     ce0:	30 e0       	ldi	r19, 0x00	; 0
     ce2:	f9 01       	movw	r30, r18
     ce4:	20 81       	ld	r18, Z
     ce6:	20 64       	ori	r18, 0x40	; 64
     ce8:	fc 01       	movw	r30, r24
     cea:	20 83       	st	Z, r18
     cec:	09 c0       	rjmp	.+18     	; 0xd00 <display_write_data+0x4e>
		} else {
		UNSET_RS_PIN
     cee:	85 e2       	ldi	r24, 0x25	; 37
     cf0:	90 e0       	ldi	r25, 0x00	; 0
     cf2:	25 e2       	ldi	r18, 0x25	; 37
     cf4:	30 e0       	ldi	r19, 0x00	; 0
     cf6:	f9 01       	movw	r30, r18
     cf8:	20 81       	ld	r18, Z
     cfa:	2f 7b       	andi	r18, 0xBF	; 191
     cfc:	fc 01       	movw	r30, r24
     cfe:	20 83       	st	Z, r18
	}
	
	//Sets enable high
	SET_ENABLE_PIN
     d00:	85 e2       	ldi	r24, 0x25	; 37
     d02:	90 e0       	ldi	r25, 0x00	; 0
     d04:	25 e2       	ldi	r18, 0x25	; 37
     d06:	30 e0       	ldi	r19, 0x00	; 0
     d08:	f9 01       	movw	r30, r18
     d0a:	20 81       	ld	r18, Z
     d0c:	20 61       	ori	r18, 0x10	; 16
     d0e:	fc 01       	movw	r30, r24
     d10:	20 83       	st	Z, r18
	//Sets enable low
	for(int wait = 0; wait<100; wait++){
     d12:	1a 82       	std	Y+2, r1	; 0x02
     d14:	19 82       	std	Y+1, r1	; 0x01
     d16:	0e c0       	rjmp	.+28     	; 0xd34 <display_write_data+0x82>
		UNSET_ENABLE_PIN
     d18:	85 e2       	ldi	r24, 0x25	; 37
     d1a:	90 e0       	ldi	r25, 0x00	; 0
     d1c:	25 e2       	ldi	r18, 0x25	; 37
     d1e:	30 e0       	ldi	r19, 0x00	; 0
     d20:	f9 01       	movw	r30, r18
     d22:	20 81       	ld	r18, Z
     d24:	2f 7e       	andi	r18, 0xEF	; 239
     d26:	fc 01       	movw	r30, r24
     d28:	20 83       	st	Z, r18
	}
	
	//Sets enable high
	SET_ENABLE_PIN
	//Sets enable low
	for(int wait = 0; wait<100; wait++){
     d2a:	89 81       	ldd	r24, Y+1	; 0x01
     d2c:	9a 81       	ldd	r25, Y+2	; 0x02
     d2e:	01 96       	adiw	r24, 0x01	; 1
     d30:	9a 83       	std	Y+2, r25	; 0x02
     d32:	89 83       	std	Y+1, r24	; 0x01
     d34:	89 81       	ldd	r24, Y+1	; 0x01
     d36:	9a 81       	ldd	r25, Y+2	; 0x02
     d38:	84 36       	cpi	r24, 0x64	; 100
     d3a:	91 05       	cpc	r25, r1
     d3c:	6c f3       	brlt	.-38     	; 0xd18 <display_write_data+0x66>
		UNSET_ENABLE_PIN
	}
	
	
}
     d3e:	00 00       	nop
     d40:	0f 90       	pop	r0
     d42:	0f 90       	pop	r0
     d44:	0f 90       	pop	r0
     d46:	0f 90       	pop	r0
     d48:	df 91       	pop	r29
     d4a:	cf 91       	pop	r28
     d4c:	1f 91       	pop	r17
     d4e:	0f 91       	pop	r16
     d50:	08 95       	ret

00000d52 <display_definechars>:


//num_to_3digit this function not only converts the raw data to a 3Digit number which can be displayed onto the display, it also sets the Page and Position of the Number on the Display


void display_definechars(){
     d52:	8f 92       	push	r8
     d54:	af 92       	push	r10
     d56:	cf 92       	push	r12
     d58:	ef 92       	push	r14
     d5a:	0f 93       	push	r16
     d5c:	cf 93       	push	r28
     d5e:	df 93       	push	r29
     d60:	cd b7       	in	r28, 0x3d	; 61
     d62:	de b7       	in	r29, 0x3e	; 62
	//definition of needed custom chars
	display_customchar(1,0x1F,0x1F,0,0,0,0,0,0);
     d64:	81 2c       	mov	r8, r1
     d66:	a1 2c       	mov	r10, r1
     d68:	c1 2c       	mov	r12, r1
     d6a:	e1 2c       	mov	r14, r1
     d6c:	00 e0       	ldi	r16, 0x00	; 0
     d6e:	20 e0       	ldi	r18, 0x00	; 0
     d70:	4f e1       	ldi	r20, 0x1F	; 31
     d72:	6f e1       	ldi	r22, 0x1F	; 31
     d74:	81 e0       	ldi	r24, 0x01	; 1
     d76:	7a d0       	rcall	.+244    	; 0xe6c <display_customchar>
	display_customchar(2,0xEF,0xEF,0xEF,0xEF,0xEF,0xEF,0xEF,0xEF);
     d78:	0f 2e       	mov	r0, r31
     d7a:	ff ee       	ldi	r31, 0xEF	; 239
     d7c:	8f 2e       	mov	r8, r31
     d7e:	f0 2d       	mov	r31, r0
     d80:	0f 2e       	mov	r0, r31
     d82:	ff ee       	ldi	r31, 0xEF	; 239
     d84:	af 2e       	mov	r10, r31
     d86:	f0 2d       	mov	r31, r0
     d88:	0f 2e       	mov	r0, r31
     d8a:	ff ee       	ldi	r31, 0xEF	; 239
     d8c:	cf 2e       	mov	r12, r31
     d8e:	f0 2d       	mov	r31, r0
     d90:	0f 2e       	mov	r0, r31
     d92:	ff ee       	ldi	r31, 0xEF	; 239
     d94:	ef 2e       	mov	r14, r31
     d96:	f0 2d       	mov	r31, r0
     d98:	0f ee       	ldi	r16, 0xEF	; 239
     d9a:	2f ee       	ldi	r18, 0xEF	; 239
     d9c:	4f ee       	ldi	r20, 0xEF	; 239
     d9e:	6f ee       	ldi	r22, 0xEF	; 239
     da0:	82 e0       	ldi	r24, 0x02	; 2
     da2:	64 d0       	rcall	.+200    	; 0xe6c <display_customchar>
	display_customchar(3,0x1E,0x1E,0x1E,0x1E,0x1E,0x1E,0x1E,0x1E);
     da4:	0f 2e       	mov	r0, r31
     da6:	fe e1       	ldi	r31, 0x1E	; 30
     da8:	8f 2e       	mov	r8, r31
     daa:	f0 2d       	mov	r31, r0
     dac:	0f 2e       	mov	r0, r31
     dae:	fe e1       	ldi	r31, 0x1E	; 30
     db0:	af 2e       	mov	r10, r31
     db2:	f0 2d       	mov	r31, r0
     db4:	0f 2e       	mov	r0, r31
     db6:	fe e1       	ldi	r31, 0x1E	; 30
     db8:	cf 2e       	mov	r12, r31
     dba:	f0 2d       	mov	r31, r0
     dbc:	0f 2e       	mov	r0, r31
     dbe:	fe e1       	ldi	r31, 0x1E	; 30
     dc0:	ef 2e       	mov	r14, r31
     dc2:	f0 2d       	mov	r31, r0
     dc4:	0e e1       	ldi	r16, 0x1E	; 30
     dc6:	2e e1       	ldi	r18, 0x1E	; 30
     dc8:	4e e1       	ldi	r20, 0x1E	; 30
     dca:	6e e1       	ldi	r22, 0x1E	; 30
     dcc:	83 e0       	ldi	r24, 0x03	; 3
     dce:	4e d0       	rcall	.+156    	; 0xe6c <display_customchar>
	display_customchar(4,0xFF,0xFF,0xFF,0xFF,0,0,0,0);
     dd0:	81 2c       	mov	r8, r1
     dd2:	a1 2c       	mov	r10, r1
     dd4:	c1 2c       	mov	r12, r1
     dd6:	e1 2c       	mov	r14, r1
     dd8:	0f ef       	ldi	r16, 0xFF	; 255
     dda:	2f ef       	ldi	r18, 0xFF	; 255
     ddc:	4f ef       	ldi	r20, 0xFF	; 255
     dde:	6f ef       	ldi	r22, 0xFF	; 255
     de0:	84 e0       	ldi	r24, 0x04	; 4
     de2:	44 d0       	rcall	.+136    	; 0xe6c <display_customchar>
	display_customchar(5,0xFF,0xFF,0xFF,0xFF,0xEF,0xEF,0xEF,0xEF);
     de4:	0f 2e       	mov	r0, r31
     de6:	ff ee       	ldi	r31, 0xEF	; 239
     de8:	8f 2e       	mov	r8, r31
     dea:	f0 2d       	mov	r31, r0
     dec:	0f 2e       	mov	r0, r31
     dee:	ff ee       	ldi	r31, 0xEF	; 239
     df0:	af 2e       	mov	r10, r31
     df2:	f0 2d       	mov	r31, r0
     df4:	0f 2e       	mov	r0, r31
     df6:	ff ee       	ldi	r31, 0xEF	; 239
     df8:	cf 2e       	mov	r12, r31
     dfa:	f0 2d       	mov	r31, r0
     dfc:	0f 2e       	mov	r0, r31
     dfe:	ff ee       	ldi	r31, 0xEF	; 239
     e00:	ef 2e       	mov	r14, r31
     e02:	f0 2d       	mov	r31, r0
     e04:	0f ef       	ldi	r16, 0xFF	; 255
     e06:	2f ef       	ldi	r18, 0xFF	; 255
     e08:	4f ef       	ldi	r20, 0xFF	; 255
     e0a:	6f ef       	ldi	r22, 0xFF	; 255
     e0c:	85 e0       	ldi	r24, 0x05	; 5
     e0e:	2e d0       	rcall	.+92     	; 0xe6c <display_customchar>
	display_customchar(6,0x08,0x15,0x0A,0x04,0x0A,0x15,0x02,0x00);
     e10:	81 2c       	mov	r8, r1
     e12:	68 94       	set
     e14:	aa 24       	eor	r10, r10
     e16:	a1 f8       	bld	r10, 1
     e18:	0f 2e       	mov	r0, r31
     e1a:	f5 e1       	ldi	r31, 0x15	; 21
     e1c:	cf 2e       	mov	r12, r31
     e1e:	f0 2d       	mov	r31, r0
     e20:	0f 2e       	mov	r0, r31
     e22:	fa e0       	ldi	r31, 0x0A	; 10
     e24:	ef 2e       	mov	r14, r31
     e26:	f0 2d       	mov	r31, r0
     e28:	04 e0       	ldi	r16, 0x04	; 4
     e2a:	2a e0       	ldi	r18, 0x0A	; 10
     e2c:	45 e1       	ldi	r20, 0x15	; 21
     e2e:	68 e0       	ldi	r22, 0x08	; 8
     e30:	86 e0       	ldi	r24, 0x06	; 6
     e32:	1c d0       	rcall	.+56     	; 0xe6c <display_customchar>
	display_customchar(7,0,0,0,0,0,0x1F,0x1F,0x1F);
     e34:	0f 2e       	mov	r0, r31
     e36:	ff e1       	ldi	r31, 0x1F	; 31
     e38:	8f 2e       	mov	r8, r31
     e3a:	f0 2d       	mov	r31, r0
     e3c:	0f 2e       	mov	r0, r31
     e3e:	ff e1       	ldi	r31, 0x1F	; 31
     e40:	af 2e       	mov	r10, r31
     e42:	f0 2d       	mov	r31, r0
     e44:	0f 2e       	mov	r0, r31
     e46:	ff e1       	ldi	r31, 0x1F	; 31
     e48:	cf 2e       	mov	r12, r31
     e4a:	f0 2d       	mov	r31, r0
     e4c:	e1 2c       	mov	r14, r1
     e4e:	00 e0       	ldi	r16, 0x00	; 0
     e50:	20 e0       	ldi	r18, 0x00	; 0
     e52:	40 e0       	ldi	r20, 0x00	; 0
     e54:	60 e0       	ldi	r22, 0x00	; 0
     e56:	87 e0       	ldi	r24, 0x07	; 7
     e58:	09 d0       	rcall	.+18     	; 0xe6c <display_customchar>
	
}
     e5a:	00 00       	nop
     e5c:	df 91       	pop	r29
     e5e:	cf 91       	pop	r28
     e60:	0f 91       	pop	r16
     e62:	ef 90       	pop	r14
     e64:	cf 90       	pop	r12
     e66:	af 90       	pop	r10
     e68:	8f 90       	pop	r8
     e6a:	08 95       	ret

00000e6c <display_customchar>:

void display_customchar(uint8_t charpos, uint8_t line1, uint8_t line2, uint8_t line3, uint8_t line4, uint8_t line5, uint8_t line6, uint8_t line7, uint8_t line8){
     e6c:	8f 92       	push	r8
     e6e:	af 92       	push	r10
     e70:	cf 92       	push	r12
     e72:	ef 92       	push	r14
     e74:	0f 93       	push	r16
     e76:	cf 93       	push	r28
     e78:	df 93       	push	r29
     e7a:	cd b7       	in	r28, 0x3d	; 61
     e7c:	de b7       	in	r29, 0x3e	; 62
     e7e:	29 97       	sbiw	r28, 0x09	; 9
     e80:	0f b6       	in	r0, 0x3f	; 63
     e82:	f8 94       	cli
     e84:	de bf       	out	0x3e, r29	; 62
     e86:	0f be       	out	0x3f, r0	; 63
     e88:	cd bf       	out	0x3d, r28	; 61
     e8a:	89 83       	std	Y+1, r24	; 0x01
     e8c:	6a 83       	std	Y+2, r22	; 0x02
     e8e:	4b 83       	std	Y+3, r20	; 0x03
     e90:	2c 83       	std	Y+4, r18	; 0x04
     e92:	0d 83       	std	Y+5, r16	; 0x05
     e94:	ee 82       	std	Y+6, r14	; 0x06
     e96:	cf 82       	std	Y+7, r12	; 0x07
     e98:	a8 86       	std	Y+8, r10	; 0x08
	
	//where to write in cgram
	display_write_data(0x40+8*charpos,0);
     e9a:	89 86       	std	Y+9, r8	; 0x09
     e9c:	89 81       	ldd	r24, Y+1	; 0x01
     e9e:	88 2f       	mov	r24, r24
     ea0:	90 e0       	ldi	r25, 0x00	; 0
     ea2:	08 96       	adiw	r24, 0x08	; 8
     ea4:	88 0f       	add	r24, r24
     ea6:	88 0f       	add	r24, r24
     ea8:	88 0f       	add	r24, r24

	//write each line
	display_write_data(line1,1);
     eaa:	60 e0       	ldi	r22, 0x00	; 0
     eac:	02 df       	rcall	.-508    	; 0xcb2 <display_write_data>
     eae:	61 e0       	ldi	r22, 0x01	; 1
	display_write_data(line2,1);
     eb0:	8a 81       	ldd	r24, Y+2	; 0x02
     eb2:	ff de       	rcall	.-514    	; 0xcb2 <display_write_data>
     eb4:	61 e0       	ldi	r22, 0x01	; 1
	display_write_data(line3,1);
     eb6:	8b 81       	ldd	r24, Y+3	; 0x03
     eb8:	fc de       	rcall	.-520    	; 0xcb2 <display_write_data>
     eba:	61 e0       	ldi	r22, 0x01	; 1
	display_write_data(line4,1);
     ebc:	8c 81       	ldd	r24, Y+4	; 0x04
     ebe:	f9 de       	rcall	.-526    	; 0xcb2 <display_write_data>
     ec0:	61 e0       	ldi	r22, 0x01	; 1
	display_write_data(line5,1);
     ec2:	8d 81       	ldd	r24, Y+5	; 0x05
     ec4:	f6 de       	rcall	.-532    	; 0xcb2 <display_write_data>
     ec6:	61 e0       	ldi	r22, 0x01	; 1
	display_write_data(line6,1);
     ec8:	8e 81       	ldd	r24, Y+6	; 0x06
     eca:	f3 de       	rcall	.-538    	; 0xcb2 <display_write_data>
     ecc:	61 e0       	ldi	r22, 0x01	; 1
     ece:	8f 81       	ldd	r24, Y+7	; 0x07
	display_write_data(line7,1);
     ed0:	f0 de       	rcall	.-544    	; 0xcb2 <display_write_data>
     ed2:	61 e0       	ldi	r22, 0x01	; 1
     ed4:	88 85       	ldd	r24, Y+8	; 0x08
     ed6:	ed de       	rcall	.-550    	; 0xcb2 <display_write_data>
	display_write_data(line8,1);
     ed8:	61 e0       	ldi	r22, 0x01	; 1
     eda:	89 85       	ldd	r24, Y+9	; 0x09
     edc:	ea de       	rcall	.-556    	; 0xcb2 <display_write_data>
     ede:	60 e0       	ldi	r22, 0x00	; 0

	//display return home
	display_write_data(0x02,0);
     ee0:	82 e0       	ldi	r24, 0x02	; 2
     ee2:	e7 de       	rcall	.-562    	; 0xcb2 <display_write_data>
     ee4:	00 00       	nop
     ee6:	29 96       	adiw	r28, 0x09	; 9
}
     ee8:	0f b6       	in	r0, 0x3f	; 63
     eea:	f8 94       	cli
     eec:	de bf       	out	0x3e, r29	; 62
     eee:	0f be       	out	0x3f, r0	; 63
     ef0:	cd bf       	out	0x3d, r28	; 61
     ef2:	df 91       	pop	r29
     ef4:	cf 91       	pop	r28
     ef6:	0f 91       	pop	r16
     ef8:	ef 90       	pop	r14
     efa:	cf 90       	pop	r12
     efc:	af 90       	pop	r10
     efe:	8f 90       	pop	r8
     f00:	08 95       	ret

00000f02 <display_write_str>:
     f02:	cf 93       	push	r28
     f04:	df 93       	push	r29

void display_write_str(struct DISPLAY_PAGE *display, char data[], uint8_t row, uint8_t column)
{
     f06:	cd b7       	in	r28, 0x3d	; 61
     f08:	de b7       	in	r29, 0x3e	; 62
     f0a:	27 97       	sbiw	r28, 0x07	; 7
     f0c:	0f b6       	in	r0, 0x3f	; 63
     f0e:	f8 94       	cli
     f10:	de bf       	out	0x3e, r29	; 62
     f12:	0f be       	out	0x3f, r0	; 63
     f14:	cd bf       	out	0x3d, r28	; 61
     f16:	9b 83       	std	Y+3, r25	; 0x03
     f18:	8a 83       	std	Y+2, r24	; 0x02
     f1a:	7d 83       	std	Y+5, r23	; 0x05
     f1c:	6c 83       	std	Y+4, r22	; 0x04
     f1e:	4e 83       	std	Y+6, r20	; 0x06
     f20:	2f 83       	std	Y+7, r18	; 0x07
     f22:	19 82       	std	Y+1, r1	; 0x01
     f24:	25 c0       	rjmp	.+74     	; 0xf70 <display_write_str+0x6e>
	//Schreiben
	//Notiz < length is wichtig da so das 0 byte ignoriert wird
	//mit dem Zeichenketten terminiert werden
	uint8_t i = 0;
     f26:	8e 81       	ldd	r24, Y+6	; 0x06
	while(data[i]!= 0 && (column+i)<20){
     f28:	68 2f       	mov	r22, r24
		display->data[row][i+column] = data[i];
     f2a:	70 e0       	ldi	r23, 0x00	; 0
     f2c:	89 81       	ldd	r24, Y+1	; 0x01
     f2e:	28 2f       	mov	r18, r24
     f30:	30 e0       	ldi	r19, 0x00	; 0
     f32:	8f 81       	ldd	r24, Y+7	; 0x07
     f34:	88 2f       	mov	r24, r24
     f36:	90 e0       	ldi	r25, 0x00	; 0
     f38:	82 0f       	add	r24, r18
     f3a:	93 1f       	adc	r25, r19
     f3c:	29 81       	ldd	r18, Y+1	; 0x01
     f3e:	22 2f       	mov	r18, r18
     f40:	30 e0       	ldi	r19, 0x00	; 0
     f42:	4c 81       	ldd	r20, Y+4	; 0x04
     f44:	5d 81       	ldd	r21, Y+5	; 0x05
     f46:	24 0f       	add	r18, r20
     f48:	35 1f       	adc	r19, r21
     f4a:	d9 01       	movw	r26, r18
     f4c:	ec 91       	ld	r30, X
     f4e:	4a 81       	ldd	r20, Y+2	; 0x02
     f50:	5b 81       	ldd	r21, Y+3	; 0x03
     f52:	f4 e1       	ldi	r31, 0x14	; 20
     f54:	f6 9f       	mul	r31, r22
     f56:	90 01       	movw	r18, r0
     f58:	f7 9f       	mul	r31, r23
     f5a:	30 0d       	add	r19, r0
     f5c:	11 24       	eor	r1, r1
     f5e:	24 0f       	add	r18, r20
     f60:	35 1f       	adc	r19, r21
     f62:	82 0f       	add	r24, r18
     f64:	93 1f       	adc	r25, r19
     f66:	dc 01       	movw	r26, r24
     f68:	ec 93       	st	X, r30
     f6a:	89 81       	ldd	r24, Y+1	; 0x01
     f6c:	8f 5f       	subi	r24, 0xFF	; 255
		i++;
     f6e:	89 83       	std	Y+1, r24	; 0x01
     f70:	89 81       	ldd	r24, Y+1	; 0x01
     f72:	88 2f       	mov	r24, r24
{
	//Schreiben
	//Notiz < length is wichtig da so das 0 byte ignoriert wird
	//mit dem Zeichenketten terminiert werden
	uint8_t i = 0;
	while(data[i]!= 0 && (column+i)<20){
     f74:	90 e0       	ldi	r25, 0x00	; 0
     f76:	2c 81       	ldd	r18, Y+4	; 0x04
     f78:	3d 81       	ldd	r19, Y+5	; 0x05
     f7a:	82 0f       	add	r24, r18
     f7c:	93 1f       	adc	r25, r19
     f7e:	fc 01       	movw	r30, r24
     f80:	80 81       	ld	r24, Z
     f82:	88 23       	and	r24, r24
     f84:	51 f0       	breq	.+20     	; 0xf9a <display_write_str+0x98>
     f86:	8f 81       	ldd	r24, Y+7	; 0x07
     f88:	28 2f       	mov	r18, r24
     f8a:	30 e0       	ldi	r19, 0x00	; 0
     f8c:	89 81       	ldd	r24, Y+1	; 0x01
     f8e:	88 2f       	mov	r24, r24
     f90:	90 e0       	ldi	r25, 0x00	; 0
     f92:	82 0f       	add	r24, r18
     f94:	93 1f       	adc	r25, r19
     f96:	44 97       	sbiw	r24, 0x14	; 20
     f98:	34 f2       	brlt	.-116    	; 0xf26 <display_write_str+0x24>
     f9a:	00 00       	nop
     f9c:	27 96       	adiw	r28, 0x07	; 7
		display->data[row][i+column] = data[i];
		i++;
	}
}
     f9e:	0f b6       	in	r0, 0x3f	; 63
     fa0:	f8 94       	cli
     fa2:	de bf       	out	0x3e, r29	; 62
     fa4:	0f be       	out	0x3f, r0	; 63
     fa6:	cd bf       	out	0x3d, r28	; 61
     fa8:	df 91       	pop	r29
     faa:	cf 91       	pop	r28
     fac:	08 95       	ret

00000fae <init_display>:
     fae:	cf 93       	push	r28

void init_display(){
     fb0:	df 93       	push	r29
     fb2:	00 d0       	rcall	.+0      	; 0xfb4 <init_display+0x6>
     fb4:	cd b7       	in	r28, 0x3d	; 61
     fb6:	de b7       	in	r29, 0x3e	; 62
     fb8:	1a 82       	std	Y+2, r1	; 0x02
	
	//init the display with commands in dsp_command array
	for (int i=0; i<7; i++){
     fba:	19 82       	std	Y+1, r1	; 0x01
     fbc:	0d c0       	rjmp	.+26     	; 0xfd8 <init_display+0x2a>
     fbe:	89 81       	ldd	r24, Y+1	; 0x01
		display_write_data(dsp_command[i],0);
     fc0:	9a 81       	ldd	r25, Y+2	; 0x02
     fc2:	80 50       	subi	r24, 0x00	; 0
     fc4:	9f 4f       	sbci	r25, 0xFF	; 255
     fc6:	fc 01       	movw	r30, r24
     fc8:	80 81       	ld	r24, Z
     fca:	60 e0       	ldi	r22, 0x00	; 0
     fcc:	72 de       	rcall	.-796    	; 0xcb2 <display_write_data>
     fce:	89 81       	ldd	r24, Y+1	; 0x01
     fd0:	9a 81       	ldd	r25, Y+2	; 0x02
}

void init_display(){
	
	//init the display with commands in dsp_command array
	for (int i=0; i<7; i++){
     fd2:	01 96       	adiw	r24, 0x01	; 1
     fd4:	9a 83       	std	Y+2, r25	; 0x02
     fd6:	89 83       	std	Y+1, r24	; 0x01
     fd8:	89 81       	ldd	r24, Y+1	; 0x01
     fda:	9a 81       	ldd	r25, Y+2	; 0x02
     fdc:	07 97       	sbiw	r24, 0x07	; 7
     fde:	7c f3       	brlt	.-34     	; 0xfbe <init_display+0x10>
     fe0:	00 00       	nop
     fe2:	0f 90       	pop	r0
		display_write_data(dsp_command[i],0);
	}	
}
     fe4:	0f 90       	pop	r0
     fe6:	df 91       	pop	r29
     fe8:	cf 91       	pop	r28
     fea:	08 95       	ret

00000fec <display_main>:
     fec:	cf 93       	push	r28
     fee:	df 93       	push	r29

void display_main(struct DISPLAY_PAGE *display)
{
     ff0:	00 d0       	rcall	.+0      	; 0xff2 <display_main+0x6>
     ff2:	00 d0       	rcall	.+0      	; 0xff4 <display_main+0x8>
     ff4:	cd b7       	in	r28, 0x3d	; 61
     ff6:	de b7       	in	r29, 0x3e	; 62
     ff8:	9c 83       	std	Y+4, r25	; 0x04
     ffa:	8b 83       	std	Y+3, r24	; 0x03
     ffc:	19 82       	std	Y+1, r1	; 0x01
     ffe:	1a 82       	std	Y+2, r1	; 0x02
	uint8_t TS_ON = 0;
    1000:	80 e2       	ldi	r24, 0x20	; 32
	uint8_t Ready_2_Drive = 0;
    1002:	90 e0       	ldi	r25, 0x00	; 0
	
	TS_ON = (~PINA & (1 << PA0));
    1004:	fc 01       	movw	r30, r24
    1006:	80 81       	ld	r24, Z
    1008:	88 2f       	mov	r24, r24
    100a:	90 e0       	ldi	r25, 0x00	; 0
    100c:	81 70       	andi	r24, 0x01	; 1
    100e:	99 27       	eor	r25, r25
    1010:	21 e0       	ldi	r18, 0x01	; 1
    1012:	89 2b       	or	r24, r25
    1014:	09 f0       	breq	.+2      	; 0x1018 <__DATA_REGION_LENGTH__+0x18>
    1016:	20 e0       	ldi	r18, 0x00	; 0
    1018:	29 83       	std	Y+1, r18	; 0x01
    101a:	80 e2       	ldi	r24, 0x20	; 32
	Ready_2_Drive = ((~PINA & (1 << PA1)) >> PA1);
    101c:	90 e0       	ldi	r25, 0x00	; 0
    101e:	fc 01       	movw	r30, r24
    1020:	80 81       	ld	r24, Z
    1022:	88 2f       	mov	r24, r24
    1024:	90 e0       	ldi	r25, 0x00	; 0
    1026:	80 95       	com	r24
    1028:	90 95       	com	r25
    102a:	82 70       	andi	r24, 0x02	; 2
    102c:	99 27       	eor	r25, r25
    102e:	95 95       	asr	r25
    1030:	87 95       	ror	r24
    1032:	8a 83       	std	Y+2, r24	; 0x02
	display_write_str(display,"INV:  . C MTR:   . C", 0, 0);
    1034:	8b 81       	ldd	r24, Y+3	; 0x03
    1036:	9c 81       	ldd	r25, Y+4	; 0x04
    1038:	20 e0       	ldi	r18, 0x00	; 0
    103a:	40 e0       	ldi	r20, 0x00	; 0
    103c:	6c e0       	ldi	r22, 0x0C	; 12
    103e:	71 e0       	ldi	r23, 0x01	; 1
    1040:	60 df       	rcall	.-320    	; 0xf02 <display_write_str>
	display_write_str(display,"TSV:   V  ACCU:  . C", 1, 0);
    1042:	8b 81       	ldd	r24, Y+3	; 0x03
    1044:	9c 81       	ldd	r25, Y+4	; 0x04
    1046:	20 e0       	ldi	r18, 0x00	; 0
    1048:	41 e0       	ldi	r20, 0x01	; 1
    104a:	61 e2       	ldi	r22, 0x21	; 33
    104c:	71 e0       	ldi	r23, 0x01	; 1
    104e:	59 df       	rcall	.-334    	; 0xf02 <display_write_str>
    1050:	8b 81       	ldd	r24, Y+3	; 0x03
	display_write_str(display,"LVV:  . V COOL:__._C", 2, 0);
    1052:	9c 81       	ldd	r25, Y+4	; 0x04
    1054:	20 e0       	ldi	r18, 0x00	; 0
    1056:	42 e0       	ldi	r20, 0x02	; 2
    1058:	66 e3       	ldi	r22, 0x36	; 54
    105a:	71 e0       	ldi	r23, 0x01	; 1
    105c:	52 df       	rcall	.-348    	; 0xf02 <display_write_str>
    105e:	8b 81       	ldd	r24, Y+3	; 0x03
    1060:	9c 81       	ldd	r25, Y+4	; 0x04
	display_write_str(display,"APPS:     minV: .  V", 3, 0);
    1062:	20 e0       	ldi	r18, 0x00	; 0
    1064:	43 e0       	ldi	r20, 0x03	; 3
    1066:	6b e4       	ldi	r22, 0x4B	; 75
    1068:	71 e0       	ldi	r23, 0x01	; 1
    106a:	4b df       	rcall	.-362    	; 0xf02 <display_write_str>
    106c:	40 91 7d 02 	lds	r20, 0x027D	; 0x80027d <motor_temp>
    1070:	50 91 7e 02 	lds	r21, 0x027E	; 0x80027e <motor_temp+0x1>
	
	display_small_number(display,18, 0, motor_temp%10) ;
    1074:	9a 01       	movw	r18, r20
    1076:	ad ec       	ldi	r26, 0xCD	; 205
    1078:	bc ec       	ldi	r27, 0xCC	; 204
    107a:	0e 94 4b 1a 	call	0x3496	; 0x3496 <__umulhisi3>
    107e:	96 95       	lsr	r25
    1080:	87 95       	ror	r24
    1082:	96 95       	lsr	r25
    1084:	87 95       	ror	r24
    1086:	96 95       	lsr	r25
    1088:	87 95       	ror	r24
    108a:	88 0f       	add	r24, r24
    108c:	99 1f       	adc	r25, r25
    108e:	9c 01       	movw	r18, r24
    1090:	22 0f       	add	r18, r18
    1092:	33 1f       	adc	r19, r19
    1094:	22 0f       	add	r18, r18
    1096:	33 1f       	adc	r19, r19
    1098:	82 0f       	add	r24, r18
    109a:	93 1f       	adc	r25, r19
    109c:	9a 01       	movw	r18, r20
    109e:	28 1b       	sub	r18, r24
    10a0:	39 0b       	sbc	r19, r25
    10a2:	c9 01       	movw	r24, r18
    10a4:	28 2f       	mov	r18, r24
    10a6:	8b 81       	ldd	r24, Y+3	; 0x03
    10a8:	9c 81       	ldd	r25, Y+4	; 0x04
    10aa:	40 e0       	ldi	r20, 0x00	; 0
    10ac:	62 e1       	ldi	r22, 0x12	; 18
    10ae:	0e 94 0f 13 	call	0x261e	; 0x261e <display_small_number>
    10b2:	80 91 7d 02 	lds	r24, 0x027D	; 0x80027d <motor_temp>
    10b6:	90 91 7e 02 	lds	r25, 0x027E	; 0x80027e <motor_temp+0x1>
	display_small_number(display,16, 0, (motor_temp/10)%10);
    10ba:	9c 01       	movw	r18, r24
    10bc:	ad ec       	ldi	r26, 0xCD	; 205
    10be:	bc ec       	ldi	r27, 0xCC	; 204
    10c0:	0e 94 4b 1a 	call	0x3496	; 0x3496 <__umulhisi3>
    10c4:	ac 01       	movw	r20, r24
    10c6:	56 95       	lsr	r21
    10c8:	47 95       	ror	r20
    10ca:	56 95       	lsr	r21
    10cc:	47 95       	ror	r20
    10ce:	56 95       	lsr	r21
    10d0:	47 95       	ror	r20
    10d2:	9a 01       	movw	r18, r20
    10d4:	ad ec       	ldi	r26, 0xCD	; 205
    10d6:	bc ec       	ldi	r27, 0xCC	; 204
    10d8:	0e 94 4b 1a 	call	0x3496	; 0x3496 <__umulhisi3>
    10dc:	96 95       	lsr	r25
    10de:	87 95       	ror	r24
    10e0:	96 95       	lsr	r25
    10e2:	87 95       	ror	r24
    10e4:	96 95       	lsr	r25
    10e6:	87 95       	ror	r24
    10e8:	88 0f       	add	r24, r24
    10ea:	99 1f       	adc	r25, r25
    10ec:	9c 01       	movw	r18, r24
    10ee:	22 0f       	add	r18, r18
    10f0:	33 1f       	adc	r19, r19
    10f2:	22 0f       	add	r18, r18
    10f4:	33 1f       	adc	r19, r19
    10f6:	82 0f       	add	r24, r18
    10f8:	93 1f       	adc	r25, r19
    10fa:	fa 01       	movw	r30, r20
    10fc:	e8 1b       	sub	r30, r24
    10fe:	f9 0b       	sbc	r31, r25
    1100:	cf 01       	movw	r24, r30
    1102:	28 2f       	mov	r18, r24
    1104:	8b 81       	ldd	r24, Y+3	; 0x03
    1106:	9c 81       	ldd	r25, Y+4	; 0x04
    1108:	40 e0       	ldi	r20, 0x00	; 0
    110a:	60 e1       	ldi	r22, 0x10	; 16
    110c:	0e 94 0f 13 	call	0x261e	; 0x261e <display_small_number>
    1110:	80 91 7d 02 	lds	r24, 0x027D	; 0x80027d <motor_temp>
    1114:	90 91 7e 02 	lds	r25, 0x027E	; 0x80027e <motor_temp+0x1>
	display_small_number(display,15, 0, (motor_temp/100)%10);
    1118:	96 95       	lsr	r25
    111a:	87 95       	ror	r24
    111c:	96 95       	lsr	r25
    111e:	87 95       	ror	r24
    1120:	9c 01       	movw	r18, r24
    1122:	ab e7       	ldi	r26, 0x7B	; 123
    1124:	b4 e1       	ldi	r27, 0x14	; 20
    1126:	0e 94 4b 1a 	call	0x3496	; 0x3496 <__umulhisi3>
    112a:	ac 01       	movw	r20, r24
    112c:	56 95       	lsr	r21
    112e:	47 95       	ror	r20
    1130:	9a 01       	movw	r18, r20
    1132:	ad ec       	ldi	r26, 0xCD	; 205
    1134:	bc ec       	ldi	r27, 0xCC	; 204
    1136:	0e 94 4b 1a 	call	0x3496	; 0x3496 <__umulhisi3>
    113a:	96 95       	lsr	r25
    113c:	87 95       	ror	r24
    113e:	96 95       	lsr	r25
    1140:	87 95       	ror	r24
    1142:	96 95       	lsr	r25
    1144:	87 95       	ror	r24
    1146:	88 0f       	add	r24, r24
    1148:	99 1f       	adc	r25, r25
    114a:	9c 01       	movw	r18, r24
    114c:	22 0f       	add	r18, r18
    114e:	33 1f       	adc	r19, r19
    1150:	22 0f       	add	r18, r18
    1152:	33 1f       	adc	r19, r19
    1154:	82 0f       	add	r24, r18
    1156:	93 1f       	adc	r25, r19
    1158:	9a 01       	movw	r18, r20
    115a:	28 1b       	sub	r18, r24
    115c:	39 0b       	sbc	r19, r25
    115e:	c9 01       	movw	r24, r18
    1160:	28 2f       	mov	r18, r24
    1162:	8b 81       	ldd	r24, Y+3	; 0x03
    1164:	9c 81       	ldd	r25, Y+4	; 0x04
    1166:	40 e0       	ldi	r20, 0x00	; 0
    1168:	6f e0       	ldi	r22, 0x0F	; 15
    116a:	0e 94 0f 13 	call	0x261e	; 0x261e <display_small_number>
    116e:	40 91 7f 02 	lds	r20, 0x027F	; 0x80027f <mcu_temp>
    1172:	50 91 80 02 	lds	r21, 0x0280	; 0x800280 <mcu_temp+0x1>
		
	display_small_number(display,7, 0, mcu_temp%10);
    1176:	9a 01       	movw	r18, r20
    1178:	ad ec       	ldi	r26, 0xCD	; 205
    117a:	bc ec       	ldi	r27, 0xCC	; 204
    117c:	0e 94 4b 1a 	call	0x3496	; 0x3496 <__umulhisi3>
    1180:	96 95       	lsr	r25
    1182:	87 95       	ror	r24
    1184:	96 95       	lsr	r25
    1186:	87 95       	ror	r24
    1188:	96 95       	lsr	r25
    118a:	87 95       	ror	r24
    118c:	88 0f       	add	r24, r24
    118e:	99 1f       	adc	r25, r25
    1190:	9c 01       	movw	r18, r24
    1192:	22 0f       	add	r18, r18
    1194:	33 1f       	adc	r19, r19
    1196:	22 0f       	add	r18, r18
    1198:	33 1f       	adc	r19, r19
    119a:	82 0f       	add	r24, r18
    119c:	93 1f       	adc	r25, r19
    119e:	fa 01       	movw	r30, r20
    11a0:	e8 1b       	sub	r30, r24
    11a2:	f9 0b       	sbc	r31, r25
    11a4:	cf 01       	movw	r24, r30
    11a6:	28 2f       	mov	r18, r24
    11a8:	8b 81       	ldd	r24, Y+3	; 0x03
    11aa:	9c 81       	ldd	r25, Y+4	; 0x04
    11ac:	40 e0       	ldi	r20, 0x00	; 0
    11ae:	67 e0       	ldi	r22, 0x07	; 7
    11b0:	0e 94 0f 13 	call	0x261e	; 0x261e <display_small_number>
    11b4:	80 91 7f 02 	lds	r24, 0x027F	; 0x80027f <mcu_temp>
    11b8:	90 91 80 02 	lds	r25, 0x0280	; 0x800280 <mcu_temp+0x1>
	display_small_number(display,5, 0, (mcu_temp/10)%10);
    11bc:	9c 01       	movw	r18, r24
    11be:	ad ec       	ldi	r26, 0xCD	; 205
    11c0:	bc ec       	ldi	r27, 0xCC	; 204
    11c2:	0e 94 4b 1a 	call	0x3496	; 0x3496 <__umulhisi3>
    11c6:	ac 01       	movw	r20, r24
    11c8:	56 95       	lsr	r21
    11ca:	47 95       	ror	r20
    11cc:	56 95       	lsr	r21
    11ce:	47 95       	ror	r20
    11d0:	56 95       	lsr	r21
    11d2:	47 95       	ror	r20
    11d4:	9a 01       	movw	r18, r20
    11d6:	ad ec       	ldi	r26, 0xCD	; 205
    11d8:	bc ec       	ldi	r27, 0xCC	; 204
    11da:	0e 94 4b 1a 	call	0x3496	; 0x3496 <__umulhisi3>
    11de:	96 95       	lsr	r25
    11e0:	87 95       	ror	r24
    11e2:	96 95       	lsr	r25
    11e4:	87 95       	ror	r24
    11e6:	96 95       	lsr	r25
    11e8:	87 95       	ror	r24
    11ea:	88 0f       	add	r24, r24
    11ec:	99 1f       	adc	r25, r25
    11ee:	9c 01       	movw	r18, r24
    11f0:	22 0f       	add	r18, r18
    11f2:	33 1f       	adc	r19, r19
    11f4:	22 0f       	add	r18, r18
    11f6:	33 1f       	adc	r19, r19
    11f8:	82 0f       	add	r24, r18
    11fa:	93 1f       	adc	r25, r19
    11fc:	9a 01       	movw	r18, r20
    11fe:	28 1b       	sub	r18, r24
    1200:	39 0b       	sbc	r19, r25
    1202:	c9 01       	movw	r24, r18
    1204:	28 2f       	mov	r18, r24
    1206:	8b 81       	ldd	r24, Y+3	; 0x03
    1208:	9c 81       	ldd	r25, Y+4	; 0x04
    120a:	40 e0       	ldi	r20, 0x00	; 0
    120c:	65 e0       	ldi	r22, 0x05	; 5
    120e:	0e 94 0f 13 	call	0x261e	; 0x261e <display_small_number>
    1212:	80 91 7f 02 	lds	r24, 0x027F	; 0x80027f <mcu_temp>
    1216:	90 91 80 02 	lds	r25, 0x0280	; 0x800280 <mcu_temp+0x1>
	display_small_number(display,4, 0, (mcu_temp/100)%10);
    121a:	96 95       	lsr	r25
    121c:	87 95       	ror	r24
    121e:	96 95       	lsr	r25
    1220:	87 95       	ror	r24
    1222:	9c 01       	movw	r18, r24
    1224:	ab e7       	ldi	r26, 0x7B	; 123
    1226:	b4 e1       	ldi	r27, 0x14	; 20
    1228:	0e 94 4b 1a 	call	0x3496	; 0x3496 <__umulhisi3>
    122c:	ac 01       	movw	r20, r24
    122e:	56 95       	lsr	r21
    1230:	47 95       	ror	r20
    1232:	9a 01       	movw	r18, r20
    1234:	ad ec       	ldi	r26, 0xCD	; 205
    1236:	bc ec       	ldi	r27, 0xCC	; 204
    1238:	0e 94 4b 1a 	call	0x3496	; 0x3496 <__umulhisi3>
    123c:	96 95       	lsr	r25
    123e:	87 95       	ror	r24
    1240:	96 95       	lsr	r25
    1242:	87 95       	ror	r24
    1244:	96 95       	lsr	r25
    1246:	87 95       	ror	r24
    1248:	88 0f       	add	r24, r24
    124a:	99 1f       	adc	r25, r25
    124c:	9c 01       	movw	r18, r24
    124e:	22 0f       	add	r18, r18
    1250:	33 1f       	adc	r19, r19
    1252:	22 0f       	add	r18, r18
    1254:	33 1f       	adc	r19, r19
    1256:	82 0f       	add	r24, r18
    1258:	93 1f       	adc	r25, r19
    125a:	fa 01       	movw	r30, r20
    125c:	e8 1b       	sub	r30, r24
    125e:	f9 0b       	sbc	r31, r25
    1260:	cf 01       	movw	r24, r30
    1262:	28 2f       	mov	r18, r24
    1264:	8b 81       	ldd	r24, Y+3	; 0x03
    1266:	9c 81       	ldd	r25, Y+4	; 0x04
    1268:	40 e0       	ldi	r20, 0x00	; 0
    126a:	64 e0       	ldi	r22, 0x04	; 4
    126c:	0e 94 0f 13 	call	0x261e	; 0x261e <display_small_number>
    1270:	40 91 58 02 	lds	r20, 0x0258	; 0x800258 <__data_end>
    1274:	50 91 59 02 	lds	r21, 0x0259	; 0x800259 <__data_end+0x1>
	
	display_small_number(display,6, 1,ts_voltage%10);
    1278:	9a 01       	movw	r18, r20
    127a:	ad ec       	ldi	r26, 0xCD	; 205
    127c:	bc ec       	ldi	r27, 0xCC	; 204
    127e:	0e 94 4b 1a 	call	0x3496	; 0x3496 <__umulhisi3>
    1282:	96 95       	lsr	r25
    1284:	87 95       	ror	r24
    1286:	96 95       	lsr	r25
    1288:	87 95       	ror	r24
    128a:	96 95       	lsr	r25
    128c:	87 95       	ror	r24
    128e:	88 0f       	add	r24, r24
    1290:	99 1f       	adc	r25, r25
    1292:	9c 01       	movw	r18, r24
    1294:	22 0f       	add	r18, r18
    1296:	33 1f       	adc	r19, r19
    1298:	22 0f       	add	r18, r18
    129a:	33 1f       	adc	r19, r19
    129c:	82 0f       	add	r24, r18
    129e:	93 1f       	adc	r25, r19
    12a0:	9a 01       	movw	r18, r20
    12a2:	28 1b       	sub	r18, r24
    12a4:	39 0b       	sbc	r19, r25
    12a6:	c9 01       	movw	r24, r18
    12a8:	28 2f       	mov	r18, r24
    12aa:	8b 81       	ldd	r24, Y+3	; 0x03
    12ac:	9c 81       	ldd	r25, Y+4	; 0x04
    12ae:	41 e0       	ldi	r20, 0x01	; 1
    12b0:	66 e0       	ldi	r22, 0x06	; 6
    12b2:	0e 94 0f 13 	call	0x261e	; 0x261e <display_small_number>
    12b6:	80 91 58 02 	lds	r24, 0x0258	; 0x800258 <__data_end>
    12ba:	90 91 59 02 	lds	r25, 0x0259	; 0x800259 <__data_end+0x1>
	display_small_number(display,5, 1, (ts_voltage/10)%10);
    12be:	9c 01       	movw	r18, r24
    12c0:	ad ec       	ldi	r26, 0xCD	; 205
    12c2:	bc ec       	ldi	r27, 0xCC	; 204
    12c4:	0e 94 4b 1a 	call	0x3496	; 0x3496 <__umulhisi3>
    12c8:	ac 01       	movw	r20, r24
    12ca:	56 95       	lsr	r21
    12cc:	47 95       	ror	r20
    12ce:	56 95       	lsr	r21
    12d0:	47 95       	ror	r20
    12d2:	56 95       	lsr	r21
    12d4:	47 95       	ror	r20
    12d6:	9a 01       	movw	r18, r20
    12d8:	ad ec       	ldi	r26, 0xCD	; 205
    12da:	bc ec       	ldi	r27, 0xCC	; 204
    12dc:	0e 94 4b 1a 	call	0x3496	; 0x3496 <__umulhisi3>
    12e0:	96 95       	lsr	r25
    12e2:	87 95       	ror	r24
    12e4:	96 95       	lsr	r25
    12e6:	87 95       	ror	r24
    12e8:	96 95       	lsr	r25
    12ea:	87 95       	ror	r24
    12ec:	88 0f       	add	r24, r24
    12ee:	99 1f       	adc	r25, r25
    12f0:	9c 01       	movw	r18, r24
    12f2:	22 0f       	add	r18, r18
    12f4:	33 1f       	adc	r19, r19
    12f6:	22 0f       	add	r18, r18
    12f8:	33 1f       	adc	r19, r19
    12fa:	82 0f       	add	r24, r18
    12fc:	93 1f       	adc	r25, r19
    12fe:	fa 01       	movw	r30, r20
    1300:	e8 1b       	sub	r30, r24
    1302:	f9 0b       	sbc	r31, r25
    1304:	cf 01       	movw	r24, r30
    1306:	28 2f       	mov	r18, r24
    1308:	8b 81       	ldd	r24, Y+3	; 0x03
    130a:	9c 81       	ldd	r25, Y+4	; 0x04
    130c:	41 e0       	ldi	r20, 0x01	; 1
    130e:	65 e0       	ldi	r22, 0x05	; 5
    1310:	0e 94 0f 13 	call	0x261e	; 0x261e <display_small_number>
    1314:	80 91 58 02 	lds	r24, 0x0258	; 0x800258 <__data_end>
    1318:	90 91 59 02 	lds	r25, 0x0259	; 0x800259 <__data_end+0x1>
	display_small_number(display,4, 1, (ts_voltage/100)%10);
    131c:	96 95       	lsr	r25
    131e:	87 95       	ror	r24
    1320:	96 95       	lsr	r25
    1322:	87 95       	ror	r24
    1324:	9c 01       	movw	r18, r24
    1326:	ab e7       	ldi	r26, 0x7B	; 123
    1328:	b4 e1       	ldi	r27, 0x14	; 20
    132a:	0e 94 4b 1a 	call	0x3496	; 0x3496 <__umulhisi3>
    132e:	ac 01       	movw	r20, r24
    1330:	56 95       	lsr	r21
    1332:	47 95       	ror	r20
    1334:	9a 01       	movw	r18, r20
    1336:	ad ec       	ldi	r26, 0xCD	; 205
    1338:	bc ec       	ldi	r27, 0xCC	; 204
    133a:	0e 94 4b 1a 	call	0x3496	; 0x3496 <__umulhisi3>
    133e:	96 95       	lsr	r25
    1340:	87 95       	ror	r24
    1342:	96 95       	lsr	r25
    1344:	87 95       	ror	r24
    1346:	96 95       	lsr	r25
    1348:	87 95       	ror	r24
    134a:	88 0f       	add	r24, r24
    134c:	99 1f       	adc	r25, r25
    134e:	9c 01       	movw	r18, r24
    1350:	22 0f       	add	r18, r18
    1352:	33 1f       	adc	r19, r19
    1354:	22 0f       	add	r18, r18
    1356:	33 1f       	adc	r19, r19
    1358:	82 0f       	add	r24, r18
    135a:	93 1f       	adc	r25, r19
    135c:	9a 01       	movw	r18, r20
    135e:	28 1b       	sub	r18, r24
    1360:	39 0b       	sbc	r19, r25
    1362:	c9 01       	movw	r24, r18
    1364:	28 2f       	mov	r18, r24
    1366:	8b 81       	ldd	r24, Y+3	; 0x03
    1368:	9c 81       	ldd	r25, Y+4	; 0x04
    136a:	41 e0       	ldi	r20, 0x01	; 1
    136c:	64 e0       	ldi	r22, 0x04	; 4
    136e:	0e 94 0f 13 	call	0x261e	; 0x261e <display_small_number>
    1372:	40 91 67 02 	lds	r20, 0x0267	; 0x800267 <bms_max_temp>
    1376:	50 91 68 02 	lds	r21, 0x0268	; 0x800268 <bms_max_temp+0x1>
	
	display_small_number(display,18, 1,bms_max_temp%10);
    137a:	9a 01       	movw	r18, r20
    137c:	ad ec       	ldi	r26, 0xCD	; 205
    137e:	bc ec       	ldi	r27, 0xCC	; 204
    1380:	0e 94 4b 1a 	call	0x3496	; 0x3496 <__umulhisi3>
    1384:	96 95       	lsr	r25
    1386:	87 95       	ror	r24
    1388:	96 95       	lsr	r25
    138a:	87 95       	ror	r24
    138c:	96 95       	lsr	r25
    138e:	87 95       	ror	r24
    1390:	88 0f       	add	r24, r24
    1392:	99 1f       	adc	r25, r25
    1394:	9c 01       	movw	r18, r24
    1396:	22 0f       	add	r18, r18
    1398:	33 1f       	adc	r19, r19
    139a:	22 0f       	add	r18, r18
    139c:	33 1f       	adc	r19, r19
    139e:	82 0f       	add	r24, r18
    13a0:	93 1f       	adc	r25, r19
    13a2:	fa 01       	movw	r30, r20
    13a4:	e8 1b       	sub	r30, r24
    13a6:	f9 0b       	sbc	r31, r25
    13a8:	cf 01       	movw	r24, r30
    13aa:	28 2f       	mov	r18, r24
    13ac:	8b 81       	ldd	r24, Y+3	; 0x03
    13ae:	9c 81       	ldd	r25, Y+4	; 0x04
    13b0:	41 e0       	ldi	r20, 0x01	; 1
    13b2:	62 e1       	ldi	r22, 0x12	; 18
    13b4:	0e 94 0f 13 	call	0x261e	; 0x261e <display_small_number>
    13b8:	80 91 67 02 	lds	r24, 0x0267	; 0x800267 <bms_max_temp>
    13bc:	90 91 68 02 	lds	r25, 0x0268	; 0x800268 <bms_max_temp+0x1>
	display_small_number(display,16, 1, (bms_max_temp/10)%10);
    13c0:	9c 01       	movw	r18, r24
    13c2:	ad ec       	ldi	r26, 0xCD	; 205
    13c4:	bc ec       	ldi	r27, 0xCC	; 204
    13c6:	0e 94 4b 1a 	call	0x3496	; 0x3496 <__umulhisi3>
    13ca:	ac 01       	movw	r20, r24
    13cc:	56 95       	lsr	r21
    13ce:	47 95       	ror	r20
    13d0:	56 95       	lsr	r21
    13d2:	47 95       	ror	r20
    13d4:	56 95       	lsr	r21
    13d6:	47 95       	ror	r20
    13d8:	9a 01       	movw	r18, r20
    13da:	ad ec       	ldi	r26, 0xCD	; 205
    13dc:	bc ec       	ldi	r27, 0xCC	; 204
    13de:	0e 94 4b 1a 	call	0x3496	; 0x3496 <__umulhisi3>
    13e2:	96 95       	lsr	r25
    13e4:	87 95       	ror	r24
    13e6:	96 95       	lsr	r25
    13e8:	87 95       	ror	r24
    13ea:	96 95       	lsr	r25
    13ec:	87 95       	ror	r24
    13ee:	88 0f       	add	r24, r24
    13f0:	99 1f       	adc	r25, r25
    13f2:	9c 01       	movw	r18, r24
    13f4:	22 0f       	add	r18, r18
    13f6:	33 1f       	adc	r19, r19
    13f8:	22 0f       	add	r18, r18
    13fa:	33 1f       	adc	r19, r19
    13fc:	82 0f       	add	r24, r18
    13fe:	93 1f       	adc	r25, r19
    1400:	9a 01       	movw	r18, r20
    1402:	28 1b       	sub	r18, r24
    1404:	39 0b       	sbc	r19, r25
    1406:	c9 01       	movw	r24, r18
    1408:	28 2f       	mov	r18, r24
    140a:	8b 81       	ldd	r24, Y+3	; 0x03
    140c:	9c 81       	ldd	r25, Y+4	; 0x04
    140e:	41 e0       	ldi	r20, 0x01	; 1
    1410:	60 e1       	ldi	r22, 0x10	; 16
    1412:	0e 94 0f 13 	call	0x261e	; 0x261e <display_small_number>
    1416:	80 91 67 02 	lds	r24, 0x0267	; 0x800267 <bms_max_temp>
    141a:	90 91 68 02 	lds	r25, 0x0268	; 0x800268 <bms_max_temp+0x1>
	display_small_number(display,15, 1, (bms_max_temp/100)%10);
    141e:	96 95       	lsr	r25
    1420:	87 95       	ror	r24
    1422:	96 95       	lsr	r25
    1424:	87 95       	ror	r24
    1426:	9c 01       	movw	r18, r24
    1428:	ab e7       	ldi	r26, 0x7B	; 123
    142a:	b4 e1       	ldi	r27, 0x14	; 20
    142c:	0e 94 4b 1a 	call	0x3496	; 0x3496 <__umulhisi3>
    1430:	ac 01       	movw	r20, r24
    1432:	56 95       	lsr	r21
    1434:	47 95       	ror	r20
    1436:	9a 01       	movw	r18, r20
    1438:	ad ec       	ldi	r26, 0xCD	; 205
    143a:	bc ec       	ldi	r27, 0xCC	; 204
    143c:	0e 94 4b 1a 	call	0x3496	; 0x3496 <__umulhisi3>
    1440:	96 95       	lsr	r25
    1442:	87 95       	ror	r24
    1444:	96 95       	lsr	r25
    1446:	87 95       	ror	r24
    1448:	96 95       	lsr	r25
    144a:	87 95       	ror	r24
    144c:	88 0f       	add	r24, r24
    144e:	99 1f       	adc	r25, r25
    1450:	9c 01       	movw	r18, r24
    1452:	22 0f       	add	r18, r18
    1454:	33 1f       	adc	r19, r19
    1456:	22 0f       	add	r18, r18
    1458:	33 1f       	adc	r19, r19
    145a:	82 0f       	add	r24, r18
    145c:	93 1f       	adc	r25, r19
    145e:	fa 01       	movw	r30, r20
    1460:	e8 1b       	sub	r30, r24
    1462:	f9 0b       	sbc	r31, r25
    1464:	cf 01       	movw	r24, r30
    1466:	28 2f       	mov	r18, r24
    1468:	8b 81       	ldd	r24, Y+3	; 0x03
    146a:	9c 81       	ldd	r25, Y+4	; 0x04
    146c:	41 e0       	ldi	r20, 0x01	; 1
    146e:	6f e0       	ldi	r22, 0x0F	; 15
    1470:	0e 94 0f 13 	call	0x261e	; 0x261e <display_small_number>
    1474:	40 91 84 02 	lds	r20, 0x0284	; 0x800284 <battery_voltage>
    1478:	50 91 85 02 	lds	r21, 0x0285	; 0x800285 <battery_voltage+0x1>
	
	display_small_number(display,7, 2,battery_voltage%10) ;
    147c:	9a 01       	movw	r18, r20
    147e:	ad ec       	ldi	r26, 0xCD	; 205
    1480:	bc ec       	ldi	r27, 0xCC	; 204
    1482:	0e 94 4b 1a 	call	0x3496	; 0x3496 <__umulhisi3>
    1486:	96 95       	lsr	r25
    1488:	87 95       	ror	r24
    148a:	96 95       	lsr	r25
    148c:	87 95       	ror	r24
    148e:	96 95       	lsr	r25
    1490:	87 95       	ror	r24
    1492:	88 0f       	add	r24, r24
    1494:	99 1f       	adc	r25, r25
    1496:	9c 01       	movw	r18, r24
    1498:	22 0f       	add	r18, r18
    149a:	33 1f       	adc	r19, r19
    149c:	22 0f       	add	r18, r18
    149e:	33 1f       	adc	r19, r19
    14a0:	82 0f       	add	r24, r18
    14a2:	93 1f       	adc	r25, r19
    14a4:	9a 01       	movw	r18, r20
    14a6:	28 1b       	sub	r18, r24
    14a8:	39 0b       	sbc	r19, r25
    14aa:	c9 01       	movw	r24, r18
    14ac:	28 2f       	mov	r18, r24
    14ae:	8b 81       	ldd	r24, Y+3	; 0x03
    14b0:	9c 81       	ldd	r25, Y+4	; 0x04
    14b2:	42 e0       	ldi	r20, 0x02	; 2
    14b4:	67 e0       	ldi	r22, 0x07	; 7
    14b6:	0e 94 0f 13 	call	0x261e	; 0x261e <display_small_number>
    14ba:	80 91 84 02 	lds	r24, 0x0284	; 0x800284 <battery_voltage>
    14be:	90 91 85 02 	lds	r25, 0x0285	; 0x800285 <battery_voltage+0x1>
	display_small_number(display,5, 2, (battery_voltage/10)%10);
    14c2:	9c 01       	movw	r18, r24
    14c4:	ad ec       	ldi	r26, 0xCD	; 205
    14c6:	bc ec       	ldi	r27, 0xCC	; 204
    14c8:	0e 94 4b 1a 	call	0x3496	; 0x3496 <__umulhisi3>
    14cc:	ac 01       	movw	r20, r24
    14ce:	56 95       	lsr	r21
    14d0:	47 95       	ror	r20
    14d2:	56 95       	lsr	r21
    14d4:	47 95       	ror	r20
    14d6:	56 95       	lsr	r21
    14d8:	47 95       	ror	r20
    14da:	9a 01       	movw	r18, r20
    14dc:	ad ec       	ldi	r26, 0xCD	; 205
    14de:	bc ec       	ldi	r27, 0xCC	; 204
    14e0:	0e 94 4b 1a 	call	0x3496	; 0x3496 <__umulhisi3>
    14e4:	96 95       	lsr	r25
    14e6:	87 95       	ror	r24
    14e8:	96 95       	lsr	r25
    14ea:	87 95       	ror	r24
    14ec:	96 95       	lsr	r25
    14ee:	87 95       	ror	r24
    14f0:	88 0f       	add	r24, r24
    14f2:	99 1f       	adc	r25, r25
    14f4:	9c 01       	movw	r18, r24
    14f6:	22 0f       	add	r18, r18
    14f8:	33 1f       	adc	r19, r19
    14fa:	22 0f       	add	r18, r18
    14fc:	33 1f       	adc	r19, r19
    14fe:	82 0f       	add	r24, r18
    1500:	93 1f       	adc	r25, r19
    1502:	fa 01       	movw	r30, r20
    1504:	e8 1b       	sub	r30, r24
    1506:	f9 0b       	sbc	r31, r25
    1508:	cf 01       	movw	r24, r30
    150a:	28 2f       	mov	r18, r24
    150c:	8b 81       	ldd	r24, Y+3	; 0x03
    150e:	9c 81       	ldd	r25, Y+4	; 0x04
    1510:	42 e0       	ldi	r20, 0x02	; 2
    1512:	65 e0       	ldi	r22, 0x05	; 5
    1514:	0e 94 0f 13 	call	0x261e	; 0x261e <display_small_number>
    1518:	80 91 84 02 	lds	r24, 0x0284	; 0x800284 <battery_voltage>
    151c:	90 91 85 02 	lds	r25, 0x0285	; 0x800285 <battery_voltage+0x1>
	display_small_number(display,4, 2, (battery_voltage/100)%10);
    1520:	96 95       	lsr	r25
    1522:	87 95       	ror	r24
    1524:	96 95       	lsr	r25
    1526:	87 95       	ror	r24
    1528:	9c 01       	movw	r18, r24
    152a:	ab e7       	ldi	r26, 0x7B	; 123
    152c:	b4 e1       	ldi	r27, 0x14	; 20
    152e:	0e 94 4b 1a 	call	0x3496	; 0x3496 <__umulhisi3>
    1532:	ac 01       	movw	r20, r24
    1534:	56 95       	lsr	r21
    1536:	47 95       	ror	r20
    1538:	9a 01       	movw	r18, r20
    153a:	ad ec       	ldi	r26, 0xCD	; 205
    153c:	bc ec       	ldi	r27, 0xCC	; 204
    153e:	0e 94 4b 1a 	call	0x3496	; 0x3496 <__umulhisi3>
    1542:	96 95       	lsr	r25
    1544:	87 95       	ror	r24
    1546:	96 95       	lsr	r25
    1548:	87 95       	ror	r24
    154a:	96 95       	lsr	r25
    154c:	87 95       	ror	r24
    154e:	88 0f       	add	r24, r24
    1550:	99 1f       	adc	r25, r25
    1552:	9c 01       	movw	r18, r24
    1554:	22 0f       	add	r18, r18
    1556:	33 1f       	adc	r19, r19
    1558:	22 0f       	add	r18, r18
    155a:	33 1f       	adc	r19, r19
    155c:	82 0f       	add	r24, r18
    155e:	93 1f       	adc	r25, r19
    1560:	9a 01       	movw	r18, r20
    1562:	28 1b       	sub	r18, r24
    1564:	39 0b       	sbc	r19, r25
    1566:	c9 01       	movw	r24, r18
    1568:	28 2f       	mov	r18, r24
    156a:	8b 81       	ldd	r24, Y+3	; 0x03
    156c:	9c 81       	ldd	r25, Y+4	; 0x04
    156e:	42 e0       	ldi	r20, 0x02	; 2
    1570:	64 e0       	ldi	r22, 0x04	; 4
    1572:	0e 94 0f 13 	call	0x261e	; 0x261e <display_small_number>
    1576:	40 91 6d 02 	lds	r20, 0x026D	; 0x80026d <APPS2>
    157a:	50 91 6e 02 	lds	r21, 0x026E	; 0x80026e <APPS2+0x1>
	
	display_small_number(display,6, 3,APPS2%10) ;
    157e:	9a 01       	movw	r18, r20
    1580:	ad ec       	ldi	r26, 0xCD	; 205
    1582:	bc ec       	ldi	r27, 0xCC	; 204
    1584:	0e 94 4b 1a 	call	0x3496	; 0x3496 <__umulhisi3>
    1588:	96 95       	lsr	r25
    158a:	87 95       	ror	r24
    158c:	96 95       	lsr	r25
    158e:	87 95       	ror	r24
    1590:	96 95       	lsr	r25
    1592:	87 95       	ror	r24
    1594:	88 0f       	add	r24, r24
    1596:	99 1f       	adc	r25, r25
    1598:	9c 01       	movw	r18, r24
    159a:	22 0f       	add	r18, r18
    159c:	33 1f       	adc	r19, r19
    159e:	22 0f       	add	r18, r18
    15a0:	33 1f       	adc	r19, r19
    15a2:	82 0f       	add	r24, r18
    15a4:	93 1f       	adc	r25, r19
    15a6:	fa 01       	movw	r30, r20
    15a8:	e8 1b       	sub	r30, r24
    15aa:	f9 0b       	sbc	r31, r25
    15ac:	cf 01       	movw	r24, r30
    15ae:	28 2f       	mov	r18, r24
    15b0:	8b 81       	ldd	r24, Y+3	; 0x03
    15b2:	9c 81       	ldd	r25, Y+4	; 0x04
    15b4:	43 e0       	ldi	r20, 0x03	; 3
    15b6:	66 e0       	ldi	r22, 0x06	; 6
    15b8:	0e 94 0f 13 	call	0x261e	; 0x261e <display_small_number>
    15bc:	80 91 6d 02 	lds	r24, 0x026D	; 0x80026d <APPS2>
    15c0:	90 91 6e 02 	lds	r25, 0x026E	; 0x80026e <APPS2+0x1>
	display_small_number(display,5, 3, (APPS2/10)%10);
    15c4:	9c 01       	movw	r18, r24
    15c6:	ad ec       	ldi	r26, 0xCD	; 205
    15c8:	bc ec       	ldi	r27, 0xCC	; 204
    15ca:	0e 94 4b 1a 	call	0x3496	; 0x3496 <__umulhisi3>
    15ce:	ac 01       	movw	r20, r24
    15d0:	56 95       	lsr	r21
    15d2:	47 95       	ror	r20
    15d4:	56 95       	lsr	r21
    15d6:	47 95       	ror	r20
    15d8:	56 95       	lsr	r21
    15da:	47 95       	ror	r20
    15dc:	9a 01       	movw	r18, r20
    15de:	ad ec       	ldi	r26, 0xCD	; 205
    15e0:	bc ec       	ldi	r27, 0xCC	; 204
    15e2:	0e 94 4b 1a 	call	0x3496	; 0x3496 <__umulhisi3>
    15e6:	96 95       	lsr	r25
    15e8:	87 95       	ror	r24
    15ea:	96 95       	lsr	r25
    15ec:	87 95       	ror	r24
    15ee:	96 95       	lsr	r25
    15f0:	87 95       	ror	r24
    15f2:	88 0f       	add	r24, r24
    15f4:	99 1f       	adc	r25, r25
    15f6:	9c 01       	movw	r18, r24
    15f8:	22 0f       	add	r18, r18
    15fa:	33 1f       	adc	r19, r19
    15fc:	22 0f       	add	r18, r18
    15fe:	33 1f       	adc	r19, r19
    1600:	82 0f       	add	r24, r18
    1602:	93 1f       	adc	r25, r19
    1604:	9a 01       	movw	r18, r20
    1606:	28 1b       	sub	r18, r24
    1608:	39 0b       	sbc	r19, r25
    160a:	c9 01       	movw	r24, r18
    160c:	28 2f       	mov	r18, r24
    160e:	8b 81       	ldd	r24, Y+3	; 0x03
    1610:	9c 81       	ldd	r25, Y+4	; 0x04
    1612:	43 e0       	ldi	r20, 0x03	; 3
    1614:	65 e0       	ldi	r22, 0x05	; 5
    1616:	0e 94 0f 13 	call	0x261e	; 0x261e <display_small_number>
    161a:	40 91 65 02 	lds	r20, 0x0265	; 0x800265 <bms_min_voltage>
    161e:	50 91 66 02 	lds	r21, 0x0266	; 0x800266 <bms_min_voltage+0x1>
	
	//display_small_number(display,18, 2, cooling_1%10) ;
	//display_small_number(display,16, 2, (cooling_1/10)%10);
	//display_small_number(display,15, 2, (cooling_1/100)%10);
	
	display_small_number(display,18, 3, bms_min_voltage%10) ;
    1622:	9a 01       	movw	r18, r20
    1624:	ad ec       	ldi	r26, 0xCD	; 205
    1626:	bc ec       	ldi	r27, 0xCC	; 204
    1628:	0e 94 4b 1a 	call	0x3496	; 0x3496 <__umulhisi3>
    162c:	96 95       	lsr	r25
    162e:	87 95       	ror	r24
    1630:	96 95       	lsr	r25
    1632:	87 95       	ror	r24
    1634:	96 95       	lsr	r25
    1636:	87 95       	ror	r24
    1638:	88 0f       	add	r24, r24
    163a:	99 1f       	adc	r25, r25
    163c:	9c 01       	movw	r18, r24
    163e:	22 0f       	add	r18, r18
    1640:	33 1f       	adc	r19, r19
    1642:	22 0f       	add	r18, r18
    1644:	33 1f       	adc	r19, r19
    1646:	82 0f       	add	r24, r18
    1648:	93 1f       	adc	r25, r19
    164a:	fa 01       	movw	r30, r20
    164c:	e8 1b       	sub	r30, r24
    164e:	f9 0b       	sbc	r31, r25
    1650:	cf 01       	movw	r24, r30
    1652:	28 2f       	mov	r18, r24
    1654:	8b 81       	ldd	r24, Y+3	; 0x03
    1656:	9c 81       	ldd	r25, Y+4	; 0x04
    1658:	43 e0       	ldi	r20, 0x03	; 3
    165a:	62 e1       	ldi	r22, 0x12	; 18
    165c:	e0 d7       	rcall	.+4032   	; 0x261e <display_small_number>
    165e:	80 91 65 02 	lds	r24, 0x0265	; 0x800265 <bms_min_voltage>
    1662:	90 91 66 02 	lds	r25, 0x0266	; 0x800266 <bms_min_voltage+0x1>
	display_small_number(display,17, 3, (bms_min_voltage/10)%10);
    1666:	9c 01       	movw	r18, r24
    1668:	ad ec       	ldi	r26, 0xCD	; 205
    166a:	bc ec       	ldi	r27, 0xCC	; 204
    166c:	0e 94 4b 1a 	call	0x3496	; 0x3496 <__umulhisi3>
    1670:	ac 01       	movw	r20, r24
    1672:	56 95       	lsr	r21
    1674:	47 95       	ror	r20
    1676:	56 95       	lsr	r21
    1678:	47 95       	ror	r20
    167a:	56 95       	lsr	r21
    167c:	47 95       	ror	r20
    167e:	9a 01       	movw	r18, r20
    1680:	ad ec       	ldi	r26, 0xCD	; 205
    1682:	bc ec       	ldi	r27, 0xCC	; 204
    1684:	0e 94 4b 1a 	call	0x3496	; 0x3496 <__umulhisi3>
    1688:	96 95       	lsr	r25
    168a:	87 95       	ror	r24
    168c:	96 95       	lsr	r25
    168e:	87 95       	ror	r24
    1690:	96 95       	lsr	r25
    1692:	87 95       	ror	r24
    1694:	88 0f       	add	r24, r24
    1696:	99 1f       	adc	r25, r25
    1698:	9c 01       	movw	r18, r24
    169a:	22 0f       	add	r18, r18
    169c:	33 1f       	adc	r19, r19
    169e:	22 0f       	add	r18, r18
    16a0:	33 1f       	adc	r19, r19
    16a2:	82 0f       	add	r24, r18
    16a4:	93 1f       	adc	r25, r19
    16a6:	9a 01       	movw	r18, r20
    16a8:	28 1b       	sub	r18, r24
    16aa:	39 0b       	sbc	r19, r25
    16ac:	c9 01       	movw	r24, r18
    16ae:	28 2f       	mov	r18, r24
    16b0:	8b 81       	ldd	r24, Y+3	; 0x03
    16b2:	9c 81       	ldd	r25, Y+4	; 0x04
    16b4:	43 e0       	ldi	r20, 0x03	; 3
    16b6:	61 e1       	ldi	r22, 0x11	; 17
    16b8:	b2 d7       	rcall	.+3940   	; 0x261e <display_small_number>
    16ba:	80 91 65 02 	lds	r24, 0x0265	; 0x800265 <bms_min_voltage>
    16be:	90 91 66 02 	lds	r25, 0x0266	; 0x800266 <bms_min_voltage+0x1>
	display_small_number(display,15, 3, (bms_min_voltage/100)%10);
    16c2:	96 95       	lsr	r25
    16c4:	87 95       	ror	r24
    16c6:	96 95       	lsr	r25
    16c8:	87 95       	ror	r24
    16ca:	9c 01       	movw	r18, r24
    16cc:	ab e7       	ldi	r26, 0x7B	; 123
    16ce:	b4 e1       	ldi	r27, 0x14	; 20
    16d0:	0e 94 4b 1a 	call	0x3496	; 0x3496 <__umulhisi3>
    16d4:	ac 01       	movw	r20, r24
    16d6:	56 95       	lsr	r21
    16d8:	47 95       	ror	r20
    16da:	9a 01       	movw	r18, r20
    16dc:	ad ec       	ldi	r26, 0xCD	; 205
    16de:	bc ec       	ldi	r27, 0xCC	; 204
    16e0:	0e 94 4b 1a 	call	0x3496	; 0x3496 <__umulhisi3>
    16e4:	96 95       	lsr	r25
    16e6:	87 95       	ror	r24
    16e8:	96 95       	lsr	r25
    16ea:	87 95       	ror	r24
    16ec:	96 95       	lsr	r25
    16ee:	87 95       	ror	r24
    16f0:	88 0f       	add	r24, r24
    16f2:	99 1f       	adc	r25, r25
    16f4:	9c 01       	movw	r18, r24
    16f6:	22 0f       	add	r18, r18
    16f8:	33 1f       	adc	r19, r19
    16fa:	22 0f       	add	r18, r18
    16fc:	33 1f       	adc	r19, r19
    16fe:	82 0f       	add	r24, r18
    1700:	93 1f       	adc	r25, r19
    1702:	fa 01       	movw	r30, r20
    1704:	e8 1b       	sub	r30, r24
    1706:	f9 0b       	sbc	r31, r25
    1708:	cf 01       	movw	r24, r30
    170a:	28 2f       	mov	r18, r24
    170c:	8b 81       	ldd	r24, Y+3	; 0x03
    170e:	9c 81       	ldd	r25, Y+4	; 0x04
    1710:	43 e0       	ldi	r20, 0x03	; 3
    1712:	6f e0       	ldi	r22, 0x0F	; 15
    1714:	84 d7       	rcall	.+3848   	; 0x261e <display_small_number>
    1716:	00 00       	nop
    1718:	0f 90       	pop	r0
    171a:	0f 90       	pop	r0
	
}
    171c:	0f 90       	pop	r0
    171e:	0f 90       	pop	r0
    1720:	df 91       	pop	r29
    1722:	cf 91       	pop	r28
    1724:	08 95       	ret

00001726 <display_debug>:
    1726:	cf 93       	push	r28
    1728:	df 93       	push	r29
    172a:	00 d0       	rcall	.+0      	; 0x172c <display_debug+0x6>
void display_debug(struct DISPLAY_PAGE *display)
{
    172c:	00 d0       	rcall	.+0      	; 0x172e <display_debug+0x8>
    172e:	cd b7       	in	r28, 0x3d	; 61
    1730:	de b7       	in	r29, 0x3e	; 62
    1732:	9c 83       	std	Y+4, r25	; 0x04
    1734:	8b 83       	std	Y+3, r24	; 0x03
    1736:	19 82       	std	Y+1, r1	; 0x01
    1738:	1a 82       	std	Y+2, r1	; 0x02
    173a:	80 e2       	ldi	r24, 0x20	; 32
	uint8_t TS_ON = 0;
    173c:	90 e0       	ldi	r25, 0x00	; 0
	uint8_t Ready_2_Drive = 0;
    173e:	fc 01       	movw	r30, r24
	
	TS_ON = (~PINA & (1 << PA0));
    1740:	80 81       	ld	r24, Z
    1742:	88 2f       	mov	r24, r24
    1744:	90 e0       	ldi	r25, 0x00	; 0
    1746:	81 70       	andi	r24, 0x01	; 1
    1748:	99 27       	eor	r25, r25
    174a:	21 e0       	ldi	r18, 0x01	; 1
    174c:	89 2b       	or	r24, r25
    174e:	09 f0       	breq	.+2      	; 0x1752 <display_debug+0x2c>
    1750:	20 e0       	ldi	r18, 0x00	; 0
    1752:	29 83       	std	Y+1, r18	; 0x01
    1754:	80 e2       	ldi	r24, 0x20	; 32
    1756:	90 e0       	ldi	r25, 0x00	; 0
	Ready_2_Drive = ((~PINA & (1 << PA1)) >> PA1);
    1758:	fc 01       	movw	r30, r24
    175a:	80 81       	ld	r24, Z
    175c:	88 2f       	mov	r24, r24
    175e:	90 e0       	ldi	r25, 0x00	; 0
    1760:	80 95       	com	r24
    1762:	90 95       	com	r25
    1764:	82 70       	andi	r24, 0x02	; 2
    1766:	99 27       	eor	r25, r25
    1768:	95 95       	asr	r25
    176a:	87 95       	ror	r24
    176c:	8a 83       	std	Y+2, r24	; 0x02
	display_write_str(display,"TSV:   V  ACCU:  . C", 0, 0);
    176e:	8b 81       	ldd	r24, Y+3	; 0x03
    1770:	9c 81       	ldd	r25, Y+4	; 0x04
    1772:	20 e0       	ldi	r18, 0x00	; 0
    1774:	40 e0       	ldi	r20, 0x00	; 0
    1776:	61 e2       	ldi	r22, 0x21	; 33
    1778:	71 e0       	ldi	r23, 0x01	; 1
    177a:	c3 db       	rcall	.-2170   	; 0xf02 <display_write_str>
	display_write_str(display,"LVV:  . V COOL:  . C", 1, 0);
    177c:	8b 81       	ldd	r24, Y+3	; 0x03
    177e:	9c 81       	ldd	r25, Y+4	; 0x04
    1780:	20 e0       	ldi	r18, 0x00	; 0
    1782:	41 e0       	ldi	r20, 0x01	; 1
    1784:	60 e6       	ldi	r22, 0x60	; 96
    1786:	71 e0       	ldi	r23, 0x01	; 1
    1788:	bc db       	rcall	.-2184   	; 0xf02 <display_write_str>
    178a:	8b 81       	ldd	r24, Y+3	; 0x03
	display_write_str(display,"APPS1:  %  APPS2:  %", 2, 0);
    178c:	9c 81       	ldd	r25, Y+4	; 0x04
    178e:	20 e0       	ldi	r18, 0x00	; 0
    1790:	42 e0       	ldi	r20, 0x02	; 2
    1792:	65 e7       	ldi	r22, 0x75	; 117
    1794:	71 e0       	ldi	r23, 0x01	; 1
    1796:	b5 db       	rcall	.-2198   	; 0xf02 <display_write_str>
    1798:	8b 81       	ldd	r24, Y+3	; 0x03
    179a:	9c 81       	ldd	r25, Y+4	; 0x04
	display_write_str(display,"BPF:  BPR:          ", 3, 0);
    179c:	20 e0       	ldi	r18, 0x00	; 0
    179e:	43 e0       	ldi	r20, 0x03	; 3
    17a0:	6a e8       	ldi	r22, 0x8A	; 138
    17a2:	71 e0       	ldi	r23, 0x01	; 1
    17a4:	ae db       	rcall	.-2212   	; 0xf02 <display_write_str>
    17a6:	40 91 58 02 	lds	r20, 0x0258	; 0x800258 <__data_end>
    17aa:	50 91 59 02 	lds	r21, 0x0259	; 0x800259 <__data_end+0x1>
	
	display_small_number(display,6, 0,ts_voltage%10) ;
    17ae:	9a 01       	movw	r18, r20
    17b0:	ad ec       	ldi	r26, 0xCD	; 205
    17b2:	bc ec       	ldi	r27, 0xCC	; 204
    17b4:	0e 94 4b 1a 	call	0x3496	; 0x3496 <__umulhisi3>
    17b8:	96 95       	lsr	r25
    17ba:	87 95       	ror	r24
    17bc:	96 95       	lsr	r25
    17be:	87 95       	ror	r24
    17c0:	96 95       	lsr	r25
    17c2:	87 95       	ror	r24
    17c4:	88 0f       	add	r24, r24
    17c6:	99 1f       	adc	r25, r25
    17c8:	9c 01       	movw	r18, r24
    17ca:	22 0f       	add	r18, r18
    17cc:	33 1f       	adc	r19, r19
    17ce:	22 0f       	add	r18, r18
    17d0:	33 1f       	adc	r19, r19
    17d2:	82 0f       	add	r24, r18
    17d4:	93 1f       	adc	r25, r19
    17d6:	9a 01       	movw	r18, r20
    17d8:	28 1b       	sub	r18, r24
    17da:	39 0b       	sbc	r19, r25
    17dc:	c9 01       	movw	r24, r18
    17de:	28 2f       	mov	r18, r24
    17e0:	8b 81       	ldd	r24, Y+3	; 0x03
    17e2:	9c 81       	ldd	r25, Y+4	; 0x04
    17e4:	40 e0       	ldi	r20, 0x00	; 0
    17e6:	66 e0       	ldi	r22, 0x06	; 6
    17e8:	1a d7       	rcall	.+3636   	; 0x261e <display_small_number>
    17ea:	80 91 58 02 	lds	r24, 0x0258	; 0x800258 <__data_end>
    17ee:	90 91 59 02 	lds	r25, 0x0259	; 0x800259 <__data_end+0x1>
	display_small_number(display,5, 0, (ts_voltage/10)%10);
    17f2:	9c 01       	movw	r18, r24
    17f4:	ad ec       	ldi	r26, 0xCD	; 205
    17f6:	bc ec       	ldi	r27, 0xCC	; 204
    17f8:	0e 94 4b 1a 	call	0x3496	; 0x3496 <__umulhisi3>
    17fc:	ac 01       	movw	r20, r24
    17fe:	56 95       	lsr	r21
    1800:	47 95       	ror	r20
    1802:	56 95       	lsr	r21
    1804:	47 95       	ror	r20
    1806:	56 95       	lsr	r21
    1808:	47 95       	ror	r20
    180a:	9a 01       	movw	r18, r20
    180c:	ad ec       	ldi	r26, 0xCD	; 205
    180e:	bc ec       	ldi	r27, 0xCC	; 204
    1810:	0e 94 4b 1a 	call	0x3496	; 0x3496 <__umulhisi3>
    1814:	96 95       	lsr	r25
    1816:	87 95       	ror	r24
    1818:	96 95       	lsr	r25
    181a:	87 95       	ror	r24
    181c:	96 95       	lsr	r25
    181e:	87 95       	ror	r24
    1820:	88 0f       	add	r24, r24
    1822:	99 1f       	adc	r25, r25
    1824:	9c 01       	movw	r18, r24
    1826:	22 0f       	add	r18, r18
    1828:	33 1f       	adc	r19, r19
    182a:	22 0f       	add	r18, r18
    182c:	33 1f       	adc	r19, r19
    182e:	82 0f       	add	r24, r18
    1830:	93 1f       	adc	r25, r19
    1832:	fa 01       	movw	r30, r20
    1834:	e8 1b       	sub	r30, r24
    1836:	f9 0b       	sbc	r31, r25
    1838:	cf 01       	movw	r24, r30
    183a:	28 2f       	mov	r18, r24
    183c:	8b 81       	ldd	r24, Y+3	; 0x03
    183e:	9c 81       	ldd	r25, Y+4	; 0x04
    1840:	40 e0       	ldi	r20, 0x00	; 0
    1842:	65 e0       	ldi	r22, 0x05	; 5
    1844:	ec d6       	rcall	.+3544   	; 0x261e <display_small_number>
    1846:	80 91 58 02 	lds	r24, 0x0258	; 0x800258 <__data_end>
    184a:	90 91 59 02 	lds	r25, 0x0259	; 0x800259 <__data_end+0x1>
	display_small_number(display,4, 0, (ts_voltage/100)%10);
    184e:	96 95       	lsr	r25
    1850:	87 95       	ror	r24
    1852:	96 95       	lsr	r25
    1854:	87 95       	ror	r24
    1856:	9c 01       	movw	r18, r24
    1858:	ab e7       	ldi	r26, 0x7B	; 123
    185a:	b4 e1       	ldi	r27, 0x14	; 20
    185c:	0e 94 4b 1a 	call	0x3496	; 0x3496 <__umulhisi3>
    1860:	ac 01       	movw	r20, r24
    1862:	56 95       	lsr	r21
    1864:	47 95       	ror	r20
    1866:	9a 01       	movw	r18, r20
    1868:	ad ec       	ldi	r26, 0xCD	; 205
    186a:	bc ec       	ldi	r27, 0xCC	; 204
    186c:	0e 94 4b 1a 	call	0x3496	; 0x3496 <__umulhisi3>
    1870:	96 95       	lsr	r25
    1872:	87 95       	ror	r24
    1874:	96 95       	lsr	r25
    1876:	87 95       	ror	r24
    1878:	96 95       	lsr	r25
    187a:	87 95       	ror	r24
    187c:	88 0f       	add	r24, r24
    187e:	99 1f       	adc	r25, r25
    1880:	9c 01       	movw	r18, r24
    1882:	22 0f       	add	r18, r18
    1884:	33 1f       	adc	r19, r19
    1886:	22 0f       	add	r18, r18
    1888:	33 1f       	adc	r19, r19
    188a:	82 0f       	add	r24, r18
    188c:	93 1f       	adc	r25, r19
    188e:	9a 01       	movw	r18, r20
    1890:	28 1b       	sub	r18, r24
    1892:	39 0b       	sbc	r19, r25
    1894:	c9 01       	movw	r24, r18
    1896:	28 2f       	mov	r18, r24
    1898:	8b 81       	ldd	r24, Y+3	; 0x03
    189a:	9c 81       	ldd	r25, Y+4	; 0x04
    189c:	40 e0       	ldi	r20, 0x00	; 0
    189e:	64 e0       	ldi	r22, 0x04	; 4
    18a0:	be d6       	rcall	.+3452   	; 0x261e <display_small_number>
    18a2:	40 91 67 02 	lds	r20, 0x0267	; 0x800267 <bms_max_temp>
    18a6:	50 91 68 02 	lds	r21, 0x0268	; 0x800268 <bms_max_temp+0x1>
	
	display_small_number(display,18, 0,bms_max_temp%10) ;
    18aa:	9a 01       	movw	r18, r20
    18ac:	ad ec       	ldi	r26, 0xCD	; 205
    18ae:	bc ec       	ldi	r27, 0xCC	; 204
    18b0:	0e 94 4b 1a 	call	0x3496	; 0x3496 <__umulhisi3>
    18b4:	96 95       	lsr	r25
    18b6:	87 95       	ror	r24
    18b8:	96 95       	lsr	r25
    18ba:	87 95       	ror	r24
    18bc:	96 95       	lsr	r25
    18be:	87 95       	ror	r24
    18c0:	88 0f       	add	r24, r24
    18c2:	99 1f       	adc	r25, r25
    18c4:	9c 01       	movw	r18, r24
    18c6:	22 0f       	add	r18, r18
    18c8:	33 1f       	adc	r19, r19
    18ca:	22 0f       	add	r18, r18
    18cc:	33 1f       	adc	r19, r19
    18ce:	82 0f       	add	r24, r18
    18d0:	93 1f       	adc	r25, r19
    18d2:	fa 01       	movw	r30, r20
    18d4:	e8 1b       	sub	r30, r24
    18d6:	f9 0b       	sbc	r31, r25
    18d8:	cf 01       	movw	r24, r30
    18da:	28 2f       	mov	r18, r24
    18dc:	8b 81       	ldd	r24, Y+3	; 0x03
    18de:	9c 81       	ldd	r25, Y+4	; 0x04
    18e0:	40 e0       	ldi	r20, 0x00	; 0
    18e2:	62 e1       	ldi	r22, 0x12	; 18
    18e4:	9c d6       	rcall	.+3384   	; 0x261e <display_small_number>
    18e6:	80 91 67 02 	lds	r24, 0x0267	; 0x800267 <bms_max_temp>
    18ea:	90 91 68 02 	lds	r25, 0x0268	; 0x800268 <bms_max_temp+0x1>
	display_small_number(display,16, 0, (bms_max_temp/10)%10);
    18ee:	9c 01       	movw	r18, r24
    18f0:	ad ec       	ldi	r26, 0xCD	; 205
    18f2:	bc ec       	ldi	r27, 0xCC	; 204
    18f4:	0e 94 4b 1a 	call	0x3496	; 0x3496 <__umulhisi3>
    18f8:	ac 01       	movw	r20, r24
    18fa:	56 95       	lsr	r21
    18fc:	47 95       	ror	r20
    18fe:	56 95       	lsr	r21
    1900:	47 95       	ror	r20
    1902:	56 95       	lsr	r21
    1904:	47 95       	ror	r20
    1906:	9a 01       	movw	r18, r20
    1908:	ad ec       	ldi	r26, 0xCD	; 205
    190a:	bc ec       	ldi	r27, 0xCC	; 204
    190c:	0e 94 4b 1a 	call	0x3496	; 0x3496 <__umulhisi3>
    1910:	96 95       	lsr	r25
    1912:	87 95       	ror	r24
    1914:	96 95       	lsr	r25
    1916:	87 95       	ror	r24
    1918:	96 95       	lsr	r25
    191a:	87 95       	ror	r24
    191c:	88 0f       	add	r24, r24
    191e:	99 1f       	adc	r25, r25
    1920:	9c 01       	movw	r18, r24
    1922:	22 0f       	add	r18, r18
    1924:	33 1f       	adc	r19, r19
    1926:	22 0f       	add	r18, r18
    1928:	33 1f       	adc	r19, r19
    192a:	82 0f       	add	r24, r18
    192c:	93 1f       	adc	r25, r19
    192e:	9a 01       	movw	r18, r20
    1930:	28 1b       	sub	r18, r24
    1932:	39 0b       	sbc	r19, r25
    1934:	c9 01       	movw	r24, r18
    1936:	28 2f       	mov	r18, r24
    1938:	8b 81       	ldd	r24, Y+3	; 0x03
    193a:	9c 81       	ldd	r25, Y+4	; 0x04
    193c:	40 e0       	ldi	r20, 0x00	; 0
    193e:	60 e1       	ldi	r22, 0x10	; 16
    1940:	6e d6       	rcall	.+3292   	; 0x261e <display_small_number>
    1942:	80 91 67 02 	lds	r24, 0x0267	; 0x800267 <bms_max_temp>
    1946:	90 91 68 02 	lds	r25, 0x0268	; 0x800268 <bms_max_temp+0x1>
	display_small_number(display,15, 0, (bms_max_temp/100)%10);
    194a:	96 95       	lsr	r25
    194c:	87 95       	ror	r24
    194e:	96 95       	lsr	r25
    1950:	87 95       	ror	r24
    1952:	9c 01       	movw	r18, r24
    1954:	ab e7       	ldi	r26, 0x7B	; 123
    1956:	b4 e1       	ldi	r27, 0x14	; 20
    1958:	0e 94 4b 1a 	call	0x3496	; 0x3496 <__umulhisi3>
    195c:	ac 01       	movw	r20, r24
    195e:	56 95       	lsr	r21
    1960:	47 95       	ror	r20
    1962:	9a 01       	movw	r18, r20
    1964:	ad ec       	ldi	r26, 0xCD	; 205
    1966:	bc ec       	ldi	r27, 0xCC	; 204
    1968:	0e 94 4b 1a 	call	0x3496	; 0x3496 <__umulhisi3>
    196c:	96 95       	lsr	r25
    196e:	87 95       	ror	r24
    1970:	96 95       	lsr	r25
    1972:	87 95       	ror	r24
    1974:	96 95       	lsr	r25
    1976:	87 95       	ror	r24
    1978:	88 0f       	add	r24, r24
    197a:	99 1f       	adc	r25, r25
    197c:	9c 01       	movw	r18, r24
    197e:	22 0f       	add	r18, r18
    1980:	33 1f       	adc	r19, r19
    1982:	22 0f       	add	r18, r18
    1984:	33 1f       	adc	r19, r19
    1986:	82 0f       	add	r24, r18
    1988:	93 1f       	adc	r25, r19
    198a:	fa 01       	movw	r30, r20
    198c:	e8 1b       	sub	r30, r24
    198e:	f9 0b       	sbc	r31, r25
    1990:	cf 01       	movw	r24, r30
    1992:	28 2f       	mov	r18, r24
    1994:	8b 81       	ldd	r24, Y+3	; 0x03
    1996:	9c 81       	ldd	r25, Y+4	; 0x04
    1998:	40 e0       	ldi	r20, 0x00	; 0
    199a:	6f e0       	ldi	r22, 0x0F	; 15
    199c:	40 d6       	rcall	.+3200   	; 0x261e <display_small_number>
    199e:	40 91 84 02 	lds	r20, 0x0284	; 0x800284 <battery_voltage>
	
	display_small_number(display,7, 1,battery_voltage%10) ;
    19a2:	50 91 85 02 	lds	r21, 0x0285	; 0x800285 <battery_voltage+0x1>
    19a6:	9a 01       	movw	r18, r20
    19a8:	ad ec       	ldi	r26, 0xCD	; 205
    19aa:	bc ec       	ldi	r27, 0xCC	; 204
    19ac:	0e 94 4b 1a 	call	0x3496	; 0x3496 <__umulhisi3>
    19b0:	96 95       	lsr	r25
    19b2:	87 95       	ror	r24
    19b4:	96 95       	lsr	r25
    19b6:	87 95       	ror	r24
    19b8:	96 95       	lsr	r25
    19ba:	87 95       	ror	r24
    19bc:	88 0f       	add	r24, r24
    19be:	99 1f       	adc	r25, r25
    19c0:	9c 01       	movw	r18, r24
    19c2:	22 0f       	add	r18, r18
    19c4:	33 1f       	adc	r19, r19
    19c6:	22 0f       	add	r18, r18
    19c8:	33 1f       	adc	r19, r19
    19ca:	82 0f       	add	r24, r18
    19cc:	93 1f       	adc	r25, r19
    19ce:	9a 01       	movw	r18, r20
    19d0:	28 1b       	sub	r18, r24
    19d2:	39 0b       	sbc	r19, r25
    19d4:	c9 01       	movw	r24, r18
    19d6:	28 2f       	mov	r18, r24
    19d8:	8b 81       	ldd	r24, Y+3	; 0x03
    19da:	9c 81       	ldd	r25, Y+4	; 0x04
    19dc:	41 e0       	ldi	r20, 0x01	; 1
    19de:	67 e0       	ldi	r22, 0x07	; 7
    19e0:	1e d6       	rcall	.+3132   	; 0x261e <display_small_number>
    19e2:	80 91 84 02 	lds	r24, 0x0284	; 0x800284 <battery_voltage>
    19e6:	90 91 85 02 	lds	r25, 0x0285	; 0x800285 <battery_voltage+0x1>
	display_small_number(display,5, 1, (battery_voltage/10)%10);
    19ea:	9c 01       	movw	r18, r24
    19ec:	ad ec       	ldi	r26, 0xCD	; 205
    19ee:	bc ec       	ldi	r27, 0xCC	; 204
    19f0:	0e 94 4b 1a 	call	0x3496	; 0x3496 <__umulhisi3>
    19f4:	ac 01       	movw	r20, r24
    19f6:	56 95       	lsr	r21
    19f8:	47 95       	ror	r20
    19fa:	56 95       	lsr	r21
    19fc:	47 95       	ror	r20
    19fe:	56 95       	lsr	r21
    1a00:	47 95       	ror	r20
    1a02:	9a 01       	movw	r18, r20
    1a04:	ad ec       	ldi	r26, 0xCD	; 205
    1a06:	bc ec       	ldi	r27, 0xCC	; 204
    1a08:	0e 94 4b 1a 	call	0x3496	; 0x3496 <__umulhisi3>
    1a0c:	96 95       	lsr	r25
    1a0e:	87 95       	ror	r24
    1a10:	96 95       	lsr	r25
    1a12:	87 95       	ror	r24
    1a14:	96 95       	lsr	r25
    1a16:	87 95       	ror	r24
    1a18:	88 0f       	add	r24, r24
    1a1a:	99 1f       	adc	r25, r25
    1a1c:	9c 01       	movw	r18, r24
    1a1e:	22 0f       	add	r18, r18
    1a20:	33 1f       	adc	r19, r19
    1a22:	22 0f       	add	r18, r18
    1a24:	33 1f       	adc	r19, r19
    1a26:	82 0f       	add	r24, r18
    1a28:	93 1f       	adc	r25, r19
    1a2a:	fa 01       	movw	r30, r20
    1a2c:	e8 1b       	sub	r30, r24
    1a2e:	f9 0b       	sbc	r31, r25
    1a30:	cf 01       	movw	r24, r30
    1a32:	28 2f       	mov	r18, r24
    1a34:	8b 81       	ldd	r24, Y+3	; 0x03
    1a36:	9c 81       	ldd	r25, Y+4	; 0x04
    1a38:	41 e0       	ldi	r20, 0x01	; 1
    1a3a:	65 e0       	ldi	r22, 0x05	; 5
    1a3c:	f0 d5       	rcall	.+3040   	; 0x261e <display_small_number>
    1a3e:	80 91 84 02 	lds	r24, 0x0284	; 0x800284 <battery_voltage>
    1a42:	90 91 85 02 	lds	r25, 0x0285	; 0x800285 <battery_voltage+0x1>
	display_small_number(display,4, 1, (battery_voltage/100)%10);
    1a46:	96 95       	lsr	r25
    1a48:	87 95       	ror	r24
    1a4a:	96 95       	lsr	r25
    1a4c:	87 95       	ror	r24
    1a4e:	9c 01       	movw	r18, r24
    1a50:	ab e7       	ldi	r26, 0x7B	; 123
    1a52:	b4 e1       	ldi	r27, 0x14	; 20
    1a54:	0e 94 4b 1a 	call	0x3496	; 0x3496 <__umulhisi3>
    1a58:	ac 01       	movw	r20, r24
    1a5a:	56 95       	lsr	r21
    1a5c:	47 95       	ror	r20
    1a5e:	9a 01       	movw	r18, r20
    1a60:	ad ec       	ldi	r26, 0xCD	; 205
    1a62:	bc ec       	ldi	r27, 0xCC	; 204
    1a64:	0e 94 4b 1a 	call	0x3496	; 0x3496 <__umulhisi3>
    1a68:	96 95       	lsr	r25
    1a6a:	87 95       	ror	r24
    1a6c:	96 95       	lsr	r25
    1a6e:	87 95       	ror	r24
    1a70:	96 95       	lsr	r25
    1a72:	87 95       	ror	r24
    1a74:	88 0f       	add	r24, r24
    1a76:	99 1f       	adc	r25, r25
    1a78:	9c 01       	movw	r18, r24
    1a7a:	22 0f       	add	r18, r18
    1a7c:	33 1f       	adc	r19, r19
    1a7e:	22 0f       	add	r18, r18
    1a80:	33 1f       	adc	r19, r19
    1a82:	82 0f       	add	r24, r18
    1a84:	93 1f       	adc	r25, r19
    1a86:	9a 01       	movw	r18, r20
    1a88:	28 1b       	sub	r18, r24
    1a8a:	39 0b       	sbc	r19, r25
    1a8c:	c9 01       	movw	r24, r18
    1a8e:	28 2f       	mov	r18, r24
    1a90:	8b 81       	ldd	r24, Y+3	; 0x03
    1a92:	9c 81       	ldd	r25, Y+4	; 0x04
    1a94:	41 e0       	ldi	r20, 0x01	; 1
    1a96:	64 e0       	ldi	r22, 0x04	; 4
    1a98:	c2 d5       	rcall	.+2948   	; 0x261e <display_small_number>
    1a9a:	40 91 73 02 	lds	r20, 0x0273	; 0x800273 <cooling_1>
	
	display_small_number(display,18, 1, cooling_1%10) ;
    1a9e:	50 91 74 02 	lds	r21, 0x0274	; 0x800274 <cooling_1+0x1>
    1aa2:	9a 01       	movw	r18, r20
    1aa4:	ad ec       	ldi	r26, 0xCD	; 205
    1aa6:	bc ec       	ldi	r27, 0xCC	; 204
    1aa8:	0e 94 4b 1a 	call	0x3496	; 0x3496 <__umulhisi3>
    1aac:	96 95       	lsr	r25
    1aae:	87 95       	ror	r24
    1ab0:	96 95       	lsr	r25
    1ab2:	87 95       	ror	r24
    1ab4:	96 95       	lsr	r25
    1ab6:	87 95       	ror	r24
    1ab8:	88 0f       	add	r24, r24
    1aba:	99 1f       	adc	r25, r25
    1abc:	9c 01       	movw	r18, r24
    1abe:	22 0f       	add	r18, r18
    1ac0:	33 1f       	adc	r19, r19
    1ac2:	22 0f       	add	r18, r18
    1ac4:	33 1f       	adc	r19, r19
    1ac6:	82 0f       	add	r24, r18
    1ac8:	93 1f       	adc	r25, r19
    1aca:	fa 01       	movw	r30, r20
    1acc:	e8 1b       	sub	r30, r24
    1ace:	f9 0b       	sbc	r31, r25
    1ad0:	cf 01       	movw	r24, r30
    1ad2:	28 2f       	mov	r18, r24
    1ad4:	8b 81       	ldd	r24, Y+3	; 0x03
    1ad6:	9c 81       	ldd	r25, Y+4	; 0x04
    1ad8:	41 e0       	ldi	r20, 0x01	; 1
    1ada:	62 e1       	ldi	r22, 0x12	; 18
    1adc:	a0 d5       	rcall	.+2880   	; 0x261e <display_small_number>
    1ade:	80 91 73 02 	lds	r24, 0x0273	; 0x800273 <cooling_1>
    1ae2:	90 91 74 02 	lds	r25, 0x0274	; 0x800274 <cooling_1+0x1>
	display_small_number(display,16, 1, (cooling_1/10)%10);
    1ae6:	9c 01       	movw	r18, r24
    1ae8:	ad ec       	ldi	r26, 0xCD	; 205
    1aea:	bc ec       	ldi	r27, 0xCC	; 204
    1aec:	0e 94 4b 1a 	call	0x3496	; 0x3496 <__umulhisi3>
    1af0:	ac 01       	movw	r20, r24
    1af2:	56 95       	lsr	r21
    1af4:	47 95       	ror	r20
    1af6:	56 95       	lsr	r21
    1af8:	47 95       	ror	r20
    1afa:	56 95       	lsr	r21
    1afc:	47 95       	ror	r20
    1afe:	9a 01       	movw	r18, r20
    1b00:	ad ec       	ldi	r26, 0xCD	; 205
    1b02:	bc ec       	ldi	r27, 0xCC	; 204
    1b04:	0e 94 4b 1a 	call	0x3496	; 0x3496 <__umulhisi3>
    1b08:	96 95       	lsr	r25
    1b0a:	87 95       	ror	r24
    1b0c:	96 95       	lsr	r25
    1b0e:	87 95       	ror	r24
    1b10:	96 95       	lsr	r25
    1b12:	87 95       	ror	r24
    1b14:	88 0f       	add	r24, r24
    1b16:	99 1f       	adc	r25, r25
    1b18:	9c 01       	movw	r18, r24
    1b1a:	22 0f       	add	r18, r18
    1b1c:	33 1f       	adc	r19, r19
    1b1e:	22 0f       	add	r18, r18
    1b20:	33 1f       	adc	r19, r19
    1b22:	82 0f       	add	r24, r18
    1b24:	93 1f       	adc	r25, r19
    1b26:	9a 01       	movw	r18, r20
    1b28:	28 1b       	sub	r18, r24
    1b2a:	39 0b       	sbc	r19, r25
    1b2c:	c9 01       	movw	r24, r18
    1b2e:	28 2f       	mov	r18, r24
    1b30:	8b 81       	ldd	r24, Y+3	; 0x03
    1b32:	9c 81       	ldd	r25, Y+4	; 0x04
    1b34:	41 e0       	ldi	r20, 0x01	; 1
    1b36:	60 e1       	ldi	r22, 0x10	; 16
    1b38:	72 d5       	rcall	.+2788   	; 0x261e <display_small_number>
    1b3a:	80 91 73 02 	lds	r24, 0x0273	; 0x800273 <cooling_1>
    1b3e:	90 91 74 02 	lds	r25, 0x0274	; 0x800274 <cooling_1+0x1>
	display_small_number(display,15, 1, (cooling_1/100)%10);
    1b42:	96 95       	lsr	r25
    1b44:	87 95       	ror	r24
    1b46:	96 95       	lsr	r25
    1b48:	87 95       	ror	r24
    1b4a:	9c 01       	movw	r18, r24
    1b4c:	ab e7       	ldi	r26, 0x7B	; 123
    1b4e:	b4 e1       	ldi	r27, 0x14	; 20
    1b50:	0e 94 4b 1a 	call	0x3496	; 0x3496 <__umulhisi3>
    1b54:	ac 01       	movw	r20, r24
    1b56:	56 95       	lsr	r21
    1b58:	47 95       	ror	r20
    1b5a:	9a 01       	movw	r18, r20
    1b5c:	ad ec       	ldi	r26, 0xCD	; 205
    1b5e:	bc ec       	ldi	r27, 0xCC	; 204
    1b60:	0e 94 4b 1a 	call	0x3496	; 0x3496 <__umulhisi3>
    1b64:	96 95       	lsr	r25
    1b66:	87 95       	ror	r24
    1b68:	96 95       	lsr	r25
    1b6a:	87 95       	ror	r24
    1b6c:	96 95       	lsr	r25
    1b6e:	87 95       	ror	r24
    1b70:	88 0f       	add	r24, r24
    1b72:	99 1f       	adc	r25, r25
    1b74:	9c 01       	movw	r18, r24
    1b76:	22 0f       	add	r18, r18
    1b78:	33 1f       	adc	r19, r19
    1b7a:	22 0f       	add	r18, r18
    1b7c:	33 1f       	adc	r19, r19
    1b7e:	82 0f       	add	r24, r18
    1b80:	93 1f       	adc	r25, r19
    1b82:	fa 01       	movw	r30, r20
    1b84:	e8 1b       	sub	r30, r24
    1b86:	f9 0b       	sbc	r31, r25
    1b88:	cf 01       	movw	r24, r30
    1b8a:	28 2f       	mov	r18, r24
    1b8c:	8b 81       	ldd	r24, Y+3	; 0x03
    1b8e:	9c 81       	ldd	r25, Y+4	; 0x04
    1b90:	41 e0       	ldi	r20, 0x01	; 1
    1b92:	6f e0       	ldi	r22, 0x0F	; 15
    1b94:	44 d5       	rcall	.+2696   	; 0x261e <display_small_number>
    1b96:	40 91 6b 02 	lds	r20, 0x026B	; 0x80026b <APPS1>
	
	display_small_number(display,7, 2, APPS1%10);
    1b9a:	50 91 6c 02 	lds	r21, 0x026C	; 0x80026c <APPS1+0x1>
    1b9e:	9a 01       	movw	r18, r20
    1ba0:	ad ec       	ldi	r26, 0xCD	; 205
    1ba2:	bc ec       	ldi	r27, 0xCC	; 204
    1ba4:	0e 94 4b 1a 	call	0x3496	; 0x3496 <__umulhisi3>
    1ba8:	96 95       	lsr	r25
    1baa:	87 95       	ror	r24
    1bac:	96 95       	lsr	r25
    1bae:	87 95       	ror	r24
    1bb0:	96 95       	lsr	r25
    1bb2:	87 95       	ror	r24
    1bb4:	88 0f       	add	r24, r24
    1bb6:	99 1f       	adc	r25, r25
    1bb8:	9c 01       	movw	r18, r24
    1bba:	22 0f       	add	r18, r18
    1bbc:	33 1f       	adc	r19, r19
    1bbe:	22 0f       	add	r18, r18
    1bc0:	33 1f       	adc	r19, r19
    1bc2:	82 0f       	add	r24, r18
    1bc4:	93 1f       	adc	r25, r19
    1bc6:	9a 01       	movw	r18, r20
    1bc8:	28 1b       	sub	r18, r24
    1bca:	39 0b       	sbc	r19, r25
    1bcc:	c9 01       	movw	r24, r18
    1bce:	28 2f       	mov	r18, r24
    1bd0:	8b 81       	ldd	r24, Y+3	; 0x03
    1bd2:	9c 81       	ldd	r25, Y+4	; 0x04
    1bd4:	42 e0       	ldi	r20, 0x02	; 2
    1bd6:	67 e0       	ldi	r22, 0x07	; 7
    1bd8:	22 d5       	rcall	.+2628   	; 0x261e <display_small_number>
    1bda:	80 91 6b 02 	lds	r24, 0x026B	; 0x80026b <APPS1>
    1bde:	90 91 6c 02 	lds	r25, 0x026C	; 0x80026c <APPS1+0x1>
	display_small_number(display,6, 2, (APPS1/10)%10);
    1be2:	9c 01       	movw	r18, r24
    1be4:	ad ec       	ldi	r26, 0xCD	; 205
    1be6:	bc ec       	ldi	r27, 0xCC	; 204
    1be8:	0e 94 4b 1a 	call	0x3496	; 0x3496 <__umulhisi3>
    1bec:	ac 01       	movw	r20, r24
    1bee:	56 95       	lsr	r21
    1bf0:	47 95       	ror	r20
    1bf2:	56 95       	lsr	r21
    1bf4:	47 95       	ror	r20
    1bf6:	56 95       	lsr	r21
    1bf8:	47 95       	ror	r20
    1bfa:	9a 01       	movw	r18, r20
    1bfc:	ad ec       	ldi	r26, 0xCD	; 205
    1bfe:	bc ec       	ldi	r27, 0xCC	; 204
    1c00:	0e 94 4b 1a 	call	0x3496	; 0x3496 <__umulhisi3>
    1c04:	96 95       	lsr	r25
    1c06:	87 95       	ror	r24
    1c08:	96 95       	lsr	r25
    1c0a:	87 95       	ror	r24
    1c0c:	96 95       	lsr	r25
    1c0e:	87 95       	ror	r24
    1c10:	88 0f       	add	r24, r24
    1c12:	99 1f       	adc	r25, r25
    1c14:	9c 01       	movw	r18, r24
    1c16:	22 0f       	add	r18, r18
    1c18:	33 1f       	adc	r19, r19
    1c1a:	22 0f       	add	r18, r18
    1c1c:	33 1f       	adc	r19, r19
    1c1e:	82 0f       	add	r24, r18
    1c20:	93 1f       	adc	r25, r19
    1c22:	fa 01       	movw	r30, r20
    1c24:	e8 1b       	sub	r30, r24
    1c26:	f9 0b       	sbc	r31, r25
    1c28:	cf 01       	movw	r24, r30
    1c2a:	28 2f       	mov	r18, r24
    1c2c:	8b 81       	ldd	r24, Y+3	; 0x03
    1c2e:	9c 81       	ldd	r25, Y+4	; 0x04
    1c30:	42 e0       	ldi	r20, 0x02	; 2
    1c32:	66 e0       	ldi	r22, 0x06	; 6
    1c34:	f4 d4       	rcall	.+2536   	; 0x261e <display_small_number>
    1c36:	40 91 6d 02 	lds	r20, 0x026D	; 0x80026d <APPS2>

	display_small_number(display,16, 2, APPS2%10);
    1c3a:	50 91 6e 02 	lds	r21, 0x026E	; 0x80026e <APPS2+0x1>
    1c3e:	9a 01       	movw	r18, r20
    1c40:	ad ec       	ldi	r26, 0xCD	; 205
    1c42:	bc ec       	ldi	r27, 0xCC	; 204
    1c44:	0e 94 4b 1a 	call	0x3496	; 0x3496 <__umulhisi3>
    1c48:	96 95       	lsr	r25
    1c4a:	87 95       	ror	r24
    1c4c:	96 95       	lsr	r25
    1c4e:	87 95       	ror	r24
    1c50:	96 95       	lsr	r25
    1c52:	87 95       	ror	r24
    1c54:	88 0f       	add	r24, r24
    1c56:	99 1f       	adc	r25, r25
    1c58:	9c 01       	movw	r18, r24
    1c5a:	22 0f       	add	r18, r18
    1c5c:	33 1f       	adc	r19, r19
    1c5e:	22 0f       	add	r18, r18
    1c60:	33 1f       	adc	r19, r19
    1c62:	82 0f       	add	r24, r18
    1c64:	93 1f       	adc	r25, r19
    1c66:	9a 01       	movw	r18, r20
    1c68:	28 1b       	sub	r18, r24
    1c6a:	39 0b       	sbc	r19, r25
    1c6c:	c9 01       	movw	r24, r18
    1c6e:	28 2f       	mov	r18, r24
    1c70:	8b 81       	ldd	r24, Y+3	; 0x03
    1c72:	9c 81       	ldd	r25, Y+4	; 0x04
    1c74:	42 e0       	ldi	r20, 0x02	; 2
    1c76:	60 e1       	ldi	r22, 0x10	; 16
    1c78:	d2 d4       	rcall	.+2468   	; 0x261e <display_small_number>
    1c7a:	80 91 6d 02 	lds	r24, 0x026D	; 0x80026d <APPS2>
    1c7e:	90 91 6e 02 	lds	r25, 0x026E	; 0x80026e <APPS2+0x1>
	display_small_number(display,15, 2, (APPS2/10)%10);
    1c82:	9c 01       	movw	r18, r24
    1c84:	ad ec       	ldi	r26, 0xCD	; 205
    1c86:	bc ec       	ldi	r27, 0xCC	; 204
    1c88:	0e 94 4b 1a 	call	0x3496	; 0x3496 <__umulhisi3>
    1c8c:	ac 01       	movw	r20, r24
    1c8e:	56 95       	lsr	r21
    1c90:	47 95       	ror	r20
    1c92:	56 95       	lsr	r21
    1c94:	47 95       	ror	r20
    1c96:	56 95       	lsr	r21
    1c98:	47 95       	ror	r20
    1c9a:	9a 01       	movw	r18, r20
    1c9c:	ad ec       	ldi	r26, 0xCD	; 205
    1c9e:	bc ec       	ldi	r27, 0xCC	; 204
    1ca0:	0e 94 4b 1a 	call	0x3496	; 0x3496 <__umulhisi3>
    1ca4:	96 95       	lsr	r25
    1ca6:	87 95       	ror	r24
    1ca8:	96 95       	lsr	r25
    1caa:	87 95       	ror	r24
    1cac:	96 95       	lsr	r25
    1cae:	87 95       	ror	r24
    1cb0:	88 0f       	add	r24, r24
    1cb2:	99 1f       	adc	r25, r25
    1cb4:	9c 01       	movw	r18, r24
    1cb6:	22 0f       	add	r18, r18
    1cb8:	33 1f       	adc	r19, r19
    1cba:	22 0f       	add	r18, r18
    1cbc:	33 1f       	adc	r19, r19
    1cbe:	82 0f       	add	r24, r18
    1cc0:	93 1f       	adc	r25, r19
    1cc2:	fa 01       	movw	r30, r20
    1cc4:	e8 1b       	sub	r30, r24
    1cc6:	f9 0b       	sbc	r31, r25
    1cc8:	cf 01       	movw	r24, r30
    1cca:	28 2f       	mov	r18, r24
    1ccc:	8b 81       	ldd	r24, Y+3	; 0x03
    1cce:	9c 81       	ldd	r25, Y+4	; 0x04
    1cd0:	42 e0       	ldi	r20, 0x02	; 2
    1cd2:	6f e0       	ldi	r22, 0x0F	; 15
    1cd4:	a4 d4       	rcall	.+2376   	; 0x261e <display_small_number>
    1cd6:	80 91 6f 02 	lds	r24, 0x026F	; 0x80026f <BPSF>
    1cda:	90 91 70 02 	lds	r25, 0x0270	; 0x800270 <BPSF+0x1>
	
	
	display_small_number(display,5, 3, (BPSF/10)%10);
    1cde:	9c 01       	movw	r18, r24
    1ce0:	ad ec       	ldi	r26, 0xCD	; 205
    1ce2:	bc ec       	ldi	r27, 0xCC	; 204
    1ce4:	0e 94 4b 1a 	call	0x3496	; 0x3496 <__umulhisi3>
    1ce8:	ac 01       	movw	r20, r24
    1cea:	56 95       	lsr	r21
    1cec:	47 95       	ror	r20
    1cee:	56 95       	lsr	r21
    1cf0:	47 95       	ror	r20
    1cf2:	56 95       	lsr	r21
    1cf4:	47 95       	ror	r20
    1cf6:	9a 01       	movw	r18, r20
    1cf8:	ad ec       	ldi	r26, 0xCD	; 205
    1cfa:	bc ec       	ldi	r27, 0xCC	; 204
    1cfc:	0e 94 4b 1a 	call	0x3496	; 0x3496 <__umulhisi3>
    1d00:	96 95       	lsr	r25
    1d02:	87 95       	ror	r24
    1d04:	96 95       	lsr	r25
    1d06:	87 95       	ror	r24
    1d08:	96 95       	lsr	r25
    1d0a:	87 95       	ror	r24
    1d0c:	88 0f       	add	r24, r24
    1d0e:	99 1f       	adc	r25, r25
    1d10:	9c 01       	movw	r18, r24
    1d12:	22 0f       	add	r18, r18
    1d14:	33 1f       	adc	r19, r19
    1d16:	22 0f       	add	r18, r18
    1d18:	33 1f       	adc	r19, r19
    1d1a:	82 0f       	add	r24, r18
    1d1c:	93 1f       	adc	r25, r19
    1d1e:	9a 01       	movw	r18, r20
    1d20:	28 1b       	sub	r18, r24
    1d22:	39 0b       	sbc	r19, r25
    1d24:	c9 01       	movw	r24, r18
    1d26:	28 2f       	mov	r18, r24
    1d28:	8b 81       	ldd	r24, Y+3	; 0x03
    1d2a:	9c 81       	ldd	r25, Y+4	; 0x04
    1d2c:	43 e0       	ldi	r20, 0x03	; 3
    1d2e:	65 e0       	ldi	r22, 0x05	; 5
    1d30:	76 d4       	rcall	.+2284   	; 0x261e <display_small_number>
    1d32:	80 91 6f 02 	lds	r24, 0x026F	; 0x80026f <BPSF>
    1d36:	90 91 70 02 	lds	r25, 0x0270	; 0x800270 <BPSF+0x1>
	display_small_number(display,4, 3, (BPSF/100)%10);
    1d3a:	96 95       	lsr	r25
    1d3c:	87 95       	ror	r24
    1d3e:	96 95       	lsr	r25
    1d40:	87 95       	ror	r24
    1d42:	9c 01       	movw	r18, r24
    1d44:	ab e7       	ldi	r26, 0x7B	; 123
    1d46:	b4 e1       	ldi	r27, 0x14	; 20
    1d48:	0e 94 4b 1a 	call	0x3496	; 0x3496 <__umulhisi3>
    1d4c:	ac 01       	movw	r20, r24
    1d4e:	56 95       	lsr	r21
    1d50:	47 95       	ror	r20
    1d52:	9a 01       	movw	r18, r20
    1d54:	ad ec       	ldi	r26, 0xCD	; 205
    1d56:	bc ec       	ldi	r27, 0xCC	; 204
    1d58:	0e 94 4b 1a 	call	0x3496	; 0x3496 <__umulhisi3>
    1d5c:	96 95       	lsr	r25
    1d5e:	87 95       	ror	r24
    1d60:	96 95       	lsr	r25
    1d62:	87 95       	ror	r24
    1d64:	96 95       	lsr	r25
    1d66:	87 95       	ror	r24
    1d68:	88 0f       	add	r24, r24
    1d6a:	99 1f       	adc	r25, r25
    1d6c:	9c 01       	movw	r18, r24
    1d6e:	22 0f       	add	r18, r18
    1d70:	33 1f       	adc	r19, r19
    1d72:	22 0f       	add	r18, r18
    1d74:	33 1f       	adc	r19, r19
    1d76:	82 0f       	add	r24, r18
    1d78:	93 1f       	adc	r25, r19
    1d7a:	fa 01       	movw	r30, r20
    1d7c:	e8 1b       	sub	r30, r24
    1d7e:	f9 0b       	sbc	r31, r25
    1d80:	cf 01       	movw	r24, r30
    1d82:	28 2f       	mov	r18, r24
    1d84:	8b 81       	ldd	r24, Y+3	; 0x03
    1d86:	9c 81       	ldd	r25, Y+4	; 0x04
    1d88:	43 e0       	ldi	r20, 0x03	; 3
    1d8a:	64 e0       	ldi	r22, 0x04	; 4
    1d8c:	48 d4       	rcall	.+2192   	; 0x261e <display_small_number>
    1d8e:	80 91 71 02 	lds	r24, 0x0271	; 0x800271 <BPSR>
    1d92:	90 91 72 02 	lds	r25, 0x0272	; 0x800272 <BPSR+0x1>
	
	
	display_small_number(display,11, 3, (BPSR/10)%10);
    1d96:	9c 01       	movw	r18, r24
    1d98:	ad ec       	ldi	r26, 0xCD	; 205
    1d9a:	bc ec       	ldi	r27, 0xCC	; 204
    1d9c:	0e 94 4b 1a 	call	0x3496	; 0x3496 <__umulhisi3>
    1da0:	ac 01       	movw	r20, r24
    1da2:	56 95       	lsr	r21
    1da4:	47 95       	ror	r20
    1da6:	56 95       	lsr	r21
    1da8:	47 95       	ror	r20
    1daa:	56 95       	lsr	r21
    1dac:	47 95       	ror	r20
    1dae:	9a 01       	movw	r18, r20
    1db0:	ad ec       	ldi	r26, 0xCD	; 205
    1db2:	bc ec       	ldi	r27, 0xCC	; 204
    1db4:	0e 94 4b 1a 	call	0x3496	; 0x3496 <__umulhisi3>
    1db8:	96 95       	lsr	r25
    1dba:	87 95       	ror	r24
    1dbc:	96 95       	lsr	r25
    1dbe:	87 95       	ror	r24
    1dc0:	96 95       	lsr	r25
    1dc2:	87 95       	ror	r24
    1dc4:	88 0f       	add	r24, r24
    1dc6:	99 1f       	adc	r25, r25
    1dc8:	9c 01       	movw	r18, r24
    1dca:	22 0f       	add	r18, r18
    1dcc:	33 1f       	adc	r19, r19
    1dce:	22 0f       	add	r18, r18
    1dd0:	33 1f       	adc	r19, r19
    1dd2:	82 0f       	add	r24, r18
    1dd4:	93 1f       	adc	r25, r19
    1dd6:	9a 01       	movw	r18, r20
    1dd8:	28 1b       	sub	r18, r24
    1dda:	39 0b       	sbc	r19, r25
    1ddc:	c9 01       	movw	r24, r18
    1dde:	28 2f       	mov	r18, r24
    1de0:	8b 81       	ldd	r24, Y+3	; 0x03
    1de2:	9c 81       	ldd	r25, Y+4	; 0x04
    1de4:	43 e0       	ldi	r20, 0x03	; 3
    1de6:	6b e0       	ldi	r22, 0x0B	; 11
    1de8:	1a d4       	rcall	.+2100   	; 0x261e <display_small_number>
    1dea:	80 91 71 02 	lds	r24, 0x0271	; 0x800271 <BPSR>
    1dee:	90 91 72 02 	lds	r25, 0x0272	; 0x800272 <BPSR+0x1>
	display_small_number(display,10, 3, (BPSR/100)%10);
    1df2:	96 95       	lsr	r25
    1df4:	87 95       	ror	r24
    1df6:	96 95       	lsr	r25
    1df8:	87 95       	ror	r24
    1dfa:	9c 01       	movw	r18, r24
    1dfc:	ab e7       	ldi	r26, 0x7B	; 123
    1dfe:	b4 e1       	ldi	r27, 0x14	; 20
    1e00:	0e 94 4b 1a 	call	0x3496	; 0x3496 <__umulhisi3>
    1e04:	ac 01       	movw	r20, r24
    1e06:	56 95       	lsr	r21
    1e08:	47 95       	ror	r20
    1e0a:	9a 01       	movw	r18, r20
    1e0c:	ad ec       	ldi	r26, 0xCD	; 205
    1e0e:	bc ec       	ldi	r27, 0xCC	; 204
    1e10:	0e 94 4b 1a 	call	0x3496	; 0x3496 <__umulhisi3>
    1e14:	96 95       	lsr	r25
    1e16:	87 95       	ror	r24
    1e18:	96 95       	lsr	r25
    1e1a:	87 95       	ror	r24
    1e1c:	96 95       	lsr	r25
    1e1e:	87 95       	ror	r24
    1e20:	88 0f       	add	r24, r24
    1e22:	99 1f       	adc	r25, r25
    1e24:	9c 01       	movw	r18, r24
    1e26:	22 0f       	add	r18, r18
    1e28:	33 1f       	adc	r19, r19
    1e2a:	22 0f       	add	r18, r18
    1e2c:	33 1f       	adc	r19, r19
    1e2e:	82 0f       	add	r24, r18
    1e30:	93 1f       	adc	r25, r19
    1e32:	fa 01       	movw	r30, r20
    1e34:	e8 1b       	sub	r30, r24
    1e36:	f9 0b       	sbc	r31, r25
    1e38:	cf 01       	movw	r24, r30
    1e3a:	28 2f       	mov	r18, r24
    1e3c:	8b 81       	ldd	r24, Y+3	; 0x03
    1e3e:	9c 81       	ldd	r25, Y+4	; 0x04
    1e40:	43 e0       	ldi	r20, 0x03	; 3
    1e42:	6a e0       	ldi	r22, 0x0A	; 10
    1e44:	ec d3       	rcall	.+2008   	; 0x261e <display_small_number>
    1e46:	00 00       	nop
    1e48:	0f 90       	pop	r0

}
    1e4a:	0f 90       	pop	r0
    1e4c:	0f 90       	pop	r0
    1e4e:	0f 90       	pop	r0
    1e50:	df 91       	pop	r29
    1e52:	cf 91       	pop	r28
    1e54:	08 95       	ret

00001e56 <display_meme>:
    1e56:	cf 93       	push	r28
    1e58:	df 93       	push	r29
void display_meme(struct DISPLAY_PAGE *display)
{
    1e5a:	00 d0       	rcall	.+0      	; 0x1e5c <display_meme+0x6>
    1e5c:	cd b7       	in	r28, 0x3d	; 61
    1e5e:	de b7       	in	r29, 0x3e	; 62
    1e60:	9a 83       	std	Y+2, r25	; 0x02
    1e62:	89 83       	std	Y+1, r24	; 0x01
    1e64:	0e 94 a9 06 	call	0xd52	; 0xd52 <display_definechars>
	 display_definechars();
    1e68:	00 00       	nop
    1e6a:	0f 90       	pop	r0
}
    1e6c:	0f 90       	pop	r0
    1e6e:	df 91       	pop	r29
    1e70:	cf 91       	pop	r28
    1e72:	08 95       	ret

00001e74 <display_voltage>:
    1e74:	cf 93       	push	r28
    1e76:	df 93       	push	r29

void display_voltage(struct DISPLAY_PAGE *display, uint16_t number){
    1e78:	00 d0       	rcall	.+0      	; 0x1e7a <display_voltage+0x6>
    1e7a:	00 d0       	rcall	.+0      	; 0x1e7c <display_voltage+0x8>
    1e7c:	cd b7       	in	r28, 0x3d	; 61
    1e7e:	de b7       	in	r29, 0x3e	; 62
    1e80:	9a 83       	std	Y+2, r25	; 0x02
    1e82:	89 83       	std	Y+1, r24	; 0x01
    1e84:	7c 83       	std	Y+4, r23	; 0x04
    1e86:	6b 83       	std	Y+3, r22	; 0x03
    1e88:	89 81       	ldd	r24, Y+1	; 0x01
	//display_large_number(display, 0, 12);
	//display_write_str(display,"o",1,4);
	//display_write_str(display,"o",2,4);
	display_large_number(display, 14, 11);
    1e8a:	9a 81       	ldd	r25, Y+2	; 0x02
    1e8c:	4b e0       	ldi	r20, 0x0B	; 11
    1e8e:	6e e0       	ldi	r22, 0x0E	; 14
    1e90:	af d1       	rcall	.+862    	; 0x21f0 <display_large_number>
    1e92:	89 81       	ldd	r24, Y+1	; 0x01
    1e94:	9a 81       	ldd	r25, Y+2	; 0x02
	display_write_str(display, "\x07", 3, 4);
    1e96:	24 e0       	ldi	r18, 0x04	; 4
    1e98:	43 e0       	ldi	r20, 0x03	; 3
    1e9a:	6f e9       	ldi	r22, 0x9F	; 159
    1e9c:	71 e0       	ldi	r23, 0x01	; 1
    1e9e:	31 d8       	rcall	.-3998   	; 0xf02 <display_write_str>
    1ea0:	4b 81       	ldd	r20, Y+3	; 0x03
    1ea2:	5c 81       	ldd	r21, Y+4	; 0x04
    1ea4:	9a 01       	movw	r18, r20
	display_large_number(display, 10, number%10);
    1ea6:	ad ec       	ldi	r26, 0xCD	; 205
    1ea8:	bc ec       	ldi	r27, 0xCC	; 204
    1eaa:	0e 94 4b 1a 	call	0x3496	; 0x3496 <__umulhisi3>
    1eae:	96 95       	lsr	r25
    1eb0:	87 95       	ror	r24
    1eb2:	96 95       	lsr	r25
    1eb4:	87 95       	ror	r24
    1eb6:	96 95       	lsr	r25
    1eb8:	87 95       	ror	r24
    1eba:	88 0f       	add	r24, r24
    1ebc:	99 1f       	adc	r25, r25
    1ebe:	9c 01       	movw	r18, r24
    1ec0:	22 0f       	add	r18, r18
    1ec2:	33 1f       	adc	r19, r19
    1ec4:	22 0f       	add	r18, r18
    1ec6:	33 1f       	adc	r19, r19
    1ec8:	82 0f       	add	r24, r18
    1eca:	93 1f       	adc	r25, r19
    1ecc:	9a 01       	movw	r18, r20
    1ece:	28 1b       	sub	r18, r24
    1ed0:	39 0b       	sbc	r19, r25
    1ed2:	c9 01       	movw	r24, r18
    1ed4:	28 2f       	mov	r18, r24
    1ed6:	89 81       	ldd	r24, Y+1	; 0x01
    1ed8:	9a 81       	ldd	r25, Y+2	; 0x02
    1eda:	42 2f       	mov	r20, r18
    1edc:	6a e0       	ldi	r22, 0x0A	; 10
    1ede:	88 d1       	rcall	.+784    	; 0x21f0 <display_large_number>
    1ee0:	8b 81       	ldd	r24, Y+3	; 0x03
    1ee2:	9c 81       	ldd	r25, Y+4	; 0x04
    1ee4:	9c 01       	movw	r18, r24
	number = number/10;
    1ee6:	ad ec       	ldi	r26, 0xCD	; 205
    1ee8:	bc ec       	ldi	r27, 0xCC	; 204
    1eea:	0e 94 4b 1a 	call	0x3496	; 0x3496 <__umulhisi3>
    1eee:	96 95       	lsr	r25
    1ef0:	87 95       	ror	r24
    1ef2:	96 95       	lsr	r25
    1ef4:	87 95       	ror	r24
    1ef6:	96 95       	lsr	r25
    1ef8:	87 95       	ror	r24
    1efa:	9c 83       	std	Y+4, r25	; 0x04
    1efc:	8b 83       	std	Y+3, r24	; 0x03
    1efe:	4b 81       	ldd	r20, Y+3	; 0x03
    1f00:	5c 81       	ldd	r21, Y+4	; 0x04
    1f02:	9a 01       	movw	r18, r20
	display_large_number(display, 6, number%10);
    1f04:	ad ec       	ldi	r26, 0xCD	; 205
    1f06:	bc ec       	ldi	r27, 0xCC	; 204
    1f08:	0e 94 4b 1a 	call	0x3496	; 0x3496 <__umulhisi3>
    1f0c:	96 95       	lsr	r25
    1f0e:	87 95       	ror	r24
    1f10:	96 95       	lsr	r25
    1f12:	87 95       	ror	r24
    1f14:	96 95       	lsr	r25
    1f16:	87 95       	ror	r24
    1f18:	88 0f       	add	r24, r24
    1f1a:	99 1f       	adc	r25, r25
    1f1c:	9c 01       	movw	r18, r24
    1f1e:	22 0f       	add	r18, r18
    1f20:	33 1f       	adc	r19, r19
    1f22:	22 0f       	add	r18, r18
    1f24:	33 1f       	adc	r19, r19
    1f26:	82 0f       	add	r24, r18
    1f28:	93 1f       	adc	r25, r19
    1f2a:	9a 01       	movw	r18, r20
    1f2c:	28 1b       	sub	r18, r24
    1f2e:	39 0b       	sbc	r19, r25
    1f30:	c9 01       	movw	r24, r18
    1f32:	28 2f       	mov	r18, r24
    1f34:	89 81       	ldd	r24, Y+1	; 0x01
    1f36:	9a 81       	ldd	r25, Y+2	; 0x02
    1f38:	42 2f       	mov	r20, r18
    1f3a:	66 e0       	ldi	r22, 0x06	; 6
    1f3c:	59 d1       	rcall	.+690    	; 0x21f0 <display_large_number>
    1f3e:	8b 81       	ldd	r24, Y+3	; 0x03
    1f40:	9c 81       	ldd	r25, Y+4	; 0x04
    1f42:	9c 01       	movw	r18, r24
	number = number/10;
    1f44:	ad ec       	ldi	r26, 0xCD	; 205
    1f46:	bc ec       	ldi	r27, 0xCC	; 204
    1f48:	0e 94 4b 1a 	call	0x3496	; 0x3496 <__umulhisi3>
    1f4c:	96 95       	lsr	r25
    1f4e:	87 95       	ror	r24
    1f50:	96 95       	lsr	r25
    1f52:	87 95       	ror	r24
    1f54:	96 95       	lsr	r25
    1f56:	87 95       	ror	r24
    1f58:	9c 83       	std	Y+4, r25	; 0x04
    1f5a:	8b 83       	std	Y+3, r24	; 0x03
    1f5c:	4b 81       	ldd	r20, Y+3	; 0x03
    1f5e:	5c 81       	ldd	r21, Y+4	; 0x04
    1f60:	9a 01       	movw	r18, r20
	display_large_number(display, 0, number%10);
    1f62:	ad ec       	ldi	r26, 0xCD	; 205
    1f64:	bc ec       	ldi	r27, 0xCC	; 204
    1f66:	0e 94 4b 1a 	call	0x3496	; 0x3496 <__umulhisi3>
    1f6a:	96 95       	lsr	r25
    1f6c:	87 95       	ror	r24
    1f6e:	96 95       	lsr	r25
    1f70:	87 95       	ror	r24
    1f72:	96 95       	lsr	r25
    1f74:	87 95       	ror	r24
    1f76:	88 0f       	add	r24, r24
    1f78:	99 1f       	adc	r25, r25
    1f7a:	9c 01       	movw	r18, r24
    1f7c:	22 0f       	add	r18, r18
    1f7e:	33 1f       	adc	r19, r19
    1f80:	22 0f       	add	r18, r18
    1f82:	33 1f       	adc	r19, r19
    1f84:	82 0f       	add	r24, r18
    1f86:	93 1f       	adc	r25, r19
    1f88:	9a 01       	movw	r18, r20
    1f8a:	28 1b       	sub	r18, r24
    1f8c:	39 0b       	sbc	r19, r25
    1f8e:	c9 01       	movw	r24, r18
    1f90:	28 2f       	mov	r18, r24
    1f92:	89 81       	ldd	r24, Y+1	; 0x01
    1f94:	9a 81       	ldd	r25, Y+2	; 0x02
    1f96:	42 2f       	mov	r20, r18
    1f98:	60 e0       	ldi	r22, 0x00	; 0
    1f9a:	2a d1       	rcall	.+596    	; 0x21f0 <display_large_number>
    1f9c:	00 00       	nop
    1f9e:	0f 90       	pop	r0
    1fa0:	0f 90       	pop	r0
}
    1fa2:	0f 90       	pop	r0
    1fa4:	0f 90       	pop	r0
    1fa6:	df 91       	pop	r29
    1fa8:	cf 91       	pop	r28
    1faa:	08 95       	ret

00001fac <display_temp>:
    1fac:	cf 93       	push	r28
    1fae:	df 93       	push	r29
    1fb0:	00 d0       	rcall	.+0      	; 0x1fb2 <display_temp+0x6>



void display_temp(struct DISPLAY_PAGE *display, uint16_t number){
    1fb2:	00 d0       	rcall	.+0      	; 0x1fb4 <display_temp+0x8>
    1fb4:	cd b7       	in	r28, 0x3d	; 61
    1fb6:	de b7       	in	r29, 0x3e	; 62
    1fb8:	9a 83       	std	Y+2, r25	; 0x02
    1fba:	89 83       	std	Y+1, r24	; 0x01
    1fbc:	7c 83       	std	Y+4, r23	; 0x04
    1fbe:	6b 83       	std	Y+3, r22	; 0x03
    1fc0:	89 81       	ldd	r24, Y+1	; 0x01
    1fc2:	9a 81       	ldd	r25, Y+2	; 0x02
	//display_large_number(display, 0, 12);
	//display_write_str(display,"o",1,4);
	//display_write_str(display,"o",2,4);
	display_large_number(display, 16, 13);
    1fc4:	4d e0       	ldi	r20, 0x0D	; 13
    1fc6:	60 e1       	ldi	r22, 0x10	; 16
    1fc8:	13 d1       	rcall	.+550    	; 0x21f0 <display_large_number>
    1fca:	89 81       	ldd	r24, Y+1	; 0x01
    1fcc:	9a 81       	ldd	r25, Y+2	; 0x02
    1fce:	2e e0       	ldi	r18, 0x0E	; 14
	display_write_str(display,"o", 0, 14);
    1fd0:	40 e0       	ldi	r20, 0x00	; 0
    1fd2:	61 ea       	ldi	r22, 0xA1	; 161
    1fd4:	71 e0       	ldi	r23, 0x01	; 1
    1fd6:	0e 94 81 07 	call	0xf02	; 0xf02 <display_write_str>
    1fda:	89 81       	ldd	r24, Y+1	; 0x01
    1fdc:	9a 81       	ldd	r25, Y+2	; 0x02
    1fde:	28 e0       	ldi	r18, 0x08	; 8
	display_write_str(display, "\x07", 3, 8);
    1fe0:	43 e0       	ldi	r20, 0x03	; 3
    1fe2:	6f e9       	ldi	r22, 0x9F	; 159
    1fe4:	71 e0       	ldi	r23, 0x01	; 1
    1fe6:	0e 94 81 07 	call	0xf02	; 0xf02 <display_write_str>
    1fea:	4b 81       	ldd	r20, Y+3	; 0x03
    1fec:	5c 81       	ldd	r21, Y+4	; 0x04
    1fee:	9a 01       	movw	r18, r20
	display_large_number(display, 10, number%10);
    1ff0:	ad ec       	ldi	r26, 0xCD	; 205
    1ff2:	bc ec       	ldi	r27, 0xCC	; 204
    1ff4:	0e 94 4b 1a 	call	0x3496	; 0x3496 <__umulhisi3>
    1ff8:	96 95       	lsr	r25
    1ffa:	87 95       	ror	r24
    1ffc:	96 95       	lsr	r25
    1ffe:	87 95       	ror	r24
    2000:	96 95       	lsr	r25
    2002:	87 95       	ror	r24
    2004:	88 0f       	add	r24, r24
    2006:	99 1f       	adc	r25, r25
    2008:	9c 01       	movw	r18, r24
    200a:	22 0f       	add	r18, r18
    200c:	33 1f       	adc	r19, r19
    200e:	22 0f       	add	r18, r18
    2010:	33 1f       	adc	r19, r19
    2012:	82 0f       	add	r24, r18
    2014:	93 1f       	adc	r25, r19
    2016:	9a 01       	movw	r18, r20
    2018:	28 1b       	sub	r18, r24
    201a:	39 0b       	sbc	r19, r25
    201c:	c9 01       	movw	r24, r18
    201e:	28 2f       	mov	r18, r24
    2020:	89 81       	ldd	r24, Y+1	; 0x01
    2022:	9a 81       	ldd	r25, Y+2	; 0x02
    2024:	42 2f       	mov	r20, r18
    2026:	6a e0       	ldi	r22, 0x0A	; 10
    2028:	e3 d0       	rcall	.+454    	; 0x21f0 <display_large_number>
    202a:	8b 81       	ldd	r24, Y+3	; 0x03
    202c:	9c 81       	ldd	r25, Y+4	; 0x04
    202e:	9c 01       	movw	r18, r24
	number = number/10;
    2030:	ad ec       	ldi	r26, 0xCD	; 205
    2032:	bc ec       	ldi	r27, 0xCC	; 204
    2034:	0e 94 4b 1a 	call	0x3496	; 0x3496 <__umulhisi3>
    2038:	96 95       	lsr	r25
    203a:	87 95       	ror	r24
    203c:	96 95       	lsr	r25
    203e:	87 95       	ror	r24
    2040:	96 95       	lsr	r25
    2042:	87 95       	ror	r24
    2044:	9c 83       	std	Y+4, r25	; 0x04
    2046:	8b 83       	std	Y+3, r24	; 0x03
    2048:	4b 81       	ldd	r20, Y+3	; 0x03
    204a:	5c 81       	ldd	r21, Y+4	; 0x04
    204c:	9a 01       	movw	r18, r20
	display_large_number(display, 4, number%10);
    204e:	ad ec       	ldi	r26, 0xCD	; 205
    2050:	bc ec       	ldi	r27, 0xCC	; 204
    2052:	0e 94 4b 1a 	call	0x3496	; 0x3496 <__umulhisi3>
    2056:	96 95       	lsr	r25
    2058:	87 95       	ror	r24
    205a:	96 95       	lsr	r25
    205c:	87 95       	ror	r24
    205e:	96 95       	lsr	r25
    2060:	87 95       	ror	r24
    2062:	88 0f       	add	r24, r24
    2064:	99 1f       	adc	r25, r25
    2066:	9c 01       	movw	r18, r24
    2068:	22 0f       	add	r18, r18
    206a:	33 1f       	adc	r19, r19
    206c:	22 0f       	add	r18, r18
    206e:	33 1f       	adc	r19, r19
    2070:	82 0f       	add	r24, r18
    2072:	93 1f       	adc	r25, r19
    2074:	9a 01       	movw	r18, r20
    2076:	28 1b       	sub	r18, r24
    2078:	39 0b       	sbc	r19, r25
    207a:	c9 01       	movw	r24, r18
    207c:	28 2f       	mov	r18, r24
    207e:	89 81       	ldd	r24, Y+1	; 0x01
    2080:	9a 81       	ldd	r25, Y+2	; 0x02
    2082:	42 2f       	mov	r20, r18
    2084:	64 e0       	ldi	r22, 0x04	; 4
    2086:	b4 d0       	rcall	.+360    	; 0x21f0 <display_large_number>
    2088:	8b 81       	ldd	r24, Y+3	; 0x03
    208a:	9c 81       	ldd	r25, Y+4	; 0x04
    208c:	9c 01       	movw	r18, r24
	number = number/10;
    208e:	ad ec       	ldi	r26, 0xCD	; 205
    2090:	bc ec       	ldi	r27, 0xCC	; 204
    2092:	0e 94 4b 1a 	call	0x3496	; 0x3496 <__umulhisi3>
    2096:	96 95       	lsr	r25
    2098:	87 95       	ror	r24
    209a:	96 95       	lsr	r25
    209c:	87 95       	ror	r24
    209e:	96 95       	lsr	r25
    20a0:	87 95       	ror	r24
    20a2:	9c 83       	std	Y+4, r25	; 0x04
    20a4:	8b 83       	std	Y+3, r24	; 0x03
    20a6:	4b 81       	ldd	r20, Y+3	; 0x03
    20a8:	5c 81       	ldd	r21, Y+4	; 0x04
    20aa:	9a 01       	movw	r18, r20
	display_large_number(display, 0, number%10);
    20ac:	ad ec       	ldi	r26, 0xCD	; 205
    20ae:	bc ec       	ldi	r27, 0xCC	; 204
    20b0:	0e 94 4b 1a 	call	0x3496	; 0x3496 <__umulhisi3>
    20b4:	96 95       	lsr	r25
    20b6:	87 95       	ror	r24
    20b8:	96 95       	lsr	r25
    20ba:	87 95       	ror	r24
    20bc:	96 95       	lsr	r25
    20be:	87 95       	ror	r24
    20c0:	88 0f       	add	r24, r24
    20c2:	99 1f       	adc	r25, r25
    20c4:	9c 01       	movw	r18, r24
    20c6:	22 0f       	add	r18, r18
    20c8:	33 1f       	adc	r19, r19
    20ca:	22 0f       	add	r18, r18
    20cc:	33 1f       	adc	r19, r19
    20ce:	82 0f       	add	r24, r18
    20d0:	93 1f       	adc	r25, r19
    20d2:	9a 01       	movw	r18, r20
    20d4:	28 1b       	sub	r18, r24
    20d6:	39 0b       	sbc	r19, r25
    20d8:	c9 01       	movw	r24, r18
    20da:	28 2f       	mov	r18, r24
    20dc:	89 81       	ldd	r24, Y+1	; 0x01
    20de:	9a 81       	ldd	r25, Y+2	; 0x02
    20e0:	42 2f       	mov	r20, r18
    20e2:	60 e0       	ldi	r22, 0x00	; 0
    20e4:	85 d0       	rcall	.+266    	; 0x21f0 <display_large_number>
    20e6:	00 00       	nop
    20e8:	0f 90       	pop	r0
    20ea:	0f 90       	pop	r0
    20ec:	0f 90       	pop	r0
}
    20ee:	0f 90       	pop	r0
    20f0:	df 91       	pop	r29
    20f2:	cf 91       	pop	r28
    20f4:	08 95       	ret

000020f6 <display_digits>:
    20f6:	ef 92       	push	r14
    20f8:	0f 93       	push	r16
    20fa:	1f 93       	push	r17
    20fc:	cf 93       	push	r28


// erzeugt beliebig langen string aus einem int wert, länge ist mit digits zu übergeben, geht nur ohne komma . comma gibt die Anzahl der nachkommastellen an
void display_digits(struct DISPLAY_PAGE *display, uint8_t digits, uint8_t offset,uint8_t row,  uint16_t number, uint8_t comma){
    20fe:	df 93       	push	r29
    2100:	cd b7       	in	r28, 0x3d	; 61
    2102:	de b7       	in	r29, 0x3e	; 62
    2104:	2a 97       	sbiw	r28, 0x0a	; 10
    2106:	0f b6       	in	r0, 0x3f	; 63
    2108:	f8 94       	cli
    210a:	de bf       	out	0x3e, r29	; 62
    210c:	0f be       	out	0x3f, r0	; 63
    210e:	cd bf       	out	0x3d, r28	; 61
    2110:	9c 83       	std	Y+4, r25	; 0x04
    2112:	8b 83       	std	Y+3, r24	; 0x03
    2114:	6d 83       	std	Y+5, r22	; 0x05
    2116:	4e 83       	std	Y+6, r20	; 0x06
    2118:	2f 83       	std	Y+7, r18	; 0x07
    211a:	19 87       	std	Y+9, r17	; 0x09
    211c:	08 87       	std	Y+8, r16	; 0x08
    211e:	ea 86       	std	Y+10, r14	; 0x0a
    2120:	1a 82       	std	Y+2, r1	; 0x02
    2122:	19 82       	std	Y+1, r1	; 0x01
    2124:	53 c0       	rjmp	.+166    	; 0x21cc <display_digits+0xd6>
    2126:	9a 85       	ldd	r25, Y+10	; 0x0a
	
	uint8_t i;
	uint8_t comma_set = 0;
    2128:	89 81       	ldd	r24, Y+1	; 0x01
	
	for(i=0; i>= digits; i++)
    212a:	98 17       	cp	r25, r24
    212c:	a8 f0       	brcs	.+42     	; 0x2158 <display_digits+0x62>
	{
		
		
		if (comma >= i)
    212e:	9a 85       	ldd	r25, Y+10	; 0x0a
    2130:	89 81       	ldd	r24, Y+1	; 0x01
    2132:	98 17       	cp	r25, r24
    2134:	09 f0       	breq	.+2      	; 0x2138 <display_digits+0x42>
		{
			if (comma == i)
    2136:	47 c0       	rjmp	.+142    	; 0x21c6 <display_digits+0xd0>
    2138:	9e 81       	ldd	r25, Y+6	; 0x06
    213a:	8d 81       	ldd	r24, Y+5	; 0x05
    213c:	98 0f       	add	r25, r24
			{
				display_write_str(display, ",",row, (offset + digits-i));
    213e:	89 81       	ldd	r24, Y+1	; 0x01
    2140:	29 2f       	mov	r18, r25
    2142:	28 1b       	sub	r18, r24
    2144:	8b 81       	ldd	r24, Y+3	; 0x03
    2146:	9c 81       	ldd	r25, Y+4	; 0x04
    2148:	4f 81       	ldd	r20, Y+7	; 0x07
    214a:	63 ea       	ldi	r22, 0xA3	; 163
    214c:	71 e0       	ldi	r23, 0x01	; 1
    214e:	0e 94 81 07 	call	0xf02	; 0xf02 <display_write_str>
    2152:	81 e0       	ldi	r24, 0x01	; 1
    2154:	8a 83       	std	Y+2, r24	; 0x02
    2156:	37 c0       	rjmp	.+110    	; 0x21c6 <display_digits+0xd0>
				comma_set = 1;
    2158:	48 85       	ldd	r20, Y+8	; 0x08
    215a:	59 85       	ldd	r21, Y+9	; 0x09
    215c:	9a 01       	movw	r18, r20
			}
			
		}
		else
		{
			display_small_number(display,(offset + (digits-i-comma_set)), row, number%10);
    215e:	ad ec       	ldi	r26, 0xCD	; 205
    2160:	bc ec       	ldi	r27, 0xCC	; 204
    2162:	0e 94 4b 1a 	call	0x3496	; 0x3496 <__umulhisi3>
    2166:	96 95       	lsr	r25
    2168:	87 95       	ror	r24
    216a:	96 95       	lsr	r25
    216c:	87 95       	ror	r24
    216e:	96 95       	lsr	r25
    2170:	87 95       	ror	r24
    2172:	88 0f       	add	r24, r24
    2174:	99 1f       	adc	r25, r25
    2176:	9c 01       	movw	r18, r24
    2178:	22 0f       	add	r18, r18
    217a:	33 1f       	adc	r19, r19
    217c:	22 0f       	add	r18, r18
    217e:	33 1f       	adc	r19, r19
    2180:	82 0f       	add	r24, r18
    2182:	93 1f       	adc	r25, r19
    2184:	9a 01       	movw	r18, r20
    2186:	28 1b       	sub	r18, r24
    2188:	39 0b       	sbc	r19, r25
    218a:	c9 01       	movw	r24, r18
    218c:	28 2f       	mov	r18, r24
    218e:	9d 81       	ldd	r25, Y+5	; 0x05
    2190:	89 81       	ldd	r24, Y+1	; 0x01
    2192:	98 1b       	sub	r25, r24
    2194:	8a 81       	ldd	r24, Y+2	; 0x02
    2196:	98 1b       	sub	r25, r24
    2198:	8e 81       	ldd	r24, Y+6	; 0x06
    219a:	39 2f       	mov	r19, r25
    219c:	38 0f       	add	r19, r24
    219e:	8b 81       	ldd	r24, Y+3	; 0x03
    21a0:	9c 81       	ldd	r25, Y+4	; 0x04
    21a2:	4f 81       	ldd	r20, Y+7	; 0x07
    21a4:	63 2f       	mov	r22, r19
    21a6:	3b d2       	rcall	.+1142   	; 0x261e <display_small_number>
    21a8:	88 85       	ldd	r24, Y+8	; 0x08
    21aa:	99 85       	ldd	r25, Y+9	; 0x09
    21ac:	9c 01       	movw	r18, r24
    21ae:	ad ec       	ldi	r26, 0xCD	; 205
			number = number/10;
    21b0:	bc ec       	ldi	r27, 0xCC	; 204
    21b2:	0e 94 4b 1a 	call	0x3496	; 0x3496 <__umulhisi3>
    21b6:	96 95       	lsr	r25
    21b8:	87 95       	ror	r24
    21ba:	96 95       	lsr	r25
    21bc:	87 95       	ror	r24
    21be:	96 95       	lsr	r25
    21c0:	87 95       	ror	r24
    21c2:	99 87       	std	Y+9, r25	; 0x09
    21c4:	88 87       	std	Y+8, r24	; 0x08
    21c6:	89 81       	ldd	r24, Y+1	; 0x01
    21c8:	8f 5f       	subi	r24, 0xFF	; 255
    21ca:	89 83       	std	Y+1, r24	; 0x01
    21cc:	99 81       	ldd	r25, Y+1	; 0x01
void display_digits(struct DISPLAY_PAGE *display, uint8_t digits, uint8_t offset,uint8_t row,  uint16_t number, uint8_t comma){
	
	uint8_t i;
	uint8_t comma_set = 0;
	
	for(i=0; i>= digits; i++)
    21ce:	8d 81       	ldd	r24, Y+5	; 0x05
    21d0:	98 17       	cp	r25, r24
    21d2:	08 f0       	brcs	.+2      	; 0x21d6 <display_digits+0xe0>
    21d4:	a8 cf       	rjmp	.-176    	; 0x2126 <display_digits+0x30>
    21d6:	00 00       	nop
    21d8:	2a 96       	adiw	r28, 0x0a	; 10
    21da:	0f b6       	in	r0, 0x3f	; 63
    21dc:	f8 94       	cli
			display_small_number(display,(offset + (digits-i-comma_set)), row, number%10);
			number = number/10;
		}
		
	}
}
    21de:	de bf       	out	0x3e, r29	; 62
    21e0:	0f be       	out	0x3f, r0	; 63
    21e2:	cd bf       	out	0x3d, r28	; 61
    21e4:	df 91       	pop	r29
    21e6:	cf 91       	pop	r28
    21e8:	1f 91       	pop	r17
    21ea:	0f 91       	pop	r16
    21ec:	ef 90       	pop	r14
    21ee:	08 95       	ret

000021f0 <display_large_number>:
    21f0:	cf 93       	push	r28
    21f2:	df 93       	push	r29
    21f4:	00 d0       	rcall	.+0      	; 0x21f6 <display_large_number+0x6>
    21f6:	00 d0       	rcall	.+0      	; 0x21f8 <display_large_number+0x8>

	

void display_large_number(struct DISPLAY_PAGE *display, uint8_t offset, uint8_t number){
    21f8:	cd b7       	in	r28, 0x3d	; 61
    21fa:	de b7       	in	r29, 0x3e	; 62
    21fc:	9a 83       	std	Y+2, r25	; 0x02
    21fe:	89 83       	std	Y+1, r24	; 0x01
    2200:	6b 83       	std	Y+3, r22	; 0x03
    2202:	4c 83       	std	Y+4, r20	; 0x04
    2204:	8c 81       	ldd	r24, Y+4	; 0x04
    2206:	88 2f       	mov	r24, r24
    2208:	90 e0       	ldi	r25, 0x00	; 0
    220a:	09 2e       	mov	r0, r25

	switch (number){
    220c:	00 0c       	add	r0, r0
    220e:	aa 0b       	sbc	r26, r26
    2210:	bb 0b       	sbc	r27, r27
    2212:	40 e0       	ldi	r20, 0x00	; 0
    2214:	50 e0       	ldi	r21, 0x00	; 0
    2216:	2d e0       	ldi	r18, 0x0D	; 13
    2218:	30 e0       	ldi	r19, 0x00	; 0
    221a:	84 1b       	sub	r24, r20
    221c:	95 0b       	sbc	r25, r21
    221e:	28 17       	cp	r18, r24
    2220:	39 07       	cpc	r19, r25
    2222:	08 f4       	brcc	.+2      	; 0x2226 <display_large_number+0x36>
    2224:	d3 c1       	rjmp	.+934    	; 0x25cc <display_large_number+0x3dc>
    2226:	86 5b       	subi	r24, 0xB6	; 182
    2228:	9f 4f       	sbci	r25, 0xFF	; 255
    222a:	fc 01       	movw	r30, r24
    222c:	0c 94 42 1a 	jmp	0x3484	; 0x3484 <__tablejump2__>
    2230:	89 81       	ldd	r24, Y+1	; 0x01
    2232:	9a 81       	ldd	r25, Y+2	; 0x02
    2234:	2b 81       	ldd	r18, Y+3	; 0x03
    2236:	40 e0       	ldi	r20, 0x00	; 0
		case 0:
			display_write_str(display, "\xff\xff\xff",0,offset);
    2238:	65 ea       	ldi	r22, 0xA5	; 165
    223a:	71 e0       	ldi	r23, 0x01	; 1
    223c:	0e 94 81 07 	call	0xf02	; 0xf02 <display_write_str>
    2240:	89 81       	ldd	r24, Y+1	; 0x01
    2242:	9a 81       	ldd	r25, Y+2	; 0x02
    2244:	2b 81       	ldd	r18, Y+3	; 0x03
    2246:	41 e0       	ldi	r20, 0x01	; 1
			display_write_str(display, "\xff \xff",1,offset);
    2248:	69 ea       	ldi	r22, 0xA9	; 169
    224a:	71 e0       	ldi	r23, 0x01	; 1
    224c:	0e 94 81 07 	call	0xf02	; 0xf02 <display_write_str>
    2250:	89 81       	ldd	r24, Y+1	; 0x01
    2252:	9a 81       	ldd	r25, Y+2	; 0x02
    2254:	2b 81       	ldd	r18, Y+3	; 0x03
    2256:	42 e0       	ldi	r20, 0x02	; 2
			display_write_str(display, "\xff \xff",2,offset);
    2258:	69 ea       	ldi	r22, 0xA9	; 169
    225a:	71 e0       	ldi	r23, 0x01	; 1
    225c:	0e 94 81 07 	call	0xf02	; 0xf02 <display_write_str>
    2260:	89 81       	ldd	r24, Y+1	; 0x01
    2262:	9a 81       	ldd	r25, Y+2	; 0x02
    2264:	2b 81       	ldd	r18, Y+3	; 0x03
    2266:	43 e0       	ldi	r20, 0x03	; 3
			display_write_str(display, "\xff\xff\xff",3,offset);
    2268:	65 ea       	ldi	r22, 0xA5	; 165
    226a:	71 e0       	ldi	r23, 0x01	; 1
    226c:	0e 94 81 07 	call	0xf02	; 0xf02 <display_write_str>
    2270:	ce c1       	rjmp	.+924    	; 0x260e <display_large_number+0x41e>
    2272:	89 81       	ldd	r24, Y+1	; 0x01
    2274:	9a 81       	ldd	r25, Y+2	; 0x02
    2276:	2b 81       	ldd	r18, Y+3	; 0x03
			break;
    2278:	40 e0       	ldi	r20, 0x00	; 0
		case 1:
			display_write_str(display, " \xff\xff",0,offset);
    227a:	6d ea       	ldi	r22, 0xAD	; 173
    227c:	71 e0       	ldi	r23, 0x01	; 1
    227e:	0e 94 81 07 	call	0xf02	; 0xf02 <display_write_str>
    2282:	89 81       	ldd	r24, Y+1	; 0x01
    2284:	9a 81       	ldd	r25, Y+2	; 0x02
    2286:	2b 81       	ldd	r18, Y+3	; 0x03
    2288:	41 e0       	ldi	r20, 0x01	; 1
			display_write_str(display, "  \xff",1,offset);
    228a:	61 eb       	ldi	r22, 0xB1	; 177
    228c:	71 e0       	ldi	r23, 0x01	; 1
    228e:	0e 94 81 07 	call	0xf02	; 0xf02 <display_write_str>
    2292:	89 81       	ldd	r24, Y+1	; 0x01
    2294:	9a 81       	ldd	r25, Y+2	; 0x02
    2296:	2b 81       	ldd	r18, Y+3	; 0x03
    2298:	42 e0       	ldi	r20, 0x02	; 2
			display_write_str(display, "  \xff",2,offset);
    229a:	61 eb       	ldi	r22, 0xB1	; 177
    229c:	71 e0       	ldi	r23, 0x01	; 1
    229e:	0e 94 81 07 	call	0xf02	; 0xf02 <display_write_str>
    22a2:	89 81       	ldd	r24, Y+1	; 0x01
    22a4:	9a 81       	ldd	r25, Y+2	; 0x02
    22a6:	2b 81       	ldd	r18, Y+3	; 0x03
    22a8:	43 e0       	ldi	r20, 0x03	; 3
			display_write_str(display, "  \xff",3,offset);
    22aa:	61 eb       	ldi	r22, 0xB1	; 177
    22ac:	71 e0       	ldi	r23, 0x01	; 1
    22ae:	0e 94 81 07 	call	0xf02	; 0xf02 <display_write_str>
    22b2:	ad c1       	rjmp	.+858    	; 0x260e <display_large_number+0x41e>
    22b4:	89 81       	ldd	r24, Y+1	; 0x01
    22b6:	9a 81       	ldd	r25, Y+2	; 0x02
    22b8:	2b 81       	ldd	r18, Y+3	; 0x03
			break;
    22ba:	40 e0       	ldi	r20, 0x00	; 0
		case 2:
			display_write_str(display, "\xff\xff\xff",0,offset);
    22bc:	65 ea       	ldi	r22, 0xA5	; 165
    22be:	71 e0       	ldi	r23, 0x01	; 1
    22c0:	0e 94 81 07 	call	0xf02	; 0xf02 <display_write_str>
    22c4:	89 81       	ldd	r24, Y+1	; 0x01
    22c6:	9a 81       	ldd	r25, Y+2	; 0x02
    22c8:	2b 81       	ldd	r18, Y+3	; 0x03
    22ca:	41 e0       	ldi	r20, 0x01	; 1
			display_write_str(display, "\x07\x07\xff",1,offset);
    22cc:	65 eb       	ldi	r22, 0xB5	; 181
    22ce:	71 e0       	ldi	r23, 0x01	; 1
    22d0:	0e 94 81 07 	call	0xf02	; 0xf02 <display_write_str>
    22d4:	89 81       	ldd	r24, Y+1	; 0x01
    22d6:	9a 81       	ldd	r25, Y+2	; 0x02
    22d8:	2b 81       	ldd	r18, Y+3	; 0x03
    22da:	42 e0       	ldi	r20, 0x02	; 2
			display_write_str(display, "\xff\x01\x01",2,offset);
    22dc:	69 eb       	ldi	r22, 0xB9	; 185
    22de:	71 e0       	ldi	r23, 0x01	; 1
    22e0:	0e 94 81 07 	call	0xf02	; 0xf02 <display_write_str>
    22e4:	89 81       	ldd	r24, Y+1	; 0x01
    22e6:	9a 81       	ldd	r25, Y+2	; 0x02
    22e8:	2b 81       	ldd	r18, Y+3	; 0x03
    22ea:	43 e0       	ldi	r20, 0x03	; 3
			display_write_str(display, "\xff\xff\xff",3,offset);
    22ec:	65 ea       	ldi	r22, 0xA5	; 165
    22ee:	71 e0       	ldi	r23, 0x01	; 1
    22f0:	0e 94 81 07 	call	0xf02	; 0xf02 <display_write_str>
    22f4:	8c c1       	rjmp	.+792    	; 0x260e <display_large_number+0x41e>
    22f6:	89 81       	ldd	r24, Y+1	; 0x01
    22f8:	9a 81       	ldd	r25, Y+2	; 0x02
    22fa:	2b 81       	ldd	r18, Y+3	; 0x03
			break;
    22fc:	40 e0       	ldi	r20, 0x00	; 0
		case 3:
			display_write_str(display, "\xff\xff\xff",0,offset);
    22fe:	65 ea       	ldi	r22, 0xA5	; 165
    2300:	71 e0       	ldi	r23, 0x01	; 1
    2302:	0e 94 81 07 	call	0xf02	; 0xf02 <display_write_str>
    2306:	89 81       	ldd	r24, Y+1	; 0x01
    2308:	9a 81       	ldd	r25, Y+2	; 0x02
    230a:	2b 81       	ldd	r18, Y+3	; 0x03
    230c:	41 e0       	ldi	r20, 0x01	; 1
			display_write_str(display, "\x07\x07\xff",1,offset);
    230e:	65 eb       	ldi	r22, 0xB5	; 181
    2310:	71 e0       	ldi	r23, 0x01	; 1
    2312:	0e 94 81 07 	call	0xf02	; 0xf02 <display_write_str>
    2316:	89 81       	ldd	r24, Y+1	; 0x01
    2318:	9a 81       	ldd	r25, Y+2	; 0x02
    231a:	2b 81       	ldd	r18, Y+3	; 0x03
    231c:	42 e0       	ldi	r20, 0x02	; 2
			display_write_str(display, "\x01\x01\xff",2,offset);
    231e:	6d eb       	ldi	r22, 0xBD	; 189
    2320:	71 e0       	ldi	r23, 0x01	; 1
    2322:	0e 94 81 07 	call	0xf02	; 0xf02 <display_write_str>
    2326:	89 81       	ldd	r24, Y+1	; 0x01
    2328:	9a 81       	ldd	r25, Y+2	; 0x02
    232a:	2b 81       	ldd	r18, Y+3	; 0x03
    232c:	43 e0       	ldi	r20, 0x03	; 3
			display_write_str(display, "\xff\xff\xff",3,offset);
    232e:	65 ea       	ldi	r22, 0xA5	; 165
    2330:	71 e0       	ldi	r23, 0x01	; 1
    2332:	0e 94 81 07 	call	0xf02	; 0xf02 <display_write_str>
    2336:	6b c1       	rjmp	.+726    	; 0x260e <display_large_number+0x41e>
    2338:	89 81       	ldd	r24, Y+1	; 0x01
    233a:	9a 81       	ldd	r25, Y+2	; 0x02
    233c:	2b 81       	ldd	r18, Y+3	; 0x03
			break;
    233e:	40 e0       	ldi	r20, 0x00	; 0
		case 4:
			display_write_str(display, "\x03  ",0,offset);
    2340:	61 ec       	ldi	r22, 0xC1	; 193
    2342:	71 e0       	ldi	r23, 0x01	; 1
    2344:	0e 94 81 07 	call	0xf02	; 0xf02 <display_write_str>
    2348:	89 81       	ldd	r24, Y+1	; 0x01
    234a:	9a 81       	ldd	r25, Y+2	; 0x02
    234c:	2b 81       	ldd	r18, Y+3	; 0x03
    234e:	41 e0       	ldi	r20, 0x01	; 1
			display_write_str(display, "\x03\x02 ",1,offset);
    2350:	65 ec       	ldi	r22, 0xC5	; 197
    2352:	71 e0       	ldi	r23, 0x01	; 1
    2354:	0e 94 81 07 	call	0xf02	; 0xf02 <display_write_str>
    2358:	89 81       	ldd	r24, Y+1	; 0x01
    235a:	9a 81       	ldd	r25, Y+2	; 0x02
    235c:	2b 81       	ldd	r18, Y+3	; 0x03
    235e:	42 e0       	ldi	r20, 0x02	; 2
			display_write_str(display, "\x04\x05\x04",2,offset);
    2360:	69 ec       	ldi	r22, 0xC9	; 201
    2362:	71 e0       	ldi	r23, 0x01	; 1
    2364:	0e 94 81 07 	call	0xf02	; 0xf02 <display_write_str>
    2368:	89 81       	ldd	r24, Y+1	; 0x01
    236a:	9a 81       	ldd	r25, Y+2	; 0x02
    236c:	2b 81       	ldd	r18, Y+3	; 0x03
    236e:	43 e0       	ldi	r20, 0x03	; 3
			display_write_str(display, " \x02 ",3,offset);
    2370:	6d ec       	ldi	r22, 0xCD	; 205
    2372:	71 e0       	ldi	r23, 0x01	; 1
    2374:	0e 94 81 07 	call	0xf02	; 0xf02 <display_write_str>
    2378:	4a c1       	rjmp	.+660    	; 0x260e <display_large_number+0x41e>
    237a:	89 81       	ldd	r24, Y+1	; 0x01
    237c:	9a 81       	ldd	r25, Y+2	; 0x02
    237e:	2b 81       	ldd	r18, Y+3	; 0x03
			break;
    2380:	40 e0       	ldi	r20, 0x00	; 0
		case 5:
			display_write_str(display, "\xff\xff\xff",0,offset);
    2382:	65 ea       	ldi	r22, 0xA5	; 165
    2384:	71 e0       	ldi	r23, 0x01	; 1
    2386:	0e 94 81 07 	call	0xf02	; 0xf02 <display_write_str>
    238a:	89 81       	ldd	r24, Y+1	; 0x01
    238c:	9a 81       	ldd	r25, Y+2	; 0x02
    238e:	2b 81       	ldd	r18, Y+3	; 0x03
    2390:	41 e0       	ldi	r20, 0x01	; 1
			display_write_str(display, "\xff\x07\x07",1,offset);
    2392:	61 ed       	ldi	r22, 0xD1	; 209
    2394:	71 e0       	ldi	r23, 0x01	; 1
    2396:	0e 94 81 07 	call	0xf02	; 0xf02 <display_write_str>
    239a:	89 81       	ldd	r24, Y+1	; 0x01
    239c:	9a 81       	ldd	r25, Y+2	; 0x02
    239e:	2b 81       	ldd	r18, Y+3	; 0x03
    23a0:	42 e0       	ldi	r20, 0x02	; 2
			display_write_str(display, "\x01\x01\xff",2,offset);
    23a2:	6d eb       	ldi	r22, 0xBD	; 189
    23a4:	71 e0       	ldi	r23, 0x01	; 1
    23a6:	0e 94 81 07 	call	0xf02	; 0xf02 <display_write_str>
    23aa:	89 81       	ldd	r24, Y+1	; 0x01
    23ac:	9a 81       	ldd	r25, Y+2	; 0x02
    23ae:	2b 81       	ldd	r18, Y+3	; 0x03
    23b0:	43 e0       	ldi	r20, 0x03	; 3
			display_write_str(display, "\xff\xff\xff",3,offset);
    23b2:	65 ea       	ldi	r22, 0xA5	; 165
    23b4:	71 e0       	ldi	r23, 0x01	; 1
    23b6:	0e 94 81 07 	call	0xf02	; 0xf02 <display_write_str>
    23ba:	29 c1       	rjmp	.+594    	; 0x260e <display_large_number+0x41e>
    23bc:	89 81       	ldd	r24, Y+1	; 0x01
    23be:	9a 81       	ldd	r25, Y+2	; 0x02
    23c0:	2b 81       	ldd	r18, Y+3	; 0x03
			break;
    23c2:	40 e0       	ldi	r20, 0x00	; 0
		case 6:
			display_write_str(display, "\xff\xff\xff",0,offset);
    23c4:	65 ea       	ldi	r22, 0xA5	; 165
    23c6:	71 e0       	ldi	r23, 0x01	; 1
    23c8:	0e 94 81 07 	call	0xf02	; 0xf02 <display_write_str>
    23cc:	89 81       	ldd	r24, Y+1	; 0x01
    23ce:	9a 81       	ldd	r25, Y+2	; 0x02
    23d0:	2b 81       	ldd	r18, Y+3	; 0x03
    23d2:	41 e0       	ldi	r20, 0x01	; 1
			display_write_str(display, "\xff\x07\x07",1,offset);
    23d4:	61 ed       	ldi	r22, 0xD1	; 209
    23d6:	71 e0       	ldi	r23, 0x01	; 1
    23d8:	0e 94 81 07 	call	0xf02	; 0xf02 <display_write_str>
    23dc:	89 81       	ldd	r24, Y+1	; 0x01
    23de:	9a 81       	ldd	r25, Y+2	; 0x02
    23e0:	2b 81       	ldd	r18, Y+3	; 0x03
    23e2:	42 e0       	ldi	r20, 0x02	; 2
			display_write_str(display, "\xff\x01\xff",2,offset);
    23e4:	65 ed       	ldi	r22, 0xD5	; 213
    23e6:	71 e0       	ldi	r23, 0x01	; 1
    23e8:	0e 94 81 07 	call	0xf02	; 0xf02 <display_write_str>
    23ec:	89 81       	ldd	r24, Y+1	; 0x01
    23ee:	9a 81       	ldd	r25, Y+2	; 0x02
    23f0:	2b 81       	ldd	r18, Y+3	; 0x03
    23f2:	43 e0       	ldi	r20, 0x03	; 3
			display_write_str(display, "\xff\xff\xff",3,offset);
    23f4:	65 ea       	ldi	r22, 0xA5	; 165
    23f6:	71 e0       	ldi	r23, 0x01	; 1
    23f8:	0e 94 81 07 	call	0xf02	; 0xf02 <display_write_str>
    23fc:	08 c1       	rjmp	.+528    	; 0x260e <display_large_number+0x41e>
    23fe:	89 81       	ldd	r24, Y+1	; 0x01
    2400:	9a 81       	ldd	r25, Y+2	; 0x02
    2402:	2b 81       	ldd	r18, Y+3	; 0x03
			break;
    2404:	40 e0       	ldi	r20, 0x00	; 0
		case 7:
			display_write_str(display, "\xff\xff\xff",0,offset);
    2406:	65 ea       	ldi	r22, 0xA5	; 165
    2408:	71 e0       	ldi	r23, 0x01	; 1
    240a:	0e 94 81 07 	call	0xf02	; 0xf02 <display_write_str>
    240e:	89 81       	ldd	r24, Y+1	; 0x01
    2410:	9a 81       	ldd	r25, Y+2	; 0x02
    2412:	2b 81       	ldd	r18, Y+3	; 0x03
    2414:	41 e0       	ldi	r20, 0x01	; 1
			display_write_str(display, "  \xff",1,offset);
    2416:	61 eb       	ldi	r22, 0xB1	; 177
    2418:	71 e0       	ldi	r23, 0x01	; 1
    241a:	0e 94 81 07 	call	0xf02	; 0xf02 <display_write_str>
    241e:	89 81       	ldd	r24, Y+1	; 0x01
    2420:	9a 81       	ldd	r25, Y+2	; 0x02
    2422:	2b 81       	ldd	r18, Y+3	; 0x03
    2424:	42 e0       	ldi	r20, 0x02	; 2
			display_write_str(display, " \xff ",2,offset);
    2426:	69 ed       	ldi	r22, 0xD9	; 217
    2428:	71 e0       	ldi	r23, 0x01	; 1
    242a:	0e 94 81 07 	call	0xf02	; 0xf02 <display_write_str>
    242e:	89 81       	ldd	r24, Y+1	; 0x01
    2430:	9a 81       	ldd	r25, Y+2	; 0x02
    2432:	2b 81       	ldd	r18, Y+3	; 0x03
    2434:	43 e0       	ldi	r20, 0x03	; 3
			display_write_str(display, " \xff ",3,offset);
    2436:	69 ed       	ldi	r22, 0xD9	; 217
    2438:	71 e0       	ldi	r23, 0x01	; 1
    243a:	0e 94 81 07 	call	0xf02	; 0xf02 <display_write_str>
    243e:	e7 c0       	rjmp	.+462    	; 0x260e <display_large_number+0x41e>
    2440:	89 81       	ldd	r24, Y+1	; 0x01
    2442:	9a 81       	ldd	r25, Y+2	; 0x02
    2444:	2b 81       	ldd	r18, Y+3	; 0x03
			break;
    2446:	40 e0       	ldi	r20, 0x00	; 0
		case 8:
			display_write_str(display, "\xff\xff\xff",0,offset);
    2448:	65 ea       	ldi	r22, 0xA5	; 165
    244a:	71 e0       	ldi	r23, 0x01	; 1
    244c:	0e 94 81 07 	call	0xf02	; 0xf02 <display_write_str>
    2450:	89 81       	ldd	r24, Y+1	; 0x01
    2452:	9a 81       	ldd	r25, Y+2	; 0x02
    2454:	2b 81       	ldd	r18, Y+3	; 0x03
    2456:	41 e0       	ldi	r20, 0x01	; 1
			display_write_str(display, "\xff\x07\xff",1,offset);
    2458:	6d ed       	ldi	r22, 0xDD	; 221
    245a:	71 e0       	ldi	r23, 0x01	; 1
    245c:	0e 94 81 07 	call	0xf02	; 0xf02 <display_write_str>
    2460:	89 81       	ldd	r24, Y+1	; 0x01
    2462:	9a 81       	ldd	r25, Y+2	; 0x02
    2464:	2b 81       	ldd	r18, Y+3	; 0x03
    2466:	42 e0       	ldi	r20, 0x02	; 2
			display_write_str(display, "\xff\x01\xff",2,offset);
    2468:	65 ed       	ldi	r22, 0xD5	; 213
    246a:	71 e0       	ldi	r23, 0x01	; 1
    246c:	0e 94 81 07 	call	0xf02	; 0xf02 <display_write_str>
    2470:	89 81       	ldd	r24, Y+1	; 0x01
    2472:	9a 81       	ldd	r25, Y+2	; 0x02
    2474:	2b 81       	ldd	r18, Y+3	; 0x03
    2476:	43 e0       	ldi	r20, 0x03	; 3
			display_write_str(display, "\xff\x07\xff",3,offset);
    2478:	6d ed       	ldi	r22, 0xDD	; 221
    247a:	71 e0       	ldi	r23, 0x01	; 1
    247c:	0e 94 81 07 	call	0xf02	; 0xf02 <display_write_str>
    2480:	c6 c0       	rjmp	.+396    	; 0x260e <display_large_number+0x41e>
    2482:	89 81       	ldd	r24, Y+1	; 0x01
    2484:	9a 81       	ldd	r25, Y+2	; 0x02
    2486:	2b 81       	ldd	r18, Y+3	; 0x03
			break;
    2488:	40 e0       	ldi	r20, 0x00	; 0
		
		case 9:
			display_write_str(display, "\xff\xff\xff",0,offset);
    248a:	65 ea       	ldi	r22, 0xA5	; 165
    248c:	71 e0       	ldi	r23, 0x01	; 1
    248e:	0e 94 81 07 	call	0xf02	; 0xf02 <display_write_str>
    2492:	89 81       	ldd	r24, Y+1	; 0x01
    2494:	9a 81       	ldd	r25, Y+2	; 0x02
    2496:	2b 81       	ldd	r18, Y+3	; 0x03
    2498:	41 e0       	ldi	r20, 0x01	; 1
			display_write_str(display, "\xff\x07\xff",1,offset);
    249a:	6d ed       	ldi	r22, 0xDD	; 221
    249c:	71 e0       	ldi	r23, 0x01	; 1
    249e:	0e 94 81 07 	call	0xf02	; 0xf02 <display_write_str>
    24a2:	89 81       	ldd	r24, Y+1	; 0x01
    24a4:	9a 81       	ldd	r25, Y+2	; 0x02
    24a6:	2b 81       	ldd	r18, Y+3	; 0x03
    24a8:	42 e0       	ldi	r20, 0x02	; 2
			display_write_str(display, "\x01\x01\xff",2,offset);
    24aa:	6d eb       	ldi	r22, 0xBD	; 189
    24ac:	71 e0       	ldi	r23, 0x01	; 1
    24ae:	0e 94 81 07 	call	0xf02	; 0xf02 <display_write_str>
    24b2:	89 81       	ldd	r24, Y+1	; 0x01
    24b4:	9a 81       	ldd	r25, Y+2	; 0x02
    24b6:	2b 81       	ldd	r18, Y+3	; 0x03
    24b8:	43 e0       	ldi	r20, 0x03	; 3
			display_write_str(display, "  \xff",3,offset);
    24ba:	61 eb       	ldi	r22, 0xB1	; 177
    24bc:	71 e0       	ldi	r23, 0x01	; 1
    24be:	0e 94 81 07 	call	0xf02	; 0xf02 <display_write_str>
    24c2:	a5 c0       	rjmp	.+330    	; 0x260e <display_large_number+0x41e>
    24c4:	89 81       	ldd	r24, Y+1	; 0x01
    24c6:	9a 81       	ldd	r25, Y+2	; 0x02
    24c8:	2b 81       	ldd	r18, Y+3	; 0x03
			break;
    24ca:	40 e0       	ldi	r20, 0x00	; 0
		// 10 is completly empty
		case 10:
			display_write_str(display, "   ",0,offset);
    24cc:	61 ee       	ldi	r22, 0xE1	; 225
    24ce:	71 e0       	ldi	r23, 0x01	; 1
    24d0:	0e 94 81 07 	call	0xf02	; 0xf02 <display_write_str>
    24d4:	89 81       	ldd	r24, Y+1	; 0x01
    24d6:	9a 81       	ldd	r25, Y+2	; 0x02
    24d8:	2b 81       	ldd	r18, Y+3	; 0x03
    24da:	41 e0       	ldi	r20, 0x01	; 1
			display_write_str(display, "   ",1,offset);
    24dc:	61 ee       	ldi	r22, 0xE1	; 225
    24de:	71 e0       	ldi	r23, 0x01	; 1
    24e0:	0e 94 81 07 	call	0xf02	; 0xf02 <display_write_str>
    24e4:	89 81       	ldd	r24, Y+1	; 0x01
    24e6:	9a 81       	ldd	r25, Y+2	; 0x02
    24e8:	2b 81       	ldd	r18, Y+3	; 0x03
    24ea:	42 e0       	ldi	r20, 0x02	; 2
			display_write_str(display, "   ",2,offset);
    24ec:	61 ee       	ldi	r22, 0xE1	; 225
    24ee:	71 e0       	ldi	r23, 0x01	; 1
    24f0:	0e 94 81 07 	call	0xf02	; 0xf02 <display_write_str>
    24f4:	89 81       	ldd	r24, Y+1	; 0x01
    24f6:	9a 81       	ldd	r25, Y+2	; 0x02
    24f8:	2b 81       	ldd	r18, Y+3	; 0x03
    24fa:	43 e0       	ldi	r20, 0x03	; 3
			display_write_str(display, "   ",3,offset);
    24fc:	61 ee       	ldi	r22, 0xE1	; 225
    24fe:	71 e0       	ldi	r23, 0x01	; 1
    2500:	0e 94 81 07 	call	0xf02	; 0xf02 <display_write_str>
    2504:	84 c0       	rjmp	.+264    	; 0x260e <display_large_number+0x41e>
    2506:	89 81       	ldd	r24, Y+1	; 0x01
    2508:	9a 81       	ldd	r25, Y+2	; 0x02
    250a:	2b 81       	ldd	r18, Y+3	; 0x03
			break;
    250c:	40 e0       	ldi	r20, 0x00	; 0
		
		//we misuse the 11 as V
		case 11:
			display_write_str(display, "\xff \xff",0,offset);
    250e:	69 ea       	ldi	r22, 0xA9	; 169
    2510:	71 e0       	ldi	r23, 0x01	; 1
    2512:	0e 94 81 07 	call	0xf02	; 0xf02 <display_write_str>
    2516:	89 81       	ldd	r24, Y+1	; 0x01
    2518:	9a 81       	ldd	r25, Y+2	; 0x02
    251a:	2b 81       	ldd	r18, Y+3	; 0x03
    251c:	41 e0       	ldi	r20, 0x01	; 1
			display_write_str(display, "\xff \xff",1,offset);
    251e:	69 ea       	ldi	r22, 0xA9	; 169
    2520:	71 e0       	ldi	r23, 0x01	; 1
    2522:	0e 94 81 07 	call	0xf02	; 0xf02 <display_write_str>
    2526:	89 81       	ldd	r24, Y+1	; 0x01
    2528:	9a 81       	ldd	r25, Y+2	; 0x02
    252a:	2b 81       	ldd	r18, Y+3	; 0x03
    252c:	42 e0       	ldi	r20, 0x02	; 2
			display_write_str(display, "\x02\x07\x03",2,offset);
    252e:	65 ee       	ldi	r22, 0xE5	; 229
    2530:	71 e0       	ldi	r23, 0x01	; 1
    2532:	0e 94 81 07 	call	0xf02	; 0xf02 <display_write_str>
    2536:	89 81       	ldd	r24, Y+1	; 0x01
    2538:	9a 81       	ldd	r25, Y+2	; 0x02
    253a:	2b 81       	ldd	r18, Y+3	; 0x03
    253c:	43 e0       	ldi	r20, 0x03	; 3
			display_write_str(display, " \xff ",3,offset);
    253e:	69 ed       	ldi	r22, 0xD9	; 217
    2540:	71 e0       	ldi	r23, 0x01	; 1
    2542:	0e 94 81 07 	call	0xf02	; 0xf02 <display_write_str>
    2546:	63 c0       	rjmp	.+198    	; 0x260e <display_large_number+0x41e>
    2548:	89 81       	ldd	r24, Y+1	; 0x01
    254a:	9a 81       	ldd	r25, Y+2	; 0x02
    254c:	2b 81       	ldd	r18, Y+3	; 0x03
			break;
    254e:	40 e0       	ldi	r20, 0x00	; 0
		//we misuse the 12 as U
		case 12:
			display_write_str(display, "\xff \xff",0,offset);
    2550:	69 ea       	ldi	r22, 0xA9	; 169
    2552:	71 e0       	ldi	r23, 0x01	; 1
    2554:	0e 94 81 07 	call	0xf02	; 0xf02 <display_write_str>
    2558:	89 81       	ldd	r24, Y+1	; 0x01
    255a:	9a 81       	ldd	r25, Y+2	; 0x02
    255c:	2b 81       	ldd	r18, Y+3	; 0x03
    255e:	41 e0       	ldi	r20, 0x01	; 1
			display_write_str(display, "\xff \xff",1,offset);
    2560:	69 ea       	ldi	r22, 0xA9	; 169
    2562:	71 e0       	ldi	r23, 0x01	; 1
    2564:	0e 94 81 07 	call	0xf02	; 0xf02 <display_write_str>
    2568:	89 81       	ldd	r24, Y+1	; 0x01
    256a:	9a 81       	ldd	r25, Y+2	; 0x02
    256c:	2b 81       	ldd	r18, Y+3	; 0x03
    256e:	42 e0       	ldi	r20, 0x02	; 2
			display_write_str(display, "\xff \xff",2,offset);
    2570:	69 ea       	ldi	r22, 0xA9	; 169
    2572:	71 e0       	ldi	r23, 0x01	; 1
    2574:	0e 94 81 07 	call	0xf02	; 0xf02 <display_write_str>
    2578:	89 81       	ldd	r24, Y+1	; 0x01
    257a:	9a 81       	ldd	r25, Y+2	; 0x02
    257c:	2b 81       	ldd	r18, Y+3	; 0x03
    257e:	43 e0       	ldi	r20, 0x03	; 3
			display_write_str(display, "\xff\xff\xff",3,offset);
    2580:	65 ea       	ldi	r22, 0xA5	; 165
    2582:	71 e0       	ldi	r23, 0x01	; 1
    2584:	0e 94 81 07 	call	0xf02	; 0xf02 <display_write_str>
    2588:	42 c0       	rjmp	.+132    	; 0x260e <display_large_number+0x41e>
    258a:	89 81       	ldd	r24, Y+1	; 0x01
    258c:	9a 81       	ldd	r25, Y+2	; 0x02
    258e:	2b 81       	ldd	r18, Y+3	; 0x03
			break;
    2590:	40 e0       	ldi	r20, 0x00	; 0
			//we misuse the 13 as C
		case 13:
			display_write_str(display, "\xff\xff\xff",0,offset);
    2592:	65 ea       	ldi	r22, 0xA5	; 165
    2594:	71 e0       	ldi	r23, 0x01	; 1
    2596:	0e 94 81 07 	call	0xf02	; 0xf02 <display_write_str>
    259a:	89 81       	ldd	r24, Y+1	; 0x01
    259c:	9a 81       	ldd	r25, Y+2	; 0x02
    259e:	2b 81       	ldd	r18, Y+3	; 0x03
    25a0:	41 e0       	ldi	r20, 0x01	; 1
			display_write_str(display, "\xff  ",1,offset);
    25a2:	69 ee       	ldi	r22, 0xE9	; 233
    25a4:	71 e0       	ldi	r23, 0x01	; 1
    25a6:	0e 94 81 07 	call	0xf02	; 0xf02 <display_write_str>
    25aa:	89 81       	ldd	r24, Y+1	; 0x01
    25ac:	9a 81       	ldd	r25, Y+2	; 0x02
    25ae:	2b 81       	ldd	r18, Y+3	; 0x03
    25b0:	42 e0       	ldi	r20, 0x02	; 2
			display_write_str(display, "\xff  ",2,offset);
    25b2:	69 ee       	ldi	r22, 0xE9	; 233
    25b4:	71 e0       	ldi	r23, 0x01	; 1
    25b6:	0e 94 81 07 	call	0xf02	; 0xf02 <display_write_str>
    25ba:	89 81       	ldd	r24, Y+1	; 0x01
    25bc:	9a 81       	ldd	r25, Y+2	; 0x02
    25be:	2b 81       	ldd	r18, Y+3	; 0x03
    25c0:	43 e0       	ldi	r20, 0x03	; 3
			display_write_str(display, "\xff\xff\xff",3,offset);
    25c2:	65 ea       	ldi	r22, 0xA5	; 165
    25c4:	71 e0       	ldi	r23, 0x01	; 1
    25c6:	0e 94 81 07 	call	0xf02	; 0xf02 <display_write_str>
    25ca:	21 c0       	rjmp	.+66     	; 0x260e <display_large_number+0x41e>
    25cc:	89 81       	ldd	r24, Y+1	; 0x01
    25ce:	9a 81       	ldd	r25, Y+2	; 0x02
    25d0:	2b 81       	ldd	r18, Y+3	; 0x03
			break;
    25d2:	40 e0       	ldi	r20, 0x00	; 0
			
		//if no number was transmitted
		default:
			display_write_str(display, "\xff\xff\xff",0,offset);
    25d4:	65 ea       	ldi	r22, 0xA5	; 165
    25d6:	71 e0       	ldi	r23, 0x01	; 1
    25d8:	0e 94 81 07 	call	0xf02	; 0xf02 <display_write_str>
    25dc:	89 81       	ldd	r24, Y+1	; 0x01
    25de:	9a 81       	ldd	r25, Y+2	; 0x02
    25e0:	2b 81       	ldd	r18, Y+3	; 0x03
    25e2:	41 e0       	ldi	r20, 0x01	; 1
			display_write_str(display, "\xff\xff\xff",1,offset);
    25e4:	65 ea       	ldi	r22, 0xA5	; 165
    25e6:	71 e0       	ldi	r23, 0x01	; 1
    25e8:	0e 94 81 07 	call	0xf02	; 0xf02 <display_write_str>
    25ec:	89 81       	ldd	r24, Y+1	; 0x01
    25ee:	9a 81       	ldd	r25, Y+2	; 0x02
    25f0:	2b 81       	ldd	r18, Y+3	; 0x03
			display_write_str(display, "\xff\xff\xff",2,offset);
    25f2:	42 e0       	ldi	r20, 0x02	; 2
    25f4:	65 ea       	ldi	r22, 0xA5	; 165
    25f6:	71 e0       	ldi	r23, 0x01	; 1
    25f8:	0e 94 81 07 	call	0xf02	; 0xf02 <display_write_str>
    25fc:	89 81       	ldd	r24, Y+1	; 0x01
    25fe:	9a 81       	ldd	r25, Y+2	; 0x02
    2600:	2b 81       	ldd	r18, Y+3	; 0x03
			display_write_str(display, "\xff\xff\xff",3,offset);
    2602:	43 e0       	ldi	r20, 0x03	; 3
    2604:	65 ea       	ldi	r22, 0xA5	; 165
    2606:	71 e0       	ldi	r23, 0x01	; 1
    2608:	0e 94 81 07 	call	0xf02	; 0xf02 <display_write_str>
    260c:	00 00       	nop
    260e:	00 00       	nop
    2610:	0f 90       	pop	r0
			break;
    2612:	0f 90       	pop	r0
	}
}
    2614:	0f 90       	pop	r0
    2616:	0f 90       	pop	r0
    2618:	df 91       	pop	r29
    261a:	cf 91       	pop	r28
    261c:	08 95       	ret

0000261e <display_small_number>:
    261e:	cf 93       	push	r28
    2620:	df 93       	push	r29
    2622:	00 d0       	rcall	.+0      	; 0x2624 <display_small_number+0x6>

void display_small_number(struct DISPLAY_PAGE *display, uint8_t offset, uint8_t row, uint8_t number){
    2624:	00 d0       	rcall	.+0      	; 0x2626 <display_small_number+0x8>
    2626:	1f 92       	push	r1
    2628:	cd b7       	in	r28, 0x3d	; 61
    262a:	de b7       	in	r29, 0x3e	; 62
    262c:	9a 83       	std	Y+2, r25	; 0x02
    262e:	89 83       	std	Y+1, r24	; 0x01
    2630:	6b 83       	std	Y+3, r22	; 0x03
    2632:	4c 83       	std	Y+4, r20	; 0x04
    2634:	2d 83       	std	Y+5, r18	; 0x05
    2636:	8d 81       	ldd	r24, Y+5	; 0x05
    2638:	88 2f       	mov	r24, r24
    263a:	90 e0       	ldi	r25, 0x00	; 0

	switch (number){
    263c:	09 2e       	mov	r0, r25
    263e:	00 0c       	add	r0, r0
    2640:	aa 0b       	sbc	r26, r26
    2642:	bb 0b       	sbc	r27, r27
    2644:	40 e0       	ldi	r20, 0x00	; 0
    2646:	50 e0       	ldi	r21, 0x00	; 0
    2648:	29 e0       	ldi	r18, 0x09	; 9
    264a:	30 e0       	ldi	r19, 0x00	; 0
    264c:	84 1b       	sub	r24, r20
    264e:	95 0b       	sbc	r25, r21
    2650:	28 17       	cp	r18, r24
    2652:	39 07       	cpc	r19, r25
    2654:	08 f4       	brcc	.+2      	; 0x2658 <display_small_number+0x3a>
    2656:	5e c0       	rjmp	.+188    	; 0x2714 <display_small_number+0xf6>
    2658:	88 5a       	subi	r24, 0xA8	; 168
    265a:	9f 4f       	sbci	r25, 0xFF	; 255
    265c:	fc 01       	movw	r30, r24
    265e:	12 c7       	rjmp	.+3620   	; 0x3484 <__tablejump2__>
    2660:	89 81       	ldd	r24, Y+1	; 0x01
    2662:	9a 81       	ldd	r25, Y+2	; 0x02
    2664:	2b 81       	ldd	r18, Y+3	; 0x03
    2666:	4c 81       	ldd	r20, Y+4	; 0x04
		case 0:
			display_write_str(display, "0",row,offset);
    2668:	6d ee       	ldi	r22, 0xED	; 237
    266a:	71 e0       	ldi	r23, 0x01	; 1
    266c:	0e 94 81 07 	call	0xf02	; 0xf02 <display_write_str>
    2670:	5a c0       	rjmp	.+180    	; 0x2726 <display_small_number+0x108>
    2672:	89 81       	ldd	r24, Y+1	; 0x01
    2674:	9a 81       	ldd	r25, Y+2	; 0x02
    2676:	2b 81       	ldd	r18, Y+3	; 0x03
		break;
    2678:	4c 81       	ldd	r20, Y+4	; 0x04
		
		case 1:
			display_write_str(display, "1",row,offset);
    267a:	6f ee       	ldi	r22, 0xEF	; 239
    267c:	71 e0       	ldi	r23, 0x01	; 1
    267e:	0e 94 81 07 	call	0xf02	; 0xf02 <display_write_str>
    2682:	51 c0       	rjmp	.+162    	; 0x2726 <display_small_number+0x108>
    2684:	89 81       	ldd	r24, Y+1	; 0x01
    2686:	9a 81       	ldd	r25, Y+2	; 0x02
    2688:	2b 81       	ldd	r18, Y+3	; 0x03
		break;
    268a:	4c 81       	ldd	r20, Y+4	; 0x04
		
		case 2:
			display_write_str(display, "2",row,offset);
    268c:	61 ef       	ldi	r22, 0xF1	; 241
    268e:	71 e0       	ldi	r23, 0x01	; 1
    2690:	0e 94 81 07 	call	0xf02	; 0xf02 <display_write_str>
    2694:	48 c0       	rjmp	.+144    	; 0x2726 <display_small_number+0x108>
    2696:	89 81       	ldd	r24, Y+1	; 0x01
    2698:	9a 81       	ldd	r25, Y+2	; 0x02
    269a:	2b 81       	ldd	r18, Y+3	; 0x03
		break;
    269c:	4c 81       	ldd	r20, Y+4	; 0x04
		
		case 3:
			display_write_str(display, "3",row,offset);
    269e:	63 ef       	ldi	r22, 0xF3	; 243
    26a0:	71 e0       	ldi	r23, 0x01	; 1
    26a2:	0e 94 81 07 	call	0xf02	; 0xf02 <display_write_str>
    26a6:	3f c0       	rjmp	.+126    	; 0x2726 <display_small_number+0x108>
    26a8:	89 81       	ldd	r24, Y+1	; 0x01
    26aa:	9a 81       	ldd	r25, Y+2	; 0x02
    26ac:	2b 81       	ldd	r18, Y+3	; 0x03
		break;
    26ae:	4c 81       	ldd	r20, Y+4	; 0x04
		
		case 4:
			display_write_str(display, "4",row,offset);
    26b0:	65 ef       	ldi	r22, 0xF5	; 245
    26b2:	71 e0       	ldi	r23, 0x01	; 1
    26b4:	0e 94 81 07 	call	0xf02	; 0xf02 <display_write_str>
    26b8:	36 c0       	rjmp	.+108    	; 0x2726 <display_small_number+0x108>
    26ba:	89 81       	ldd	r24, Y+1	; 0x01
    26bc:	9a 81       	ldd	r25, Y+2	; 0x02
    26be:	2b 81       	ldd	r18, Y+3	; 0x03
		break;
    26c0:	4c 81       	ldd	r20, Y+4	; 0x04
		
		case 5:
			display_write_str(display, "5",row,offset);
    26c2:	67 ef       	ldi	r22, 0xF7	; 247
    26c4:	71 e0       	ldi	r23, 0x01	; 1
    26c6:	0e 94 81 07 	call	0xf02	; 0xf02 <display_write_str>
    26ca:	2d c0       	rjmp	.+90     	; 0x2726 <display_small_number+0x108>
    26cc:	89 81       	ldd	r24, Y+1	; 0x01
    26ce:	9a 81       	ldd	r25, Y+2	; 0x02
    26d0:	2b 81       	ldd	r18, Y+3	; 0x03
		break;
    26d2:	4c 81       	ldd	r20, Y+4	; 0x04
		
		case 6:
			display_write_str(display, "6",row,offset);
    26d4:	69 ef       	ldi	r22, 0xF9	; 249
    26d6:	71 e0       	ldi	r23, 0x01	; 1
    26d8:	0e 94 81 07 	call	0xf02	; 0xf02 <display_write_str>
    26dc:	24 c0       	rjmp	.+72     	; 0x2726 <display_small_number+0x108>
    26de:	89 81       	ldd	r24, Y+1	; 0x01
    26e0:	9a 81       	ldd	r25, Y+2	; 0x02
    26e2:	2b 81       	ldd	r18, Y+3	; 0x03
		break;
    26e4:	4c 81       	ldd	r20, Y+4	; 0x04
		
		case 7:
			display_write_str(display, "7",row,offset);
    26e6:	6b ef       	ldi	r22, 0xFB	; 251
    26e8:	71 e0       	ldi	r23, 0x01	; 1
    26ea:	0e 94 81 07 	call	0xf02	; 0xf02 <display_write_str>
    26ee:	1b c0       	rjmp	.+54     	; 0x2726 <display_small_number+0x108>
    26f0:	89 81       	ldd	r24, Y+1	; 0x01
    26f2:	9a 81       	ldd	r25, Y+2	; 0x02
    26f4:	2b 81       	ldd	r18, Y+3	; 0x03
		break;
    26f6:	4c 81       	ldd	r20, Y+4	; 0x04
		
		case 8:
			display_write_str(display, "8",row,offset);
    26f8:	6d ef       	ldi	r22, 0xFD	; 253
    26fa:	71 e0       	ldi	r23, 0x01	; 1
    26fc:	0e 94 81 07 	call	0xf02	; 0xf02 <display_write_str>
    2700:	12 c0       	rjmp	.+36     	; 0x2726 <display_small_number+0x108>
    2702:	89 81       	ldd	r24, Y+1	; 0x01
    2704:	9a 81       	ldd	r25, Y+2	; 0x02
    2706:	2b 81       	ldd	r18, Y+3	; 0x03
		break;
    2708:	4c 81       	ldd	r20, Y+4	; 0x04
		
		case 9:
			display_write_str(display, "9",row,offset);
    270a:	6f ef       	ldi	r22, 0xFF	; 255
    270c:	71 e0       	ldi	r23, 0x01	; 1
    270e:	0e 94 81 07 	call	0xf02	; 0xf02 <display_write_str>
    2712:	09 c0       	rjmp	.+18     	; 0x2726 <display_small_number+0x108>
    2714:	89 81       	ldd	r24, Y+1	; 0x01
    2716:	9a 81       	ldd	r25, Y+2	; 0x02
    2718:	2b 81       	ldd	r18, Y+3	; 0x03
		break;
    271a:	4c 81       	ldd	r20, Y+4	; 0x04
		//if no number was transmitted
		default:
		display_write_str(display, "\xFF",row,offset);
    271c:	61 e0       	ldi	r22, 0x01	; 1
    271e:	72 e0       	ldi	r23, 0x02	; 2
    2720:	0e 94 81 07 	call	0xf02	; 0xf02 <display_write_str>
    2724:	00 00       	nop
    2726:	00 00       	nop
    2728:	0f 90       	pop	r0
    272a:	0f 90       	pop	r0
		break;
    272c:	0f 90       	pop	r0
	}
}
    272e:	0f 90       	pop	r0
    2730:	0f 90       	pop	r0
    2732:	df 91       	pop	r29
    2734:	cf 91       	pop	r28
    2736:	08 95       	ret

00002738 <invert_binary_number>:
 *  Author: Admin
 */ 

#include "helpers.h"

uint8_t invert_binary_number(uint8_t number_to_invert){
    2738:	cf 93       	push	r28
    273a:	df 93       	push	r29
    273c:	00 d0       	rcall	.+0      	; 0x273e <invert_binary_number+0x6>
    273e:	1f 92       	push	r1
    2740:	cd b7       	in	r28, 0x3d	; 61
    2742:	de b7       	in	r29, 0x3e	; 62
    2744:	8b 83       	std	Y+3, r24	; 0x03
	
	uint8_t out_num = 0;
    2746:	19 82       	std	Y+1, r1	; 0x01
	
	for (uint8_t it = 0 ; it < 8; it++){
    2748:	1a 82       	std	Y+2, r1	; 0x02
    274a:	22 c0       	rjmp	.+68     	; 0x2790 <invert_binary_number+0x58>

		out_num |= ((number_to_invert>> it) & 1)<<(7-it);
    274c:	8b 81       	ldd	r24, Y+3	; 0x03
    274e:	88 2f       	mov	r24, r24
    2750:	90 e0       	ldi	r25, 0x00	; 0
    2752:	2a 81       	ldd	r18, Y+2	; 0x02
    2754:	22 2f       	mov	r18, r18
    2756:	30 e0       	ldi	r19, 0x00	; 0
    2758:	02 c0       	rjmp	.+4      	; 0x275e <invert_binary_number+0x26>
    275a:	95 95       	asr	r25
    275c:	87 95       	ror	r24
    275e:	2a 95       	dec	r18
    2760:	e2 f7       	brpl	.-8      	; 0x275a <invert_binary_number+0x22>
    2762:	81 70       	andi	r24, 0x01	; 1
    2764:	99 27       	eor	r25, r25
    2766:	2a 81       	ldd	r18, Y+2	; 0x02
    2768:	22 2f       	mov	r18, r18
    276a:	30 e0       	ldi	r19, 0x00	; 0
    276c:	47 e0       	ldi	r20, 0x07	; 7
    276e:	50 e0       	ldi	r21, 0x00	; 0
    2770:	ba 01       	movw	r22, r20
    2772:	62 1b       	sub	r22, r18
    2774:	73 0b       	sbc	r23, r19
    2776:	9b 01       	movw	r18, r22
    2778:	02 c0       	rjmp	.+4      	; 0x277e <invert_binary_number+0x46>
    277a:	88 0f       	add	r24, r24
    277c:	99 1f       	adc	r25, r25
    277e:	2a 95       	dec	r18
    2780:	e2 f7       	brpl	.-8      	; 0x277a <invert_binary_number+0x42>
    2782:	98 2f       	mov	r25, r24
    2784:	89 81       	ldd	r24, Y+1	; 0x01
    2786:	89 2b       	or	r24, r25
    2788:	89 83       	std	Y+1, r24	; 0x01

uint8_t invert_binary_number(uint8_t number_to_invert){
	
	uint8_t out_num = 0;
	
	for (uint8_t it = 0 ; it < 8; it++){
    278a:	8a 81       	ldd	r24, Y+2	; 0x02
    278c:	8f 5f       	subi	r24, 0xFF	; 255
    278e:	8a 83       	std	Y+2, r24	; 0x02
    2790:	8a 81       	ldd	r24, Y+2	; 0x02
    2792:	88 30       	cpi	r24, 0x08	; 8
    2794:	d8 f2       	brcs	.-74     	; 0x274c <invert_binary_number+0x14>

		out_num |= ((number_to_invert>> it) & 1)<<(7-it);
		
	}
	return out_num;
    2796:	89 81       	ldd	r24, Y+1	; 0x01
    2798:	0f 90       	pop	r0
    279a:	0f 90       	pop	r0
    279c:	0f 90       	pop	r0
    279e:	df 91       	pop	r29
    27a0:	cf 91       	pop	r28
    27a2:	08 95       	ret

000027a4 <main>:
//extern uint16_t bms_min_temp;


/*	MAIN	*/
int main(void)
{
    27a4:	cf 93       	push	r28
    27a6:	df 93       	push	r29
    27a8:	cd b7       	in	r28, 0x3d	; 61
    27aa:	de b7       	in	r29, 0x3e	; 62
    27ac:	c1 55       	subi	r28, 0x51	; 81
    27ae:	d1 40       	sbci	r29, 0x01	; 1
    27b0:	0f b6       	in	r0, 0x3f	; 63
    27b2:	f8 94       	cli
    27b4:	de bf       	out	0x3e, r29	; 62
    27b6:	0f be       	out	0x3f, r0	; 63
    27b8:	cd bf       	out	0x3d, r28	; 61
	port_config();
    27ba:	90 d5       	rcall	.+2848   	; 0x32dc <port_config>
	init_display();
    27bc:	0e 94 d7 07 	call	0xfae	; 0xfae <init_display>
	display_definechars();
    27c0:	0e 94 a9 06 	call	0xd52	; 0xd52 <display_definechars>
	configure_spi_bus();
	sys_timer_config();
    27c4:	c3 d0       	rcall	.+390    	; 0x294c <configure_spi_bus>
    27c6:	00 d6       	rcall	.+3072   	; 0x33c8 <sys_timer_config>
	init_mobs();
    27c8:	0e 94 a8 00 	call	0x150	; 0x150 <init_mobs>
	can_cfg();
    27cc:	0e 94 e0 03 	call	0x7c0	; 0x7c0 <can_cfg>
	extern volatile unsigned long sys_time;
	extern volatile uint8_t draw_data;
	
	volatile unsigned long sys_time_old;
	
	uint8_t dsp = 0;
    27d0:	18 86       	std	Y+8, r1	; 0x08
	uint8_t time_10ms = 0;
    27d2:	19 82       	std	Y+1, r1	; 0x01
	uint8_t time_50ms = 0;
    27d4:	19 86       	std	Y+9, r1	; 0x09
	uint8_t error_ams = 2;
    27d6:	82 e0       	ldi	r24, 0x02	; 2
    27d8:	8a 87       	std	Y+10, r24	; 0x0a
	uint8_t activate_ams = 0;
    27da:	1b 86       	std	Y+11, r1	; 0x0b
	unsigned long time_300ms = 0;
    27dc:	1a 82       	std	Y+2, r1	; 0x02
    27de:	1b 82       	std	Y+3, r1	; 0x03
    27e0:	1c 82       	std	Y+4, r1	; 0x04
	
	sei();
	//this needs interrupts to be enabled
	configure_portextenders();
    27e2:	1d 82       	std	Y+5, r1	; 0x05
    27e4:	78 94       	sei
	pre_defined_led_colors(PE_OFF);
    27e6:	09 d2       	rcall	.+1042   	; 0x2bfa <configure_portextenders>
    27e8:	87 e0       	ldi	r24, 0x07	; 7
    27ea:	23 d2       	rcall	.+1094   	; 0x2c32 <pre_defined_led_colors>
	
	
	//dispaly state -> saves postitions and stuff
	struct DISPLAY_STATE display_state = get_empty_state();
    27ec:	0e 94 f5 05 	call	0xbea	; 0xbea <get_empty_state>
    27f0:	99 8b       	std	Y+17, r25	; 0x11
    27f2:	88 8b       	std	Y+16, r24	; 0x10
	
	//display pages holding data
	struct DISPLAY_PAGE dsp_startup = get_empty_display();
    27f4:	ce 01       	movw	r24, r28
    27f6:	42 96       	adiw	r24, 0x12	; 18
    27f8:	0e 94 03 06 	call	0xc06	; 0xc06 <get_empty_display>
	
	struct DISPLAY_PAGE dsp_voltage = get_empty_display();
    27fc:	ce 01       	movw	r24, r28
    27fe:	8e 59       	subi	r24, 0x9E	; 158
    2800:	9f 4f       	sbci	r25, 0xFF	; 255
    2802:	0e 94 03 06 	call	0xc06	; 0xc06 <get_empty_display>
	
	struct DISPLAY_PAGE dsp_temp = get_empty_display();
    2806:	ce 01       	movw	r24, r28
    2808:	8e 54       	subi	r24, 0x4E	; 78
    280a:	9f 4f       	sbci	r25, 0xFF	; 255
    280c:	0e 94 03 06 	call	0xc06	; 0xc06 <get_empty_display>
	
	struct DISPLAY_PAGE dsp_main = get_empty_display();
    2810:	ce 01       	movw	r24, r28
    2812:	8e 5f       	subi	r24, 0xFE	; 254
    2814:	9e 4f       	sbci	r25, 0xFE	; 254
    2816:	0e 94 03 06 	call	0xc06	; 0xc06 <get_empty_display>
	
	display_write_str(&dsp_startup, "   Baldig Resing    ",0,0);
    281a:	ce 01       	movw	r24, r28
    281c:	42 96       	adiw	r24, 0x12	; 18
    281e:	20 e0       	ldi	r18, 0x00	; 0
    2820:	40 e0       	ldi	r20, 0x00	; 0
    2822:	63 e0       	ldi	r22, 0x03	; 3
    2824:	72 e0       	ldi	r23, 0x02	; 2
    2826:	0e 94 81 07 	call	0xf02	; 0xf02 <display_write_str>
	display_write_str(&dsp_startup, "        .--.        ",1,0);
    282a:	ce 01       	movw	r24, r28
    282c:	42 96       	adiw	r24, 0x12	; 18
    282e:	20 e0       	ldi	r18, 0x00	; 0
    2830:	41 e0       	ldi	r20, 0x01	; 1
    2832:	68 e1       	ldi	r22, 0x18	; 24
    2834:	72 e0       	ldi	r23, 0x02	; 2
    2836:	0e 94 81 07 	call	0xf02	; 0xf02 <display_write_str>
	display_write_str(&dsp_startup, "   .----'   '--.    ",2,0);
    283a:	ce 01       	movw	r24, r28
    283c:	42 96       	adiw	r24, 0x12	; 18
    283e:	20 e0       	ldi	r18, 0x00	; 0
    2840:	42 e0       	ldi	r20, 0x02	; 2
    2842:	6d e2       	ldi	r22, 0x2D	; 45
    2844:	72 e0       	ldi	r23, 0x02	; 2
    2846:	0e 94 81 07 	call	0xf02	; 0xf02 <display_write_str>
	display_write_str(&dsp_startup, "   '-()-----()-'    ",3,0);
    284a:	ce 01       	movw	r24, r28
    284c:	42 96       	adiw	r24, 0x12	; 18
    284e:	20 e0       	ldi	r18, 0x00	; 0
    2850:	43 e0       	ldi	r20, 0x03	; 3
    2852:	62 e4       	ldi	r22, 0x42	; 66
    2854:	72 e0       	ldi	r23, 0x02	; 2
    2856:	0e 94 81 07 	call	0xf02	; 0xf02 <display_write_str>

	//Variable die das aktive Display hält!
	struct DISPLAY_PAGE *active_display = &dsp_startup;
    285a:	ce 01       	movw	r24, r28
    285c:	42 96       	adiw	r24, 0x12	; 18
    285e:	9f 83       	std	Y+7, r25	; 0x07
    2860:	8e 83       	std	Y+6, r24	; 0x06
	
	while (1)
	{
		if (draw_data){
    2862:	80 91 a1 02 	lds	r24, 0x02A1	; 0x8002a1 <draw_data>
    2866:	88 23       	and	r24, r24
    2868:	51 f0       	breq	.+20     	; 0x287e <main+0xda>
			draw_data = 0;
    286a:	10 92 a1 02 	sts	0x02A1, r1	; 0x8002a1 <draw_data>
			draw_char(active_display,&display_state);
    286e:	9e 01       	movw	r18, r28
    2870:	20 5f       	subi	r18, 0xF0	; 240
    2872:	3f 4f       	sbci	r19, 0xFF	; 255
    2874:	8e 81       	ldd	r24, Y+6	; 0x06
    2876:	9f 81       	ldd	r25, Y+7	; 0x07
    2878:	b9 01       	movw	r22, r18
    287a:	0e 94 93 05 	call	0xb26	; 0xb26 <draw_char>
			
		}
		if((sys_time - sys_time_old) >= 1){
    287e:	20 91 9d 02 	lds	r18, 0x029D	; 0x80029d <sys_time>
    2882:	30 91 9e 02 	lds	r19, 0x029E	; 0x80029e <sys_time+0x1>
    2886:	40 91 9f 02 	lds	r20, 0x029F	; 0x80029f <sys_time+0x2>
    288a:	50 91 a0 02 	lds	r21, 0x02A0	; 0x8002a0 <sys_time+0x3>
    288e:	8c 85       	ldd	r24, Y+12	; 0x0c
    2890:	9d 85       	ldd	r25, Y+13	; 0x0d
    2892:	ae 85       	ldd	r26, Y+14	; 0x0e
    2894:	bf 85       	ldd	r27, Y+15	; 0x0f
    2896:	28 17       	cp	r18, r24
    2898:	39 07       	cpc	r19, r25
    289a:	4a 07       	cpc	r20, r26
    289c:	5b 07       	cpc	r21, r27
    289e:	79 f0       	breq	.+30     	; 0x28be <main+0x11a>
			sys_time_old = sys_time;
    28a0:	80 91 9d 02 	lds	r24, 0x029D	; 0x80029d <sys_time>
    28a4:	90 91 9e 02 	lds	r25, 0x029E	; 0x80029e <sys_time+0x1>
    28a8:	a0 91 9f 02 	lds	r26, 0x029F	; 0x80029f <sys_time+0x2>
    28ac:	b0 91 a0 02 	lds	r27, 0x02A0	; 0x8002a0 <sys_time+0x3>
    28b0:	8c 87       	std	Y+12, r24	; 0x0c
    28b2:	9d 87       	std	Y+13, r25	; 0x0d
    28b4:	ae 87       	std	Y+14, r26	; 0x0e
    28b6:	bf 87       	std	Y+15, r27	; 0x0f
			time_10ms++;
    28b8:	89 81       	ldd	r24, Y+1	; 0x01
    28ba:	8f 5f       	subi	r24, 0xFF	; 255
    28bc:	89 83       	std	Y+1, r24	; 0x01
		}
		
		
		if (time_10ms > 9){
    28be:	89 81       	ldd	r24, Y+1	; 0x01
    28c0:	8a 30       	cpi	r24, 0x0A	; 10
    28c2:	28 f1       	brcs	.+74     	; 0x290e <main+0x16a>
			can_transmit();
    28c4:	0e 94 e8 01 	call	0x3d0	; 0x3d0 <can_transmit>
			can_receive();
    28c8:	0e 94 86 01 	call	0x30c	; 0x30c <can_receive>
			can_put_data();
    28cc:	0e 94 13 02 	call	0x426	; 0x426 <can_put_data>
			display_main(active_display);
    28d0:	8e 81       	ldd	r24, Y+6	; 0x06
    28d2:	9f 81       	ldd	r25, Y+7	; 0x07
    28d4:	0e 94 f6 07 	call	0xfec	; 0xfec <display_main>
			if(led_test == 1){
    28d8:	80 91 0b 01 	lds	r24, 0x010B	; 0x80010b <led_test>
    28dc:	81 30       	cpi	r24, 0x01	; 1
				bms_error(1);
    28de:	59 f4       	brne	.+22     	; 0x28f6 <main+0x152>
    28e0:	81 e0       	ldi	r24, 0x01	; 1
    28e2:	b0 d4       	rcall	.+2400   	; 0x3244 <bms_error>
				PORTA |= (1<<PA2);
    28e4:	82 e2       	ldi	r24, 0x22	; 34
    28e6:	90 e0       	ldi	r25, 0x00	; 0
    28e8:	22 e2       	ldi	r18, 0x22	; 34
    28ea:	30 e0       	ldi	r19, 0x00	; 0
    28ec:	f9 01       	movw	r30, r18
    28ee:	20 81       	ld	r18, Z
    28f0:	24 60       	ori	r18, 0x04	; 4
    28f2:	fc 01       	movw	r30, r24
    28f4:	20 83       	st	Z, r18
			}
			time_10ms = 0;
    28f6:	19 82       	std	Y+1, r1	; 0x01
			time_300ms++;
    28f8:	8a 81       	ldd	r24, Y+2	; 0x02
    28fa:	9b 81       	ldd	r25, Y+3	; 0x03
    28fc:	ac 81       	ldd	r26, Y+4	; 0x04
    28fe:	bd 81       	ldd	r27, Y+5	; 0x05
    2900:	01 96       	adiw	r24, 0x01	; 1
    2902:	a1 1d       	adc	r26, r1
    2904:	b1 1d       	adc	r27, r1
    2906:	8a 83       	std	Y+2, r24	; 0x02
    2908:	9b 83       	std	Y+3, r25	; 0x03
    290a:	ac 83       	std	Y+4, r26	; 0x04
    290c:	bd 83       	std	Y+5, r27	; 0x05
		}
		if(time_300ms > 299){
    290e:	8a 81       	ldd	r24, Y+2	; 0x02
    2910:	9b 81       	ldd	r25, Y+3	; 0x03
    2912:	ac 81       	ldd	r26, Y+4	; 0x04
    2914:	bd 81       	ldd	r27, Y+5	; 0x05
    2916:	8c 32       	cpi	r24, 0x2C	; 44
    2918:	91 40       	sbci	r25, 0x01	; 1
    291a:	a1 05       	cpc	r26, r1
    291c:	b1 05       	cpc	r27, r1
    291e:	08 f4       	brcc	.+2      	; 0x2922 <main+0x17e>
    2920:	a0 cf       	rjmp	.-192    	; 0x2862 <main+0xbe>
			active_display = &dsp_main;
    2922:	ce 01       	movw	r24, r28
    2924:	8e 5f       	subi	r24, 0xFE	; 254
    2926:	9e 4f       	sbci	r25, 0xFE	; 254
    2928:	9f 83       	std	Y+7, r25	; 0x07
    292a:	8e 83       	std	Y+6, r24	; 0x06
			led_test = 0;
    292c:	10 92 0b 01 	sts	0x010B, r1	; 0x80010b <led_test>
			PORTA &= ~(1<<PA2);
    2930:	82 e2       	ldi	r24, 0x22	; 34
    2932:	90 e0       	ldi	r25, 0x00	; 0
    2934:	22 e2       	ldi	r18, 0x22	; 34
    2936:	30 e0       	ldi	r19, 0x00	; 0
    2938:	f9 01       	movw	r30, r18
    293a:	20 81       	ld	r18, Z
    293c:	2b 7f       	andi	r18, 0xFB	; 251
    293e:	fc 01       	movw	r30, r24
    2940:	20 83       	st	Z, r18
		
			time_300ms=0;
    2942:	1a 82       	std	Y+2, r1	; 0x02
    2944:	1b 82       	std	Y+3, r1	; 0x03
    2946:	1c 82       	std	Y+4, r1	; 0x04
    2948:	1d 82       	std	Y+5, r1	; 0x05
		}
	}
    294a:	8b cf       	rjmp	.-234    	; 0x2862 <main+0xbe>

0000294c <configure_spi_bus>:
volatile uint8_t spi_state = 0;
volatile struct SPI_MSG current_msg;


// The following function configures the AT90CAN spi hardware
void configure_spi_bus(){
    294c:	cf 93       	push	r28
    294e:	df 93       	push	r29
    2950:	cd b7       	in	r28, 0x3d	; 61
    2952:	de b7       	in	r29, 0x3e	; 62
	
	//Lest bitte das nächste mal das Datenblatt...
	//Kapitel 16.2.2 vom AT90CAN Datenblatt
	DDRB |= (1<<PB0);
    2954:	84 e2       	ldi	r24, 0x24	; 36
    2956:	90 e0       	ldi	r25, 0x00	; 0
    2958:	24 e2       	ldi	r18, 0x24	; 36
    295a:	30 e0       	ldi	r19, 0x00	; 0
    295c:	f9 01       	movw	r30, r18
    295e:	20 81       	ld	r18, Z
    2960:	21 60       	ori	r18, 0x01	; 1
    2962:	fc 01       	movw	r30, r24
    2964:	20 83       	st	Z, r18
	
	// configure MOSI and SCK as Output
	//PB1 - SCK
	//PB2 - MOSI
	DDRB |= (1<<PB2)|(1<<PB1);
    2966:	84 e2       	ldi	r24, 0x24	; 36
    2968:	90 e0       	ldi	r25, 0x00	; 0
    296a:	24 e2       	ldi	r18, 0x24	; 36
    296c:	30 e0       	ldi	r19, 0x00	; 0
    296e:	f9 01       	movw	r30, r18
    2970:	20 81       	ld	r18, Z
    2972:	26 60       	ori	r18, 0x06	; 6
    2974:	fc 01       	movw	r30, r24
    2976:	20 83       	st	Z, r18
	//Enable SPI, SPI Interrupts and select Master Mode
	SPCR = 0|(1<<SPE)|(1<<SPIE)|(1<<MSTR);
    2978:	8c e4       	ldi	r24, 0x4C	; 76
    297a:	90 e0       	ldi	r25, 0x00	; 0
    297c:	20 ed       	ldi	r18, 0xD0	; 208
    297e:	fc 01       	movw	r30, r24
    2980:	20 83       	st	Z, r18
	//SET CLOCK PRESCALER to / 16
	//CLK ~ 1MHz
	SPCR |= (1<<SPR0);
    2982:	8c e4       	ldi	r24, 0x4C	; 76
    2984:	90 e0       	ldi	r25, 0x00	; 0
    2986:	2c e4       	ldi	r18, 0x4C	; 76
    2988:	30 e0       	ldi	r19, 0x00	; 0
    298a:	f9 01       	movw	r30, r18
    298c:	20 81       	ld	r18, Z
    298e:	21 60       	ori	r18, 0x01	; 1
    2990:	fc 01       	movw	r30, r24
    2992:	20 83       	st	Z, r18
	
	//mark CS Pins as Output
	DDRA |= (1<<PA3);
    2994:	81 e2       	ldi	r24, 0x21	; 33
    2996:	90 e0       	ldi	r25, 0x00	; 0
    2998:	21 e2       	ldi	r18, 0x21	; 33
    299a:	30 e0       	ldi	r19, 0x00	; 0
    299c:	f9 01       	movw	r30, r18
    299e:	20 81       	ld	r18, Z
    29a0:	28 60       	ori	r18, 0x08	; 8
    29a2:	fc 01       	movw	r30, r24
    29a4:	20 83       	st	Z, r18
	DDRB |= (1<<PB7);
    29a6:	84 e2       	ldi	r24, 0x24	; 36
    29a8:	90 e0       	ldi	r25, 0x00	; 0
    29aa:	24 e2       	ldi	r18, 0x24	; 36
    29ac:	30 e0       	ldi	r19, 0x00	; 0
    29ae:	f9 01       	movw	r30, r18
    29b0:	20 81       	ld	r18, Z
    29b2:	20 68       	ori	r18, 0x80	; 128
    29b4:	fc 01       	movw	r30, r24
    29b6:	20 83       	st	Z, r18
	//THE CS ARE ACTIVE LOW -> PULLING THEM HIGH!
	DIS_CS_LEFT
    29b8:	82 e2       	ldi	r24, 0x22	; 34
    29ba:	90 e0       	ldi	r25, 0x00	; 0
    29bc:	22 e2       	ldi	r18, 0x22	; 34
    29be:	30 e0       	ldi	r19, 0x00	; 0
    29c0:	f9 01       	movw	r30, r18
    29c2:	20 81       	ld	r18, Z
    29c4:	28 60       	ori	r18, 0x08	; 8
    29c6:	fc 01       	movw	r30, r24
    29c8:	20 83       	st	Z, r18
	DIS_CS_LEFT
    29ca:	82 e2       	ldi	r24, 0x22	; 34
    29cc:	90 e0       	ldi	r25, 0x00	; 0
    29ce:	22 e2       	ldi	r18, 0x22	; 34
    29d0:	30 e0       	ldi	r19, 0x00	; 0
    29d2:	f9 01       	movw	r30, r18
    29d4:	20 81       	ld	r18, Z
    29d6:	28 60       	ori	r18, 0x08	; 8
    29d8:	fc 01       	movw	r30, r24
    29da:	20 83       	st	Z, r18
		
}
    29dc:	00 00       	nop
    29de:	df 91       	pop	r29
    29e0:	cf 91       	pop	r28
    29e2:	08 95       	ret

000029e4 <spi_free>:

// the following function checks if we completed our SPI Data Transfer
// 1 means busy
// 0 mens we are done!
uint8_t spi_free(){
    29e4:	cf 93       	push	r28
    29e6:	df 93       	push	r29
    29e8:	cd b7       	in	r28, 0x3d	; 61
    29ea:	de b7       	in	r29, 0x3e	; 62
	
	if(spi_state == 0){
    29ec:	80 91 9c 02 	lds	r24, 0x029C	; 0x80029c <spi_state>
    29f0:	88 23       	and	r24, r24
    29f2:	11 f4       	brne	.+4      	; 0x29f8 <spi_free+0x14>
		return 1;
    29f4:	81 e0       	ldi	r24, 0x01	; 1
    29f6:	01 c0       	rjmp	.+2      	; 0x29fa <spi_free+0x16>
	}
	return 0;
    29f8:	80 e0       	ldi	r24, 0x00	; 0
	
}
    29fa:	df 91       	pop	r29
    29fc:	cf 91       	pop	r28
    29fe:	08 95       	ret

00002a00 <send_data>:

// address is for the 2 bytes of possible Address pins
void send_data(enum portextender extender, uint8_t control, uint8_t reg, uint8_t data){
    2a00:	cf 93       	push	r28
    2a02:	df 93       	push	r29
    2a04:	00 d0       	rcall	.+0      	; 0x2a06 <send_data+0x6>
    2a06:	00 d0       	rcall	.+0      	; 0x2a08 <send_data+0x8>
    2a08:	cd b7       	in	r28, 0x3d	; 61
    2a0a:	de b7       	in	r29, 0x3e	; 62
    2a0c:	89 83       	std	Y+1, r24	; 0x01
    2a0e:	6a 83       	std	Y+2, r22	; 0x02
    2a10:	4b 83       	std	Y+3, r20	; 0x03
    2a12:	2c 83       	std	Y+4, r18	; 0x04
	
	current_msg.selected_extender = extender;
    2a14:	89 81       	ldd	r24, Y+1	; 0x01
    2a16:	80 93 4a 03 	sts	0x034A, r24	; 0x80034a <current_msg>
	current_msg.register_addr = reg;
    2a1a:	8b 81       	ldd	r24, Y+3	; 0x03
    2a1c:	80 93 4c 03 	sts	0x034C, r24	; 0x80034c <current_msg+0x2>
	current_msg.control_byte = control;
    2a20:	8a 81       	ldd	r24, Y+2	; 0x02
    2a22:	80 93 4b 03 	sts	0x034B, r24	; 0x80034b <current_msg+0x1>
	current_msg.data = data;
    2a26:	8c 81       	ldd	r24, Y+4	; 0x04
    2a28:	80 93 4d 03 	sts	0x034D, r24	; 0x80034d <current_msg+0x3>
	
	spi_state = 1;
    2a2c:	81 e0       	ldi	r24, 0x01	; 1
    2a2e:	80 93 9c 02 	sts	0x029C, r24	; 0x80029c <spi_state>
	
	//set chip select!
	
	//Write the control byte into the SPI Data Register
	switch(extender){
    2a32:	89 81       	ldd	r24, Y+1	; 0x01
    2a34:	88 2f       	mov	r24, r24
    2a36:	90 e0       	ldi	r25, 0x00	; 0
    2a38:	00 97       	sbiw	r24, 0x00	; 0
    2a3a:	19 f0       	breq	.+6      	; 0x2a42 <send_data+0x42>
    2a3c:	01 97       	sbiw	r24, 0x01	; 1
    2a3e:	a1 f0       	breq	.+40     	; 0x2a68 <send_data+0x68>
    2a40:	26 c0       	rjmp	.+76     	; 0x2a8e <send_data+0x8e>
		case RGB_LEFT:
			EN_CS_LEFT
    2a42:	82 e2       	ldi	r24, 0x22	; 34
    2a44:	90 e0       	ldi	r25, 0x00	; 0
    2a46:	22 e2       	ldi	r18, 0x22	; 34
    2a48:	30 e0       	ldi	r19, 0x00	; 0
    2a4a:	f9 01       	movw	r30, r18
    2a4c:	20 81       	ld	r18, Z
    2a4e:	27 7f       	andi	r18, 0xF7	; 247
    2a50:	fc 01       	movw	r30, r24
    2a52:	20 83       	st	Z, r18
			//make sure chip select for the right is off
			DIS_CS_RIGHT
    2a54:	85 e2       	ldi	r24, 0x25	; 37
    2a56:	90 e0       	ldi	r25, 0x00	; 0
    2a58:	25 e2       	ldi	r18, 0x25	; 37
    2a5a:	30 e0       	ldi	r19, 0x00	; 0
    2a5c:	f9 01       	movw	r30, r18
    2a5e:	20 81       	ld	r18, Z
    2a60:	20 68       	ori	r18, 0x80	; 128
    2a62:	fc 01       	movw	r30, r24
    2a64:	20 83       	st	Z, r18
			break;
    2a66:	13 c0       	rjmp	.+38     	; 0x2a8e <send_data+0x8e>
		case RGB_RIGHT:
			EN_CS_RIGHT
    2a68:	85 e2       	ldi	r24, 0x25	; 37
    2a6a:	90 e0       	ldi	r25, 0x00	; 0
    2a6c:	25 e2       	ldi	r18, 0x25	; 37
    2a6e:	30 e0       	ldi	r19, 0x00	; 0
    2a70:	f9 01       	movw	r30, r18
    2a72:	20 81       	ld	r18, Z
    2a74:	2f 77       	andi	r18, 0x7F	; 127
    2a76:	fc 01       	movw	r30, r24
    2a78:	20 83       	st	Z, r18
			//make sure chip select for the left is off
			DIS_CS_LEFT
    2a7a:	82 e2       	ldi	r24, 0x22	; 34
    2a7c:	90 e0       	ldi	r25, 0x00	; 0
    2a7e:	22 e2       	ldi	r18, 0x22	; 34
    2a80:	30 e0       	ldi	r19, 0x00	; 0
    2a82:	f9 01       	movw	r30, r18
    2a84:	20 81       	ld	r18, Z
    2a86:	28 60       	ori	r18, 0x08	; 8
    2a88:	fc 01       	movw	r30, r24
    2a8a:	20 83       	st	Z, r18
			break;
    2a8c:	00 00       	nop
	}
	SPDR = control;
    2a8e:	8e e4       	ldi	r24, 0x4E	; 78
    2a90:	90 e0       	ldi	r25, 0x00	; 0
    2a92:	2a 81       	ldd	r18, Y+2	; 0x02
    2a94:	fc 01       	movw	r30, r24
    2a96:	20 83       	st	Z, r18
	
};
    2a98:	00 00       	nop
    2a9a:	0f 90       	pop	r0
    2a9c:	0f 90       	pop	r0
    2a9e:	0f 90       	pop	r0
    2aa0:	0f 90       	pop	r0
    2aa2:	df 91       	pop	r29
    2aa4:	cf 91       	pop	r28
    2aa6:	08 95       	ret

00002aa8 <send_data_blocking>:

void send_data_blocking(enum portextender extender, uint8_t control, uint8_t reg, uint8_t data){
    2aa8:	cf 93       	push	r28
    2aaa:	df 93       	push	r29
    2aac:	00 d0       	rcall	.+0      	; 0x2aae <send_data_blocking+0x6>
    2aae:	00 d0       	rcall	.+0      	; 0x2ab0 <send_data_blocking+0x8>
    2ab0:	1f 92       	push	r1
    2ab2:	cd b7       	in	r28, 0x3d	; 61
    2ab4:	de b7       	in	r29, 0x3e	; 62
    2ab6:	8a 83       	std	Y+2, r24	; 0x02
    2ab8:	6b 83       	std	Y+3, r22	; 0x03
    2aba:	4c 83       	std	Y+4, r20	; 0x04
    2abc:	2d 83       	std	Y+5, r18	; 0x05
	//wait until the bus is free
	while (!spi_free()){
    2abe:	09 c0       	rjmp	.+18     	; 0x2ad2 <send_data_blocking+0x2a>
		//wait for some time
		WASTE_CPU_TIME
    2ac0:	8f ef       	ldi	r24, 0xFF	; 255
    2ac2:	89 83       	std	Y+1, r24	; 0x01
    2ac4:	03 c0       	rjmp	.+6      	; 0x2acc <send_data_blocking+0x24>
    2ac6:	89 81       	ldd	r24, Y+1	; 0x01
    2ac8:	81 50       	subi	r24, 0x01	; 1
    2aca:	89 83       	std	Y+1, r24	; 0x01
    2acc:	89 81       	ldd	r24, Y+1	; 0x01
    2ace:	88 23       	and	r24, r24
    2ad0:	d1 f7       	brne	.-12     	; 0x2ac6 <send_data_blocking+0x1e>
	
};

void send_data_blocking(enum portextender extender, uint8_t control, uint8_t reg, uint8_t data){
	//wait until the bus is free
	while (!spi_free()){
    2ad2:	88 df       	rcall	.-240    	; 0x29e4 <spi_free>
    2ad4:	88 23       	and	r24, r24
    2ad6:	a1 f3       	breq	.-24     	; 0x2ac0 <send_data_blocking+0x18>
		//wait for some time
		WASTE_CPU_TIME
	}
	send_data(extender,control,reg,data);
    2ad8:	2d 81       	ldd	r18, Y+5	; 0x05
    2ada:	4c 81       	ldd	r20, Y+4	; 0x04
    2adc:	6b 81       	ldd	r22, Y+3	; 0x03
    2ade:	8a 81       	ldd	r24, Y+2	; 0x02
    2ae0:	8f df       	rcall	.-226    	; 0x2a00 <send_data>
};
    2ae2:	00 00       	nop
    2ae4:	0f 90       	pop	r0
    2ae6:	0f 90       	pop	r0
    2ae8:	0f 90       	pop	r0
    2aea:	0f 90       	pop	r0
    2aec:	0f 90       	pop	r0
    2aee:	df 91       	pop	r29
    2af0:	cf 91       	pop	r28
    2af2:	08 95       	ret

00002af4 <extender_leds>:

void extender_leds(enum portextender extender, uint8_t data){
    2af4:	cf 93       	push	r28
    2af6:	df 93       	push	r29
    2af8:	00 d0       	rcall	.+0      	; 0x2afa <extender_leds+0x6>
    2afa:	cd b7       	in	r28, 0x3d	; 61
    2afc:	de b7       	in	r29, 0x3e	; 62
    2afe:	89 83       	std	Y+1, r24	; 0x01
    2b00:	6a 83       	std	Y+2, r22	; 0x02
	
	send_data(extender,0b01000000,PE_OLAT,~data);
    2b02:	8a 81       	ldd	r24, Y+2	; 0x02
    2b04:	80 95       	com	r24
    2b06:	28 2f       	mov	r18, r24
    2b08:	4a e0       	ldi	r20, 0x0A	; 10
    2b0a:	60 e4       	ldi	r22, 0x40	; 64
    2b0c:	89 81       	ldd	r24, Y+1	; 0x01
    2b0e:	78 df       	rcall	.-272    	; 0x2a00 <send_data>
};
    2b10:	00 00       	nop
    2b12:	0f 90       	pop	r0
    2b14:	0f 90       	pop	r0
    2b16:	df 91       	pop	r29
    2b18:	cf 91       	pop	r28
    2b1a:	08 95       	ret

00002b1c <extender_leds_blocking>:

void extender_leds_blocking(enum portextender extender, uint8_t data){
    2b1c:	cf 93       	push	r28
    2b1e:	df 93       	push	r29
    2b20:	00 d0       	rcall	.+0      	; 0x2b22 <extender_leds_blocking+0x6>
    2b22:	cd b7       	in	r28, 0x3d	; 61
    2b24:	de b7       	in	r29, 0x3e	; 62
    2b26:	89 83       	std	Y+1, r24	; 0x01
    2b28:	6a 83       	std	Y+2, r22	; 0x02
	send_data_blocking(extender,0b01000000,PE_OLAT,~data);
    2b2a:	8a 81       	ldd	r24, Y+2	; 0x02
    2b2c:	80 95       	com	r24
    2b2e:	28 2f       	mov	r18, r24
    2b30:	4a e0       	ldi	r20, 0x0A	; 10
    2b32:	60 e4       	ldi	r22, 0x40	; 64
    2b34:	89 81       	ldd	r24, Y+1	; 0x01
    2b36:	b8 df       	rcall	.-144    	; 0x2aa8 <send_data_blocking>
}
    2b38:	00 00       	nop
    2b3a:	0f 90       	pop	r0
    2b3c:	0f 90       	pop	r0
    2b3e:	df 91       	pop	r29
    2b40:	cf 91       	pop	r28
    2b42:	08 95       	ret

00002b44 <__vector_20>:

ISR(SPI_STC_vect){
    2b44:	1f 92       	push	r1
    2b46:	0f 92       	push	r0
    2b48:	00 90 5f 00 	lds	r0, 0x005F	; 0x80005f <__TEXT_REGION_LENGTH__+0x7e005f>
    2b4c:	0f 92       	push	r0
    2b4e:	11 24       	eor	r1, r1
    2b50:	00 90 5b 00 	lds	r0, 0x005B	; 0x80005b <__TEXT_REGION_LENGTH__+0x7e005b>
    2b54:	0f 92       	push	r0
    2b56:	2f 93       	push	r18
    2b58:	3f 93       	push	r19
    2b5a:	8f 93       	push	r24
    2b5c:	9f 93       	push	r25
    2b5e:	ef 93       	push	r30
    2b60:	ff 93       	push	r31
    2b62:	cf 93       	push	r28
    2b64:	df 93       	push	r29
    2b66:	cd b7       	in	r28, 0x3d	; 61
    2b68:	de b7       	in	r29, 0x3e	; 62
	switch (spi_state){
    2b6a:	80 91 9c 02 	lds	r24, 0x029C	; 0x80029c <spi_state>
    2b6e:	88 2f       	mov	r24, r24
    2b70:	90 e0       	ldi	r25, 0x00	; 0
    2b72:	82 30       	cpi	r24, 0x02	; 2
    2b74:	91 05       	cpc	r25, r1
    2b76:	81 f0       	breq	.+32     	; 0x2b98 <__vector_20+0x54>
    2b78:	83 30       	cpi	r24, 0x03	; 3
    2b7a:	91 05       	cpc	r25, r1
    2b7c:	b9 f0       	breq	.+46     	; 0x2bac <__vector_20+0x68>
    2b7e:	01 97       	sbiw	r24, 0x01	; 1
    2b80:	09 f0       	breq	.+2      	; 0x2b84 <__vector_20+0x40>
			//set spi state to 0
			spi_state = 0;
			break;
	}
	
}
    2b82:	29 c0       	rjmp	.+82     	; 0x2bd6 <__vector_20+0x92>
ISR(SPI_STC_vect){
	switch (spi_state){
		case 1:
			//control byte was send!
			//send register
			SPDR = current_msg.register_addr;
    2b84:	8e e4       	ldi	r24, 0x4E	; 78
    2b86:	90 e0       	ldi	r25, 0x00	; 0
    2b88:	20 91 4c 03 	lds	r18, 0x034C	; 0x80034c <current_msg+0x2>
    2b8c:	fc 01       	movw	r30, r24
    2b8e:	20 83       	st	Z, r18
			//update SPI State			
			spi_state = 2;
    2b90:	82 e0       	ldi	r24, 0x02	; 2
    2b92:	80 93 9c 02 	sts	0x029C, r24	; 0x80029c <spi_state>
			break;
    2b96:	1f c0       	rjmp	.+62     	; 0x2bd6 <__vector_20+0x92>
		case 2:
			//register was send
			//send data
			SPDR = current_msg.data;
    2b98:	8e e4       	ldi	r24, 0x4E	; 78
    2b9a:	90 e0       	ldi	r25, 0x00	; 0
    2b9c:	20 91 4d 03 	lds	r18, 0x034D	; 0x80034d <current_msg+0x3>
    2ba0:	fc 01       	movw	r30, r24
    2ba2:	20 83       	st	Z, r18
			//update SPI State
			spi_state = 3;
    2ba4:	83 e0       	ldi	r24, 0x03	; 3
    2ba6:	80 93 9c 02 	sts	0x029C, r24	; 0x80029c <spi_state>
			break;
    2baa:	15 c0       	rjmp	.+42     	; 0x2bd6 <__vector_20+0x92>
		case 3:
			//data was send
			//disable chip selects
			DIS_CS_RIGHT
    2bac:	85 e2       	ldi	r24, 0x25	; 37
    2bae:	90 e0       	ldi	r25, 0x00	; 0
    2bb0:	25 e2       	ldi	r18, 0x25	; 37
    2bb2:	30 e0       	ldi	r19, 0x00	; 0
    2bb4:	f9 01       	movw	r30, r18
    2bb6:	20 81       	ld	r18, Z
    2bb8:	20 68       	ori	r18, 0x80	; 128
    2bba:	fc 01       	movw	r30, r24
    2bbc:	20 83       	st	Z, r18
			DIS_CS_LEFT
    2bbe:	82 e2       	ldi	r24, 0x22	; 34
    2bc0:	90 e0       	ldi	r25, 0x00	; 0
    2bc2:	22 e2       	ldi	r18, 0x22	; 34
    2bc4:	30 e0       	ldi	r19, 0x00	; 0
    2bc6:	f9 01       	movw	r30, r18
    2bc8:	20 81       	ld	r18, Z
    2bca:	28 60       	ori	r18, 0x08	; 8
    2bcc:	fc 01       	movw	r30, r24
    2bce:	20 83       	st	Z, r18
			//set spi state to 0
			spi_state = 0;
    2bd0:	10 92 9c 02 	sts	0x029C, r1	; 0x80029c <spi_state>
			break;
    2bd4:	00 00       	nop
	}
	
}
    2bd6:	00 00       	nop
    2bd8:	df 91       	pop	r29
    2bda:	cf 91       	pop	r28
    2bdc:	ff 91       	pop	r31
    2bde:	ef 91       	pop	r30
    2be0:	9f 91       	pop	r25
    2be2:	8f 91       	pop	r24
    2be4:	3f 91       	pop	r19
    2be6:	2f 91       	pop	r18
    2be8:	0f 90       	pop	r0
    2bea:	00 92 5b 00 	sts	0x005B, r0	; 0x80005b <__TEXT_REGION_LENGTH__+0x7e005b>
    2bee:	0f 90       	pop	r0
    2bf0:	00 92 5f 00 	sts	0x005F, r0	; 0x80005f <__TEXT_REGION_LENGTH__+0x7e005f>
    2bf4:	0f 90       	pop	r0
    2bf6:	1f 90       	pop	r1
    2bf8:	18 95       	reti

00002bfa <configure_portextenders>:

void configure_portextenders(){
    2bfa:	cf 93       	push	r28
    2bfc:	df 93       	push	r29
    2bfe:	cd b7       	in	r28, 0x3d	; 61
    2c00:	de b7       	in	r29, 0x3e	; 62
	
	//mark all pins as output
	send_data_blocking(RGB_LEFT,0b01000100,PE_IODIR,0x00);
    2c02:	20 e0       	ldi	r18, 0x00	; 0
    2c04:	40 e0       	ldi	r20, 0x00	; 0
    2c06:	64 e4       	ldi	r22, 0x44	; 68
    2c08:	80 e0       	ldi	r24, 0x00	; 0
    2c0a:	4e df       	rcall	.-356    	; 0x2aa8 <send_data_blocking>
	send_data_blocking(RGB_RIGHT,0b01000010,PE_IODIR,0x00);
    2c0c:	20 e0       	ldi	r18, 0x00	; 0
    2c0e:	40 e0       	ldi	r20, 0x00	; 0
    2c10:	62 e4       	ldi	r22, 0x42	; 66
    2c12:	81 e0       	ldi	r24, 0x01	; 1
    2c14:	49 df       	rcall	.-366    	; 0x2aa8 <send_data_blocking>

	//disable HA Pins...
	send_data_blocking(RGB_LEFT,0b01000100,PE_IOCON,0);
    2c16:	20 e0       	ldi	r18, 0x00	; 0
    2c18:	45 e0       	ldi	r20, 0x05	; 5
    2c1a:	64 e4       	ldi	r22, 0x44	; 68
    2c1c:	80 e0       	ldi	r24, 0x00	; 0
    2c1e:	44 df       	rcall	.-376    	; 0x2aa8 <send_data_blocking>
	send_data_blocking(RGB_RIGHT,0b01000010,PE_IOCON,0);
    2c20:	20 e0       	ldi	r18, 0x00	; 0
    2c22:	45 e0       	ldi	r20, 0x05	; 5
    2c24:	62 e4       	ldi	r22, 0x42	; 66
    2c26:	81 e0       	ldi	r24, 0x01	; 1
    2c28:	3f df       	rcall	.-386    	; 0x2aa8 <send_data_blocking>
    2c2a:	00 00       	nop
}
    2c2c:	df 91       	pop	r29
    2c2e:	cf 91       	pop	r28
    2c30:	08 95       	ret

00002c32 <pre_defined_led_colors>:
    2c32:	cf 93       	push	r28

void pre_defined_led_colors(enum led_color color){
    2c34:	df 93       	push	r29
    2c36:	1f 92       	push	r1
    2c38:	cd b7       	in	r28, 0x3d	; 61
    2c3a:	de b7       	in	r29, 0x3e	; 62
    2c3c:	89 83       	std	Y+1, r24	; 0x01
    2c3e:	89 81       	ldd	r24, Y+1	; 0x01
	switch(color){
    2c40:	88 2f       	mov	r24, r24
    2c42:	90 e0       	ldi	r25, 0x00	; 0
    2c44:	09 2e       	mov	r0, r25
    2c46:	00 0c       	add	r0, r0
    2c48:	aa 0b       	sbc	r26, r26
    2c4a:	bb 0b       	sbc	r27, r27
    2c4c:	40 e0       	ldi	r20, 0x00	; 0
    2c4e:	50 e0       	ldi	r21, 0x00	; 0
    2c50:	27 e0       	ldi	r18, 0x07	; 7
    2c52:	30 e0       	ldi	r19, 0x00	; 0
    2c54:	84 1b       	sub	r24, r20
    2c56:	95 0b       	sbc	r25, r21
    2c58:	28 17       	cp	r18, r24
    2c5a:	39 07       	cpc	r19, r25
    2c5c:	08 f4       	brcc	.+2      	; 0x2c60 <pre_defined_led_colors+0x2e>
    2c5e:	3c c0       	rjmp	.+120    	; 0x2cd8 <pre_defined_led_colors+0xa6>
    2c60:	8e 59       	subi	r24, 0x9E	; 158
    2c62:	9f 4f       	sbci	r25, 0xFF	; 255
    2c64:	fc 01       	movw	r30, r24
		case PE_RED:
			extender_leds_blocking(RGB_LEFT,0|(1<<F_RED)|(1<<R_RED));
    2c66:	0e c4       	rjmp	.+2076   	; 0x3484 <__tablejump2__>
    2c68:	69 e0       	ldi	r22, 0x09	; 9
    2c6a:	80 e0       	ldi	r24, 0x00	; 0
			extender_leds_blocking(RGB_RIGHT,0|(1<<F_RED)|(1<<R_RED));
    2c6c:	57 df       	rcall	.-338    	; 0x2b1c <extender_leds_blocking>
    2c6e:	69 e0       	ldi	r22, 0x09	; 9
    2c70:	81 e0       	ldi	r24, 0x01	; 1
			break;
    2c72:	54 df       	rcall	.-344    	; 0x2b1c <extender_leds_blocking>
		case PE_GREEN:
			extender_leds_blocking(RGB_LEFT,0|(1<<F_GREEN)|(1<<R_GREEN));
    2c74:	31 c0       	rjmp	.+98     	; 0x2cd8 <pre_defined_led_colors+0xa6>
    2c76:	66 e0       	ldi	r22, 0x06	; 6
    2c78:	80 e0       	ldi	r24, 0x00	; 0
			extender_leds_blocking(RGB_RIGHT,0|(1<<F_GREEN)|(1<<R_GREEN));
    2c7a:	50 df       	rcall	.-352    	; 0x2b1c <extender_leds_blocking>
    2c7c:	66 e0       	ldi	r22, 0x06	; 6
    2c7e:	81 e0       	ldi	r24, 0x01	; 1
			break;
		case PE_BLUE:
			extender_leds_blocking(RGB_LEFT,0|(1<<F_BLUE)|(1<<R_BLUE));
    2c80:	4d df       	rcall	.-358    	; 0x2b1c <extender_leds_blocking>
    2c82:	2a c0       	rjmp	.+84     	; 0x2cd8 <pre_defined_led_colors+0xa6>
    2c84:	60 e3       	ldi	r22, 0x30	; 48
			extender_leds_blocking(RGB_RIGHT,0|(1<<F_BLUE)|(1<<R_BLUE));
    2c86:	80 e0       	ldi	r24, 0x00	; 0
    2c88:	49 df       	rcall	.-366    	; 0x2b1c <extender_leds_blocking>
    2c8a:	60 e3       	ldi	r22, 0x30	; 48
			break;
    2c8c:	81 e0       	ldi	r24, 0x01	; 1
		case PE_PURPLE:
			extender_leds_blocking(RGB_LEFT,0|(1<<F_BLUE)|(1<<R_BLUE)|(1<<R_RED)|(1<<F_RED));
    2c8e:	46 df       	rcall	.-372    	; 0x2b1c <extender_leds_blocking>
    2c90:	23 c0       	rjmp	.+70     	; 0x2cd8 <pre_defined_led_colors+0xa6>
    2c92:	69 e3       	ldi	r22, 0x39	; 57
			extender_leds_blocking(RGB_RIGHT,0|(1<<F_BLUE)|(1<<R_BLUE)|(1<<R_RED)|(1<<F_RED));
    2c94:	80 e0       	ldi	r24, 0x00	; 0
    2c96:	42 df       	rcall	.-380    	; 0x2b1c <extender_leds_blocking>
    2c98:	69 e3       	ldi	r22, 0x39	; 57
			break;
		case PE_LIGHTBLUE:
			extender_leds_blocking(RGB_LEFT,0|(1<<F_GREEN)|(1<<R_GREEN)|(1<<R_BLUE)|(1<<F_BLUE));
    2c9a:	81 e0       	ldi	r24, 0x01	; 1
    2c9c:	3f df       	rcall	.-386    	; 0x2b1c <extender_leds_blocking>
    2c9e:	1c c0       	rjmp	.+56     	; 0x2cd8 <pre_defined_led_colors+0xa6>
			extender_leds_blocking(RGB_RIGHT,0|(1<<F_GREEN)|(1<<R_GREEN)|(1<<R_BLUE)|(1<<F_BLUE));
    2ca0:	66 e3       	ldi	r22, 0x36	; 54
    2ca2:	80 e0       	ldi	r24, 0x00	; 0
    2ca4:	3b df       	rcall	.-394    	; 0x2b1c <extender_leds_blocking>
			break;
    2ca6:	66 e3       	ldi	r22, 0x36	; 54
		case PE_WHITE:
			extender_leds_blocking(RGB_LEFT,0xff);
    2ca8:	81 e0       	ldi	r24, 0x01	; 1
    2caa:	38 df       	rcall	.-400    	; 0x2b1c <extender_leds_blocking>
    2cac:	15 c0       	rjmp	.+42     	; 0x2cd8 <pre_defined_led_colors+0xa6>
			extender_leds_blocking(RGB_RIGHT,0xff);
    2cae:	6f ef       	ldi	r22, 0xFF	; 255
    2cb0:	80 e0       	ldi	r24, 0x00	; 0
    2cb2:	34 df       	rcall	.-408    	; 0x2b1c <extender_leds_blocking>
    2cb4:	6f ef       	ldi	r22, 0xFF	; 255
			break;
    2cb6:	81 e0       	ldi	r24, 0x01	; 1
		case PE_OFF:
			extender_leds_blocking(RGB_LEFT,0);
    2cb8:	31 df       	rcall	.-414    	; 0x2b1c <extender_leds_blocking>
    2cba:	0e c0       	rjmp	.+28     	; 0x2cd8 <pre_defined_led_colors+0xa6>
    2cbc:	60 e0       	ldi	r22, 0x00	; 0
    2cbe:	80 e0       	ldi	r24, 0x00	; 0
			extender_leds_blocking(RGB_RIGHT,0);
    2cc0:	2d df       	rcall	.-422    	; 0x2b1c <extender_leds_blocking>
    2cc2:	60 e0       	ldi	r22, 0x00	; 0
    2cc4:	81 e0       	ldi	r24, 0x01	; 1
    2cc6:	2a df       	rcall	.-428    	; 0x2b1c <extender_leds_blocking>
			break;
    2cc8:	07 c0       	rjmp	.+14     	; 0x2cd8 <pre_defined_led_colors+0xa6>
		case PE_AMBER:
			extender_leds_blocking(RGB_LEFT,0|(1<<F_GREEN)|(1<<R_GREEN)|(1<<R_RED)|(1<<F_RED));
    2cca:	6f e0       	ldi	r22, 0x0F	; 15
    2ccc:	80 e0       	ldi	r24, 0x00	; 0
    2cce:	26 df       	rcall	.-436    	; 0x2b1c <extender_leds_blocking>
    2cd0:	6f e0       	ldi	r22, 0x0F	; 15
			extender_leds_blocking(RGB_RIGHT,0|(1<<F_GREEN)|(1<<R_GREEN)|(1<<R_RED)|(1<<F_RED));
    2cd2:	81 e0       	ldi	r24, 0x01	; 1
    2cd4:	23 df       	rcall	.-442    	; 0x2b1c <extender_leds_blocking>
    2cd6:	00 00       	nop
    2cd8:	00 00       	nop
			break;
    2cda:	0f 90       	pop	r0
	}

}
    2cdc:	df 91       	pop	r29
    2cde:	cf 91       	pop	r28
    2ce0:	08 95       	ret

00002ce2 <clear_top_left_bar>:
    2ce2:	cf 93       	push	r28
    2ce4:	df 93       	push	r29


//This Function turns off the left Top Bar
void clear_top_left_bar(void)
{
    2ce6:	cd b7       	in	r28, 0x3d	; 61
    2ce8:	de b7       	in	r29, 0x3e	; 62
    2cea:	82 e2       	ldi	r24, 0x22	; 34
    2cec:	90 e0       	ldi	r25, 0x00	; 0
	PORTA &= ~(1<<PA4) & ~(1<<PA5) & ~(1<<PA6) & ~(1<<PA7);
    2cee:	22 e2       	ldi	r18, 0x22	; 34
    2cf0:	30 e0       	ldi	r19, 0x00	; 0
    2cf2:	f9 01       	movw	r30, r18
    2cf4:	20 81       	ld	r18, Z
    2cf6:	2f 70       	andi	r18, 0x0F	; 15
    2cf8:	fc 01       	movw	r30, r24
    2cfa:	20 83       	st	Z, r18
    2cfc:	84 e3       	ldi	r24, 0x34	; 52
    2cfe:	90 e0       	ldi	r25, 0x00	; 0
	PORTG &= ~(1<<PG2);
    2d00:	24 e3       	ldi	r18, 0x34	; 52
    2d02:	30 e0       	ldi	r19, 0x00	; 0
    2d04:	f9 01       	movw	r30, r18
    2d06:	20 81       	ld	r18, Z
    2d08:	2b 7f       	andi	r18, 0xFB	; 251
    2d0a:	fc 01       	movw	r30, r24
    2d0c:	20 83       	st	Z, r18
    2d0e:	00 00       	nop
    2d10:	df 91       	pop	r29
}
    2d12:	cf 91       	pop	r28
    2d14:	08 95       	ret

00002d16 <clear_top_right_bar>:
    2d16:	cf 93       	push	r28
    2d18:	df 93       	push	r29

//This Function turns off the right Top Bar
void clear_top_right_bar(void)
{
    2d1a:	cd b7       	in	r28, 0x3d	; 61
    2d1c:	de b7       	in	r29, 0x3e	; 62
    2d1e:	88 e2       	ldi	r24, 0x28	; 40
    2d20:	90 e0       	ldi	r25, 0x00	; 0
	PORTC = 0;
    2d22:	fc 01       	movw	r30, r24
    2d24:	10 82       	st	Z, r1
    2d26:	84 e3       	ldi	r24, 0x34	; 52
    2d28:	90 e0       	ldi	r25, 0x00	; 0
	PORTG &= ~(1<<PG0) & ~(1<<PG1);
    2d2a:	24 e3       	ldi	r18, 0x34	; 52
    2d2c:	30 e0       	ldi	r19, 0x00	; 0
    2d2e:	f9 01       	movw	r30, r18
    2d30:	20 81       	ld	r18, Z
    2d32:	2c 7f       	andi	r18, 0xFC	; 252
    2d34:	fc 01       	movw	r30, r24
    2d36:	20 83       	st	Z, r18
    2d38:	00 00       	nop
}
    2d3a:	df 91       	pop	r29
    2d3c:	cf 91       	pop	r28
    2d3e:	08 95       	ret

00002d40 <led_top_left_bar>:
    2d40:	cf 93       	push	r28

//This Function calculates the amount of LEDs of the left Top Bar which needs to be turned on
void led_top_left_bar(uint16_t max_value_l, uint16_t min_value_l, uint16_t current_value_l)
{
    2d42:	df 93       	push	r29
    2d44:	cd b7       	in	r28, 0x3d	; 61
    2d46:	de b7       	in	r29, 0x3e	; 62
    2d48:	29 97       	sbiw	r28, 0x09	; 9
    2d4a:	0f b6       	in	r0, 0x3f	; 63
    2d4c:	f8 94       	cli
    2d4e:	de bf       	out	0x3e, r29	; 62
    2d50:	0f be       	out	0x3f, r0	; 63
    2d52:	cd bf       	out	0x3d, r28	; 61
    2d54:	9d 83       	std	Y+5, r25	; 0x05
    2d56:	8c 83       	std	Y+4, r24	; 0x04
    2d58:	7f 83       	std	Y+7, r23	; 0x07
    2d5a:	6e 83       	std	Y+6, r22	; 0x06
    2d5c:	59 87       	std	Y+9, r21	; 0x09
    2d5e:	48 87       	std	Y+8, r20	; 0x08
    2d60:	c0 df       	rcall	.-128    	; 0x2ce2 <clear_top_left_bar>
	clear_top_left_bar();
    2d62:	2c 81       	ldd	r18, Y+4	; 0x04
    2d64:	3d 81       	ldd	r19, Y+5	; 0x05
	uint16_t Top_Left_Bar_Divider = (max_value_l - min_value_l) / (LED_COUNT_TOP_LEFT - 1);
    2d66:	8e 81       	ldd	r24, Y+6	; 0x06
    2d68:	9f 81       	ldd	r25, Y+7	; 0x07
    2d6a:	a9 01       	movw	r20, r18
    2d6c:	48 1b       	sub	r20, r24
    2d6e:	59 0b       	sbc	r21, r25
    2d70:	ca 01       	movw	r24, r20
    2d72:	96 95       	lsr	r25
    2d74:	87 95       	ror	r24
    2d76:	96 95       	lsr	r25
    2d78:	87 95       	ror	r24
    2d7a:	9a 83       	std	Y+2, r25	; 0x02
	int8_t amount_l = (current_value_l - min_value_l + Top_Left_Bar_Divider) / Top_Left_Bar_Divider;
    2d7c:	89 83       	std	Y+1, r24	; 0x01
    2d7e:	28 85       	ldd	r18, Y+8	; 0x08
    2d80:	39 85       	ldd	r19, Y+9	; 0x09
    2d82:	8e 81       	ldd	r24, Y+6	; 0x06
    2d84:	9f 81       	ldd	r25, Y+7	; 0x07
    2d86:	28 1b       	sub	r18, r24
    2d88:	39 0b       	sbc	r19, r25
    2d8a:	89 81       	ldd	r24, Y+1	; 0x01
    2d8c:	9a 81       	ldd	r25, Y+2	; 0x02
    2d8e:	82 0f       	add	r24, r18
    2d90:	93 1f       	adc	r25, r19
    2d92:	29 81       	ldd	r18, Y+1	; 0x01
    2d94:	3a 81       	ldd	r19, Y+2	; 0x02
    2d96:	b9 01       	movw	r22, r18
    2d98:	61 d3       	rcall	.+1730   	; 0x345c <__udivmodhi4>
    2d9a:	cb 01       	movw	r24, r22
    2d9c:	8b 83       	std	Y+3, r24	; 0x03
	if (amount_l > 0) {led_left_top_bar_select(amount_l);}
    2d9e:	8b 81       	ldd	r24, Y+3	; 0x03
    2da0:	18 16       	cp	r1, r24
    2da2:	1c f4       	brge	.+6      	; 0x2daa <led_top_left_bar+0x6a>
    2da4:	8b 81       	ldd	r24, Y+3	; 0x03
    2da6:	54 d0       	rcall	.+168    	; 0x2e50 <led_left_top_bar_select>
    2da8:	02 c0       	rjmp	.+4      	; 0x2dae <led_top_left_bar+0x6e>
	else {led_left_top_bar_select(0);}
}
    2daa:	80 e0       	ldi	r24, 0x00	; 0
{
	clear_top_left_bar();
	uint16_t Top_Left_Bar_Divider = (max_value_l - min_value_l) / (LED_COUNT_TOP_LEFT - 1);
	int8_t amount_l = (current_value_l - min_value_l + Top_Left_Bar_Divider) / Top_Left_Bar_Divider;
	if (amount_l > 0) {led_left_top_bar_select(amount_l);}
	else {led_left_top_bar_select(0);}
    2dac:	51 d0       	rcall	.+162    	; 0x2e50 <led_left_top_bar_select>
    2dae:	00 00       	nop
}
    2db0:	29 96       	adiw	r28, 0x09	; 9
    2db2:	0f b6       	in	r0, 0x3f	; 63
    2db4:	f8 94       	cli
    2db6:	de bf       	out	0x3e, r29	; 62
    2db8:	0f be       	out	0x3f, r0	; 63
    2dba:	cd bf       	out	0x3d, r28	; 61
    2dbc:	df 91       	pop	r29
    2dbe:	cf 91       	pop	r28
    2dc0:	08 95       	ret

00002dc2 <led_top_right_bar>:

//This Function calculates the amount of LEDs of the right Top Bar which needs to be turned on
void led_top_right_bar(uint16_t max_value_r, uint16_t min_value_r, uint16_t current_value_r)
{
    2dc2:	cf 93       	push	r28
    2dc4:	df 93       	push	r29
    2dc6:	cd b7       	in	r28, 0x3d	; 61
    2dc8:	de b7       	in	r29, 0x3e	; 62
    2dca:	29 97       	sbiw	r28, 0x09	; 9
    2dcc:	0f b6       	in	r0, 0x3f	; 63
    2dce:	f8 94       	cli
    2dd0:	de bf       	out	0x3e, r29	; 62
    2dd2:	0f be       	out	0x3f, r0	; 63
    2dd4:	cd bf       	out	0x3d, r28	; 61
    2dd6:	9d 83       	std	Y+5, r25	; 0x05
    2dd8:	8c 83       	std	Y+4, r24	; 0x04
    2dda:	7f 83       	std	Y+7, r23	; 0x07
    2ddc:	6e 83       	std	Y+6, r22	; 0x06
    2dde:	59 87       	std	Y+9, r21	; 0x09
    2de0:	48 87       	std	Y+8, r20	; 0x08
	clear_top_right_bar();
    2de2:	99 df       	rcall	.-206    	; 0x2d16 <clear_top_right_bar>
    2de4:	2c 81       	ldd	r18, Y+4	; 0x04
	uint16_t Top_Right_Bar_Divider = (max_value_r - min_value_r) / (LED_COUNT_TOP_RIGHT - 1);
    2de6:	3d 81       	ldd	r19, Y+5	; 0x05
    2de8:	8e 81       	ldd	r24, Y+6	; 0x06
    2dea:	9f 81       	ldd	r25, Y+7	; 0x07
    2dec:	a9 01       	movw	r20, r18
    2dee:	48 1b       	sub	r20, r24
    2df0:	59 0b       	sbc	r21, r25
    2df2:	ca 01       	movw	r24, r20
    2df4:	9c 01       	movw	r18, r24
    2df6:	af e8       	ldi	r26, 0x8F	; 143
    2df8:	b3 ee       	ldi	r27, 0xE3	; 227
    2dfa:	4d d3       	rcall	.+1690   	; 0x3496 <__umulhisi3>
    2dfc:	96 95       	lsr	r25
    2dfe:	87 95       	ror	r24
    2e00:	96 95       	lsr	r25
    2e02:	87 95       	ror	r24
    2e04:	96 95       	lsr	r25
    2e06:	87 95       	ror	r24
    2e08:	9a 83       	std	Y+2, r25	; 0x02
	int8_t amount_r = (current_value_r - min_value_r + Top_Right_Bar_Divider) / Top_Right_Bar_Divider;
    2e0a:	89 83       	std	Y+1, r24	; 0x01
    2e0c:	28 85       	ldd	r18, Y+8	; 0x08
    2e0e:	39 85       	ldd	r19, Y+9	; 0x09
    2e10:	8e 81       	ldd	r24, Y+6	; 0x06
    2e12:	9f 81       	ldd	r25, Y+7	; 0x07
    2e14:	28 1b       	sub	r18, r24
    2e16:	39 0b       	sbc	r19, r25
    2e18:	89 81       	ldd	r24, Y+1	; 0x01
    2e1a:	9a 81       	ldd	r25, Y+2	; 0x02
    2e1c:	82 0f       	add	r24, r18
    2e1e:	93 1f       	adc	r25, r19
    2e20:	29 81       	ldd	r18, Y+1	; 0x01
    2e22:	3a 81       	ldd	r19, Y+2	; 0x02
    2e24:	b9 01       	movw	r22, r18
    2e26:	1a d3       	rcall	.+1588   	; 0x345c <__udivmodhi4>
    2e28:	cb 01       	movw	r24, r22
    2e2a:	8b 83       	std	Y+3, r24	; 0x03
	if (amount_r > 0) {led_right_top_bar_select(amount_r);}
    2e2c:	8b 81       	ldd	r24, Y+3	; 0x03
    2e2e:	18 16       	cp	r1, r24
    2e30:	1c f4       	brge	.+6      	; 0x2e38 <led_top_right_bar+0x76>
    2e32:	8b 81       	ldd	r24, Y+3	; 0x03
    2e34:	49 d0       	rcall	.+146    	; 0x2ec8 <led_right_top_bar_select>
    2e36:	02 c0       	rjmp	.+4      	; 0x2e3c <led_top_right_bar+0x7a>
	else {led_right_top_bar_select(0);}
}
    2e38:	80 e0       	ldi	r24, 0x00	; 0
{
	clear_top_right_bar();
	uint16_t Top_Right_Bar_Divider = (max_value_r - min_value_r) / (LED_COUNT_TOP_RIGHT - 1);
	int8_t amount_r = (current_value_r - min_value_r + Top_Right_Bar_Divider) / Top_Right_Bar_Divider;
	if (amount_r > 0) {led_right_top_bar_select(amount_r);}
	else {led_right_top_bar_select(0);}
    2e3a:	46 d0       	rcall	.+140    	; 0x2ec8 <led_right_top_bar_select>
    2e3c:	00 00       	nop
    2e3e:	29 96       	adiw	r28, 0x09	; 9
}
    2e40:	0f b6       	in	r0, 0x3f	; 63
    2e42:	f8 94       	cli
    2e44:	de bf       	out	0x3e, r29	; 62
    2e46:	0f be       	out	0x3f, r0	; 63
    2e48:	cd bf       	out	0x3d, r28	; 61
    2e4a:	df 91       	pop	r29
    2e4c:	cf 91       	pop	r28
    2e4e:	08 95       	ret

00002e50 <led_left_top_bar_select>:
    2e50:	cf 93       	push	r28
    2e52:	df 93       	push	r29

//This Function turns on the desired amount of LEDs of the left Top Bar
void led_left_top_bar_select(uint8_t select_l)
{
    2e54:	1f 92       	push	r1
    2e56:	cd b7       	in	r28, 0x3d	; 61
    2e58:	de b7       	in	r29, 0x3e	; 62
    2e5a:	89 83       	std	Y+1, r24	; 0x01
    2e5c:	82 e2       	ldi	r24, 0x22	; 34
    2e5e:	90 e0       	ldi	r25, 0x00	; 0
	PORTA |= ~(0xFF << select_l) << PA4;
    2e60:	22 e2       	ldi	r18, 0x22	; 34
    2e62:	30 e0       	ldi	r19, 0x00	; 0
    2e64:	f9 01       	movw	r30, r18
    2e66:	20 81       	ld	r18, Z
    2e68:	62 2f       	mov	r22, r18
    2e6a:	29 81       	ldd	r18, Y+1	; 0x01
    2e6c:	42 2f       	mov	r20, r18
    2e6e:	50 e0       	ldi	r21, 0x00	; 0
    2e70:	2f ef       	ldi	r18, 0xFF	; 255
    2e72:	30 e0       	ldi	r19, 0x00	; 0
    2e74:	02 c0       	rjmp	.+4      	; 0x2e7a <led_left_top_bar_select+0x2a>
    2e76:	22 0f       	add	r18, r18
    2e78:	33 1f       	adc	r19, r19
    2e7a:	4a 95       	dec	r20
    2e7c:	e2 f7       	brpl	.-8      	; 0x2e76 <led_left_top_bar_select+0x26>
    2e7e:	20 95       	com	r18
    2e80:	30 95       	com	r19
    2e82:	22 95       	swap	r18
    2e84:	32 95       	swap	r19
    2e86:	30 7f       	andi	r19, 0xF0	; 240
    2e88:	32 27       	eor	r19, r18
    2e8a:	20 7f       	andi	r18, 0xF0	; 240
    2e8c:	32 27       	eor	r19, r18
    2e8e:	26 2b       	or	r18, r22
    2e90:	fc 01       	movw	r30, r24
    2e92:	20 83       	st	Z, r18
    2e94:	84 e3       	ldi	r24, 0x34	; 52
    2e96:	90 e0       	ldi	r25, 0x00	; 0
	PORTG |= (1<<PG2) & ((0x80) >> select_l);
    2e98:	24 e3       	ldi	r18, 0x34	; 52
    2e9a:	30 e0       	ldi	r19, 0x00	; 0
    2e9c:	f9 01       	movw	r30, r18
    2e9e:	20 81       	ld	r18, Z
    2ea0:	62 2f       	mov	r22, r18
    2ea2:	29 81       	ldd	r18, Y+1	; 0x01
    2ea4:	42 2f       	mov	r20, r18
    2ea6:	50 e0       	ldi	r21, 0x00	; 0
    2ea8:	20 e8       	ldi	r18, 0x80	; 128
    2eaa:	30 e0       	ldi	r19, 0x00	; 0
    2eac:	02 c0       	rjmp	.+4      	; 0x2eb2 <led_left_top_bar_select+0x62>
    2eae:	35 95       	asr	r19
    2eb0:	27 95       	ror	r18
    2eb2:	4a 95       	dec	r20
    2eb4:	e2 f7       	brpl	.-8      	; 0x2eae <led_left_top_bar_select+0x5e>
    2eb6:	24 70       	andi	r18, 0x04	; 4
    2eb8:	26 2b       	or	r18, r22
    2eba:	fc 01       	movw	r30, r24
    2ebc:	20 83       	st	Z, r18
    2ebe:	00 00       	nop
    2ec0:	0f 90       	pop	r0
}
    2ec2:	df 91       	pop	r29
    2ec4:	cf 91       	pop	r28
    2ec6:	08 95       	ret

00002ec8 <led_right_top_bar_select>:
    2ec8:	cf 93       	push	r28
    2eca:	df 93       	push	r29

//This Function turns on the desired amount of LEDs of the right Top Bar
void led_right_top_bar_select(uint8_t select_r)
{
    2ecc:	1f 92       	push	r1
    2ece:	cd b7       	in	r28, 0x3d	; 61
    2ed0:	de b7       	in	r29, 0x3e	; 62
    2ed2:	89 83       	std	Y+1, r24	; 0x01
    2ed4:	88 e2       	ldi	r24, 0x28	; 40
    2ed6:	90 e0       	ldi	r25, 0x00	; 0
	PORTC |= ~(0xFF >> select_r);
    2ed8:	28 e2       	ldi	r18, 0x28	; 40
    2eda:	30 e0       	ldi	r19, 0x00	; 0
    2edc:	f9 01       	movw	r30, r18
    2ede:	20 81       	ld	r18, Z
    2ee0:	62 2f       	mov	r22, r18
    2ee2:	29 81       	ldd	r18, Y+1	; 0x01
    2ee4:	42 2f       	mov	r20, r18
    2ee6:	50 e0       	ldi	r21, 0x00	; 0
    2ee8:	2f ef       	ldi	r18, 0xFF	; 255
    2eea:	30 e0       	ldi	r19, 0x00	; 0
    2eec:	02 c0       	rjmp	.+4      	; 0x2ef2 <led_right_top_bar_select+0x2a>
    2eee:	35 95       	asr	r19
    2ef0:	27 95       	ror	r18
    2ef2:	4a 95       	dec	r20
    2ef4:	e2 f7       	brpl	.-8      	; 0x2eee <led_right_top_bar_select+0x26>
    2ef6:	20 95       	com	r18
    2ef8:	26 2b       	or	r18, r22
    2efa:	fc 01       	movw	r30, r24
    2efc:	20 83       	st	Z, r18
    2efe:	84 e3       	ldi	r24, 0x34	; 52
    2f00:	90 e0       	ldi	r25, 0x00	; 0
	PORTG |= (~(0xFF << (select_r/9)) << (select_r/9)) + (select_r/10);
    2f02:	24 e3       	ldi	r18, 0x34	; 52
    2f04:	30 e0       	ldi	r19, 0x00	; 0
    2f06:	f9 01       	movw	r30, r18
    2f08:	20 81       	ld	r18, Z
    2f0a:	62 2f       	mov	r22, r18
    2f0c:	39 81       	ldd	r19, Y+1	; 0x01
    2f0e:	29 e3       	ldi	r18, 0x39	; 57
    2f10:	32 9f       	mul	r19, r18
    2f12:	21 2d       	mov	r18, r1
    2f14:	11 24       	eor	r1, r1
    2f16:	26 95       	lsr	r18
    2f18:	42 2f       	mov	r20, r18
    2f1a:	50 e0       	ldi	r21, 0x00	; 0
    2f1c:	2f ef       	ldi	r18, 0xFF	; 255
    2f1e:	30 e0       	ldi	r19, 0x00	; 0
    2f20:	02 c0       	rjmp	.+4      	; 0x2f26 <led_right_top_bar_select+0x5e>
    2f22:	22 0f       	add	r18, r18
    2f24:	33 1f       	adc	r19, r19
    2f26:	4a 95       	dec	r20
    2f28:	e2 f7       	brpl	.-8      	; 0x2f22 <led_right_top_bar_select+0x5a>
    2f2a:	20 95       	com	r18
    2f2c:	30 95       	com	r19
    2f2e:	59 81       	ldd	r21, Y+1	; 0x01
    2f30:	49 e3       	ldi	r20, 0x39	; 57
    2f32:	54 9f       	mul	r21, r20
    2f34:	41 2d       	mov	r20, r1
    2f36:	11 24       	eor	r1, r1
    2f38:	46 95       	lsr	r20
    2f3a:	44 2f       	mov	r20, r20
    2f3c:	50 e0       	ldi	r21, 0x00	; 0
    2f3e:	02 c0       	rjmp	.+4      	; 0x2f44 <led_right_top_bar_select+0x7c>
    2f40:	22 0f       	add	r18, r18
    2f42:	33 1f       	adc	r19, r19
    2f44:	4a 95       	dec	r20
    2f46:	e2 f7       	brpl	.-8      	; 0x2f40 <led_right_top_bar_select+0x78>
    2f48:	42 2f       	mov	r20, r18
    2f4a:	39 81       	ldd	r19, Y+1	; 0x01
    2f4c:	2d ec       	ldi	r18, 0xCD	; 205
    2f4e:	32 9f       	mul	r19, r18
    2f50:	21 2d       	mov	r18, r1
    2f52:	11 24       	eor	r1, r1
    2f54:	26 95       	lsr	r18
    2f56:	26 95       	lsr	r18
    2f58:	26 95       	lsr	r18
    2f5a:	24 0f       	add	r18, r20
    2f5c:	26 2b       	or	r18, r22
    2f5e:	fc 01       	movw	r30, r24
    2f60:	20 83       	st	Z, r18
    2f62:	00 00       	nop
}
    2f64:	0f 90       	pop	r0
    2f66:	df 91       	pop	r29
    2f68:	cf 91       	pop	r28
    2f6a:	08 95       	ret

00002f6c <led_top_light>:
    2f6c:	cf 93       	push	r28

void led_top_light( uint8_t LED)
{
    2f6e:	df 93       	push	r29
    2f70:	1f 92       	push	r1
    2f72:	cd b7       	in	r28, 0x3d	; 61
    2f74:	de b7       	in	r29, 0x3e	; 62
    2f76:	89 83       	std	Y+1, r24	; 0x01
    2f78:	89 81       	ldd	r24, Y+1	; 0x01
	
		switch(LED){
    2f7a:	88 2f       	mov	r24, r24
    2f7c:	90 e0       	ldi	r25, 0x00	; 0
    2f7e:	09 2e       	mov	r0, r25
    2f80:	00 0c       	add	r0, r0
    2f82:	aa 0b       	sbc	r26, r26
    2f84:	bb 0b       	sbc	r27, r27
    2f86:	40 e0       	ldi	r20, 0x00	; 0
    2f88:	50 e0       	ldi	r21, 0x00	; 0
    2f8a:	2e e0       	ldi	r18, 0x0E	; 14
    2f8c:	30 e0       	ldi	r19, 0x00	; 0
    2f8e:	84 1b       	sub	r24, r20
    2f90:	95 0b       	sbc	r25, r21
    2f92:	28 17       	cp	r18, r24
    2f94:	39 07       	cpc	r19, r25
    2f96:	08 f4       	brcc	.+2      	; 0x2f9a <led_top_light+0x2e>
    2f98:	9a c0       	rjmp	.+308    	; 0x30ce <led_top_light+0x162>
    2f9a:	86 59       	subi	r24, 0x96	; 150
    2f9c:	9f 4f       	sbci	r25, 0xFF	; 255
    2f9e:	fc 01       	movw	r30, r24
    2fa0:	71 c2       	rjmp	.+1250   	; 0x3484 <__tablejump2__>
    2fa2:	82 e2       	ldi	r24, 0x22	; 34
    2fa4:	90 e0       	ldi	r25, 0x00	; 0
			
			case 0: {PORTA |= (1<<PA4); break;}
    2fa6:	22 e2       	ldi	r18, 0x22	; 34
    2fa8:	30 e0       	ldi	r19, 0x00	; 0
    2faa:	f9 01       	movw	r30, r18
    2fac:	20 81       	ld	r18, Z
    2fae:	20 61       	ori	r18, 0x10	; 16
    2fb0:	fc 01       	movw	r30, r24
    2fb2:	20 83       	st	Z, r18
    2fb4:	8c c0       	rjmp	.+280    	; 0x30ce <led_top_light+0x162>
    2fb6:	82 e2       	ldi	r24, 0x22	; 34
    2fb8:	90 e0       	ldi	r25, 0x00	; 0
			case 1: {PORTA |= (1<<PA5); break;}	
    2fba:	22 e2       	ldi	r18, 0x22	; 34
    2fbc:	30 e0       	ldi	r19, 0x00	; 0
    2fbe:	f9 01       	movw	r30, r18
    2fc0:	20 81       	ld	r18, Z
    2fc2:	20 62       	ori	r18, 0x20	; 32
    2fc4:	fc 01       	movw	r30, r24
    2fc6:	20 83       	st	Z, r18
    2fc8:	82 c0       	rjmp	.+260    	; 0x30ce <led_top_light+0x162>
    2fca:	82 e2       	ldi	r24, 0x22	; 34
    2fcc:	90 e0       	ldi	r25, 0x00	; 0
			case 2: {PORTA |= (1<<PA6); break;}
    2fce:	22 e2       	ldi	r18, 0x22	; 34
    2fd0:	30 e0       	ldi	r19, 0x00	; 0
    2fd2:	f9 01       	movw	r30, r18
    2fd4:	20 81       	ld	r18, Z
    2fd6:	20 64       	ori	r18, 0x40	; 64
    2fd8:	fc 01       	movw	r30, r24
    2fda:	20 83       	st	Z, r18
    2fdc:	78 c0       	rjmp	.+240    	; 0x30ce <led_top_light+0x162>
    2fde:	82 e2       	ldi	r24, 0x22	; 34
    2fe0:	90 e0       	ldi	r25, 0x00	; 0
			case 3: {PORTA |= (1<<PA7); break;}
    2fe2:	22 e2       	ldi	r18, 0x22	; 34
    2fe4:	30 e0       	ldi	r19, 0x00	; 0
    2fe6:	f9 01       	movw	r30, r18
    2fe8:	20 81       	ld	r18, Z
    2fea:	20 68       	ori	r18, 0x80	; 128
    2fec:	fc 01       	movw	r30, r24
    2fee:	20 83       	st	Z, r18
    2ff0:	6e c0       	rjmp	.+220    	; 0x30ce <led_top_light+0x162>
    2ff2:	84 e3       	ldi	r24, 0x34	; 52
    2ff4:	90 e0       	ldi	r25, 0x00	; 0
			case 4: {PORTG |= (1<<PG2); break;}
    2ff6:	24 e3       	ldi	r18, 0x34	; 52
    2ff8:	30 e0       	ldi	r19, 0x00	; 0
    2ffa:	f9 01       	movw	r30, r18
    2ffc:	20 81       	ld	r18, Z
    2ffe:	24 60       	ori	r18, 0x04	; 4
    3000:	fc 01       	movw	r30, r24
    3002:	20 83       	st	Z, r18
    3004:	64 c0       	rjmp	.+200    	; 0x30ce <led_top_light+0x162>
    3006:	88 e2       	ldi	r24, 0x28	; 40
    3008:	90 e0       	ldi	r25, 0x00	; 0
			case 5: {PORTC |= (1<<PC7); break;}
    300a:	28 e2       	ldi	r18, 0x28	; 40
    300c:	30 e0       	ldi	r19, 0x00	; 0
    300e:	f9 01       	movw	r30, r18
    3010:	20 81       	ld	r18, Z
    3012:	20 68       	ori	r18, 0x80	; 128
    3014:	fc 01       	movw	r30, r24
    3016:	20 83       	st	Z, r18
    3018:	5a c0       	rjmp	.+180    	; 0x30ce <led_top_light+0x162>
    301a:	88 e2       	ldi	r24, 0x28	; 40
    301c:	90 e0       	ldi	r25, 0x00	; 0
			case 6: {PORTC |= (1<<PC6); break;}
    301e:	28 e2       	ldi	r18, 0x28	; 40
    3020:	30 e0       	ldi	r19, 0x00	; 0
    3022:	f9 01       	movw	r30, r18
    3024:	20 81       	ld	r18, Z
    3026:	20 64       	ori	r18, 0x40	; 64
    3028:	fc 01       	movw	r30, r24
    302a:	20 83       	st	Z, r18
    302c:	50 c0       	rjmp	.+160    	; 0x30ce <led_top_light+0x162>
    302e:	88 e2       	ldi	r24, 0x28	; 40
    3030:	90 e0       	ldi	r25, 0x00	; 0
			case 7: {PORTC |= (1<<PC5); break;}
    3032:	28 e2       	ldi	r18, 0x28	; 40
    3034:	30 e0       	ldi	r19, 0x00	; 0
    3036:	f9 01       	movw	r30, r18
    3038:	20 81       	ld	r18, Z
    303a:	20 62       	ori	r18, 0x20	; 32
    303c:	fc 01       	movw	r30, r24
    303e:	20 83       	st	Z, r18
    3040:	46 c0       	rjmp	.+140    	; 0x30ce <led_top_light+0x162>
    3042:	88 e2       	ldi	r24, 0x28	; 40
    3044:	90 e0       	ldi	r25, 0x00	; 0
			case 8: {PORTC |= (1<<PC4); break;}
    3046:	28 e2       	ldi	r18, 0x28	; 40
    3048:	30 e0       	ldi	r19, 0x00	; 0
    304a:	f9 01       	movw	r30, r18
    304c:	20 81       	ld	r18, Z
    304e:	20 61       	ori	r18, 0x10	; 16
    3050:	fc 01       	movw	r30, r24
    3052:	20 83       	st	Z, r18
    3054:	3c c0       	rjmp	.+120    	; 0x30ce <led_top_light+0x162>
    3056:	88 e2       	ldi	r24, 0x28	; 40
    3058:	90 e0       	ldi	r25, 0x00	; 0
			case 9: {PORTC |= (1<<PC3); break;}
    305a:	28 e2       	ldi	r18, 0x28	; 40
    305c:	30 e0       	ldi	r19, 0x00	; 0
    305e:	f9 01       	movw	r30, r18
    3060:	20 81       	ld	r18, Z
    3062:	28 60       	ori	r18, 0x08	; 8
    3064:	fc 01       	movw	r30, r24
    3066:	20 83       	st	Z, r18
    3068:	32 c0       	rjmp	.+100    	; 0x30ce <led_top_light+0x162>
    306a:	88 e2       	ldi	r24, 0x28	; 40
    306c:	90 e0       	ldi	r25, 0x00	; 0
			case 10: {PORTC |= (1<<PC2); break;}
    306e:	28 e2       	ldi	r18, 0x28	; 40
    3070:	30 e0       	ldi	r19, 0x00	; 0
    3072:	f9 01       	movw	r30, r18
    3074:	20 81       	ld	r18, Z
    3076:	24 60       	ori	r18, 0x04	; 4
    3078:	fc 01       	movw	r30, r24
    307a:	20 83       	st	Z, r18
    307c:	28 c0       	rjmp	.+80     	; 0x30ce <led_top_light+0x162>
    307e:	88 e2       	ldi	r24, 0x28	; 40
    3080:	90 e0       	ldi	r25, 0x00	; 0
			case 11: {PORTC |= (1<<PC1); break;}
    3082:	28 e2       	ldi	r18, 0x28	; 40
    3084:	30 e0       	ldi	r19, 0x00	; 0
    3086:	f9 01       	movw	r30, r18
    3088:	20 81       	ld	r18, Z
    308a:	22 60       	ori	r18, 0x02	; 2
    308c:	fc 01       	movw	r30, r24
    308e:	20 83       	st	Z, r18
    3090:	1e c0       	rjmp	.+60     	; 0x30ce <led_top_light+0x162>
    3092:	88 e2       	ldi	r24, 0x28	; 40
    3094:	90 e0       	ldi	r25, 0x00	; 0
			case 12: {PORTC |= (1<<PC0); break;}
    3096:	28 e2       	ldi	r18, 0x28	; 40
    3098:	30 e0       	ldi	r19, 0x00	; 0
    309a:	f9 01       	movw	r30, r18
    309c:	20 81       	ld	r18, Z
    309e:	21 60       	ori	r18, 0x01	; 1
    30a0:	fc 01       	movw	r30, r24
    30a2:	20 83       	st	Z, r18
    30a4:	14 c0       	rjmp	.+40     	; 0x30ce <led_top_light+0x162>
    30a6:	84 e3       	ldi	r24, 0x34	; 52
    30a8:	90 e0       	ldi	r25, 0x00	; 0
			case 13: {PORTG |= (1<<PG1); break;}
    30aa:	24 e3       	ldi	r18, 0x34	; 52
    30ac:	30 e0       	ldi	r19, 0x00	; 0
    30ae:	f9 01       	movw	r30, r18
    30b0:	20 81       	ld	r18, Z
    30b2:	22 60       	ori	r18, 0x02	; 2
    30b4:	fc 01       	movw	r30, r24
    30b6:	20 83       	st	Z, r18
    30b8:	0a c0       	rjmp	.+20     	; 0x30ce <led_top_light+0x162>
    30ba:	84 e3       	ldi	r24, 0x34	; 52
    30bc:	90 e0       	ldi	r25, 0x00	; 0
			case 14: {PORTG |= (1<<PG0); break;}
    30be:	24 e3       	ldi	r18, 0x34	; 52
    30c0:	30 e0       	ldi	r19, 0x00	; 0
    30c2:	f9 01       	movw	r30, r18
    30c4:	20 81       	ld	r18, Z
    30c6:	21 60       	ori	r18, 0x01	; 1
    30c8:	fc 01       	movw	r30, r24
    30ca:	20 83       	st	Z, r18
    30cc:	00 00       	nop
    30ce:	00 00       	nop
		}

	
}
    30d0:	0f 90       	pop	r0
    30d2:	df 91       	pop	r29
    30d4:	cf 91       	pop	r28
    30d6:	08 95       	ret

000030d8 <led_top_clear>:
    30d8:	cf 93       	push	r28

void led_top_clear( uint8_t LED)
{
    30da:	df 93       	push	r29
    30dc:	1f 92       	push	r1
    30de:	cd b7       	in	r28, 0x3d	; 61
    30e0:	de b7       	in	r29, 0x3e	; 62
    30e2:	89 83       	std	Y+1, r24	; 0x01
    30e4:	89 81       	ldd	r24, Y+1	; 0x01
	
	switch(LED){
    30e6:	88 2f       	mov	r24, r24
    30e8:	90 e0       	ldi	r25, 0x00	; 0
    30ea:	09 2e       	mov	r0, r25
    30ec:	00 0c       	add	r0, r0
    30ee:	aa 0b       	sbc	r26, r26
    30f0:	bb 0b       	sbc	r27, r27
    30f2:	40 e0       	ldi	r20, 0x00	; 0
    30f4:	50 e0       	ldi	r21, 0x00	; 0
    30f6:	2e e0       	ldi	r18, 0x0E	; 14
    30f8:	30 e0       	ldi	r19, 0x00	; 0
    30fa:	84 1b       	sub	r24, r20
    30fc:	95 0b       	sbc	r25, r21
    30fe:	28 17       	cp	r18, r24
    3100:	39 07       	cpc	r19, r25
    3102:	08 f4       	brcc	.+2      	; 0x3106 <led_top_clear+0x2e>
    3104:	9a c0       	rjmp	.+308    	; 0x323a <led_top_clear+0x162>
    3106:	87 58       	subi	r24, 0x87	; 135
    3108:	9f 4f       	sbci	r25, 0xFF	; 255
    310a:	fc 01       	movw	r30, r24
    310c:	bb c1       	rjmp	.+886    	; 0x3484 <__tablejump2__>
    310e:	82 e2       	ldi	r24, 0x22	; 34
    3110:	90 e0       	ldi	r25, 0x00	; 0
		
		case 0: {PORTA &= (1<<PA4); break;}
    3112:	22 e2       	ldi	r18, 0x22	; 34
    3114:	30 e0       	ldi	r19, 0x00	; 0
    3116:	f9 01       	movw	r30, r18
    3118:	20 81       	ld	r18, Z
    311a:	20 71       	andi	r18, 0x10	; 16
    311c:	fc 01       	movw	r30, r24
    311e:	20 83       	st	Z, r18
    3120:	8c c0       	rjmp	.+280    	; 0x323a <led_top_clear+0x162>
    3122:	82 e2       	ldi	r24, 0x22	; 34
    3124:	90 e0       	ldi	r25, 0x00	; 0
		case 1: {PORTA &= (1<<PA5); break;}
    3126:	22 e2       	ldi	r18, 0x22	; 34
    3128:	30 e0       	ldi	r19, 0x00	; 0
    312a:	f9 01       	movw	r30, r18
    312c:	20 81       	ld	r18, Z
    312e:	20 72       	andi	r18, 0x20	; 32
    3130:	fc 01       	movw	r30, r24
    3132:	20 83       	st	Z, r18
    3134:	82 c0       	rjmp	.+260    	; 0x323a <led_top_clear+0x162>
    3136:	82 e2       	ldi	r24, 0x22	; 34
    3138:	90 e0       	ldi	r25, 0x00	; 0
		case 2: {PORTA &= (1<<PA6); break;}
    313a:	22 e2       	ldi	r18, 0x22	; 34
    313c:	30 e0       	ldi	r19, 0x00	; 0
    313e:	f9 01       	movw	r30, r18
    3140:	20 81       	ld	r18, Z
    3142:	20 74       	andi	r18, 0x40	; 64
    3144:	fc 01       	movw	r30, r24
    3146:	20 83       	st	Z, r18
    3148:	78 c0       	rjmp	.+240    	; 0x323a <led_top_clear+0x162>
    314a:	82 e2       	ldi	r24, 0x22	; 34
    314c:	90 e0       	ldi	r25, 0x00	; 0
		case 3: {PORTA &= (1<<PA7); break;}
    314e:	22 e2       	ldi	r18, 0x22	; 34
    3150:	30 e0       	ldi	r19, 0x00	; 0
    3152:	f9 01       	movw	r30, r18
    3154:	20 81       	ld	r18, Z
    3156:	20 78       	andi	r18, 0x80	; 128
    3158:	fc 01       	movw	r30, r24
    315a:	20 83       	st	Z, r18
    315c:	6e c0       	rjmp	.+220    	; 0x323a <led_top_clear+0x162>
    315e:	84 e3       	ldi	r24, 0x34	; 52
    3160:	90 e0       	ldi	r25, 0x00	; 0
		case 4: {PORTG &= (1<<PG2); break;}
    3162:	24 e3       	ldi	r18, 0x34	; 52
    3164:	30 e0       	ldi	r19, 0x00	; 0
    3166:	f9 01       	movw	r30, r18
    3168:	20 81       	ld	r18, Z
    316a:	24 70       	andi	r18, 0x04	; 4
    316c:	fc 01       	movw	r30, r24
    316e:	20 83       	st	Z, r18
    3170:	64 c0       	rjmp	.+200    	; 0x323a <led_top_clear+0x162>
    3172:	88 e2       	ldi	r24, 0x28	; 40
    3174:	90 e0       	ldi	r25, 0x00	; 0
		case 5: {PORTC &= (1<<PC7); break;}
    3176:	28 e2       	ldi	r18, 0x28	; 40
    3178:	30 e0       	ldi	r19, 0x00	; 0
    317a:	f9 01       	movw	r30, r18
    317c:	20 81       	ld	r18, Z
    317e:	20 78       	andi	r18, 0x80	; 128
    3180:	fc 01       	movw	r30, r24
    3182:	20 83       	st	Z, r18
    3184:	5a c0       	rjmp	.+180    	; 0x323a <led_top_clear+0x162>
    3186:	88 e2       	ldi	r24, 0x28	; 40
    3188:	90 e0       	ldi	r25, 0x00	; 0
		case 6: {PORTC &= (1<<PC6); break;}
    318a:	28 e2       	ldi	r18, 0x28	; 40
    318c:	30 e0       	ldi	r19, 0x00	; 0
    318e:	f9 01       	movw	r30, r18
    3190:	20 81       	ld	r18, Z
    3192:	20 74       	andi	r18, 0x40	; 64
    3194:	fc 01       	movw	r30, r24
    3196:	20 83       	st	Z, r18
    3198:	50 c0       	rjmp	.+160    	; 0x323a <led_top_clear+0x162>
    319a:	88 e2       	ldi	r24, 0x28	; 40
    319c:	90 e0       	ldi	r25, 0x00	; 0
		case 7: {PORTC &= (1<<PC5); break;}
    319e:	28 e2       	ldi	r18, 0x28	; 40
    31a0:	30 e0       	ldi	r19, 0x00	; 0
    31a2:	f9 01       	movw	r30, r18
    31a4:	20 81       	ld	r18, Z
    31a6:	20 72       	andi	r18, 0x20	; 32
    31a8:	fc 01       	movw	r30, r24
    31aa:	20 83       	st	Z, r18
    31ac:	46 c0       	rjmp	.+140    	; 0x323a <led_top_clear+0x162>
    31ae:	88 e2       	ldi	r24, 0x28	; 40
    31b0:	90 e0       	ldi	r25, 0x00	; 0
		case 8: {PORTC &= (1<<PC4); break;}
    31b2:	28 e2       	ldi	r18, 0x28	; 40
    31b4:	30 e0       	ldi	r19, 0x00	; 0
    31b6:	f9 01       	movw	r30, r18
    31b8:	20 81       	ld	r18, Z
    31ba:	20 71       	andi	r18, 0x10	; 16
    31bc:	fc 01       	movw	r30, r24
    31be:	20 83       	st	Z, r18
    31c0:	3c c0       	rjmp	.+120    	; 0x323a <led_top_clear+0x162>
    31c2:	88 e2       	ldi	r24, 0x28	; 40
    31c4:	90 e0       	ldi	r25, 0x00	; 0
		case 9: {PORTC &= (1<<PC3); break;}
    31c6:	28 e2       	ldi	r18, 0x28	; 40
    31c8:	30 e0       	ldi	r19, 0x00	; 0
    31ca:	f9 01       	movw	r30, r18
    31cc:	20 81       	ld	r18, Z
    31ce:	28 70       	andi	r18, 0x08	; 8
    31d0:	fc 01       	movw	r30, r24
    31d2:	20 83       	st	Z, r18
    31d4:	32 c0       	rjmp	.+100    	; 0x323a <led_top_clear+0x162>
    31d6:	88 e2       	ldi	r24, 0x28	; 40
    31d8:	90 e0       	ldi	r25, 0x00	; 0
		case 10: {PORTC &= (1<<PC2); break;}
    31da:	28 e2       	ldi	r18, 0x28	; 40
    31dc:	30 e0       	ldi	r19, 0x00	; 0
    31de:	f9 01       	movw	r30, r18
    31e0:	20 81       	ld	r18, Z
    31e2:	24 70       	andi	r18, 0x04	; 4
    31e4:	fc 01       	movw	r30, r24
    31e6:	20 83       	st	Z, r18
    31e8:	28 c0       	rjmp	.+80     	; 0x323a <led_top_clear+0x162>
    31ea:	88 e2       	ldi	r24, 0x28	; 40
    31ec:	90 e0       	ldi	r25, 0x00	; 0
		case 11: {PORTC &= (1<<PC1); break;}
    31ee:	28 e2       	ldi	r18, 0x28	; 40
    31f0:	30 e0       	ldi	r19, 0x00	; 0
    31f2:	f9 01       	movw	r30, r18
    31f4:	20 81       	ld	r18, Z
    31f6:	22 70       	andi	r18, 0x02	; 2
    31f8:	fc 01       	movw	r30, r24
    31fa:	20 83       	st	Z, r18
    31fc:	1e c0       	rjmp	.+60     	; 0x323a <led_top_clear+0x162>
    31fe:	88 e2       	ldi	r24, 0x28	; 40
    3200:	90 e0       	ldi	r25, 0x00	; 0
		case 12: {PORTC &= (1<<PC0); break;}
    3202:	28 e2       	ldi	r18, 0x28	; 40
    3204:	30 e0       	ldi	r19, 0x00	; 0
    3206:	f9 01       	movw	r30, r18
    3208:	20 81       	ld	r18, Z
    320a:	21 70       	andi	r18, 0x01	; 1
    320c:	fc 01       	movw	r30, r24
    320e:	20 83       	st	Z, r18
    3210:	14 c0       	rjmp	.+40     	; 0x323a <led_top_clear+0x162>
    3212:	84 e3       	ldi	r24, 0x34	; 52
    3214:	90 e0       	ldi	r25, 0x00	; 0
		case 13: {PORTG &= (1<<PG1); break;}
    3216:	24 e3       	ldi	r18, 0x34	; 52
    3218:	30 e0       	ldi	r19, 0x00	; 0
    321a:	f9 01       	movw	r30, r18
    321c:	20 81       	ld	r18, Z
    321e:	22 70       	andi	r18, 0x02	; 2
    3220:	fc 01       	movw	r30, r24
    3222:	20 83       	st	Z, r18
    3224:	0a c0       	rjmp	.+20     	; 0x323a <led_top_clear+0x162>
    3226:	84 e3       	ldi	r24, 0x34	; 52
    3228:	90 e0       	ldi	r25, 0x00	; 0
		case 14: {PORTG &= (1<<PG0); break;}
    322a:	24 e3       	ldi	r18, 0x34	; 52
    322c:	30 e0       	ldi	r19, 0x00	; 0
    322e:	f9 01       	movw	r30, r18
    3230:	20 81       	ld	r18, Z
    3232:	21 70       	andi	r18, 0x01	; 1
    3234:	fc 01       	movw	r30, r24
    3236:	20 83       	st	Z, r18
    3238:	00 00       	nop
    323a:	00 00       	nop
    323c:	0f 90       	pop	r0
		
	}

	
}
    323e:	df 91       	pop	r29
    3240:	cf 91       	pop	r28
    3242:	08 95       	ret

00003244 <bms_error>:
    3244:	cf 93       	push	r28
    3246:	df 93       	push	r29

void bms_error(uint8_t error)
{
    3248:	1f 92       	push	r1
    324a:	cd b7       	in	r28, 0x3d	; 61
    324c:	de b7       	in	r29, 0x3e	; 62
    324e:	89 83       	std	Y+1, r24	; 0x01
    3250:	89 81       	ldd	r24, Y+1	; 0x01
    3252:	88 2f       	mov	r24, r24
	switch (error)
    3254:	90 e0       	ldi	r25, 0x00	; 0
    3256:	00 97       	sbiw	r24, 0x00	; 0
    3258:	19 f0       	breq	.+6      	; 0x3260 <bms_error+0x1c>
    325a:	01 97       	sbiw	r24, 0x01	; 1
    325c:	59 f0       	breq	.+22     	; 0x3274 <bms_error+0x30>
    325e:	14 c0       	rjmp	.+40     	; 0x3288 <bms_error+0x44>
	{
		case 0: {PORTD &= (0b01100000); break;}	//Every 1 in this number represents an Pin which is connected to the bottom LED bar, 0 = on
		case 1: {PORTD |= (0b10011111); break;}	//Every 1 in this number represents an Pin which is connected to the bottom LED bar, 1 = on
	}
}
    3260:	8b e2       	ldi	r24, 0x2B	; 43

void bms_error(uint8_t error)
{
	switch (error)
	{
		case 0: {PORTD &= (0b01100000); break;}	//Every 1 in this number represents an Pin which is connected to the bottom LED bar, 0 = on
    3262:	90 e0       	ldi	r25, 0x00	; 0
    3264:	2b e2       	ldi	r18, 0x2B	; 43
    3266:	30 e0       	ldi	r19, 0x00	; 0
    3268:	f9 01       	movw	r30, r18
    326a:	20 81       	ld	r18, Z
    326c:	20 76       	andi	r18, 0x60	; 96
    326e:	fc 01       	movw	r30, r24
    3270:	20 83       	st	Z, r18
		case 1: {PORTD |= (0b10011111); break;}	//Every 1 in this number represents an Pin which is connected to the bottom LED bar, 1 = on
    3272:	0a c0       	rjmp	.+20     	; 0x3288 <bms_error+0x44>
    3274:	8b e2       	ldi	r24, 0x2B	; 43
    3276:	90 e0       	ldi	r25, 0x00	; 0
    3278:	2b e2       	ldi	r18, 0x2B	; 43
    327a:	30 e0       	ldi	r19, 0x00	; 0
    327c:	f9 01       	movw	r30, r18
    327e:	20 81       	ld	r18, Z
    3280:	2f 69       	ori	r18, 0x9F	; 159
	}
}
    3282:	fc 01       	movw	r30, r24
    3284:	20 83       	st	Z, r18
    3286:	00 00       	nop
    3288:	00 00       	nop

void led_startup_animation(uint8_t frame)
{
    328a:	0f 90       	pop	r0
    328c:	df 91       	pop	r29
    328e:	cf 91       	pop	r28
    3290:	08 95       	ret

00003292 <led_startup_animation>:
    3292:	cf 93       	push	r28
    3294:	df 93       	push	r29
	
			led_top_light(7+frame);
    3296:	1f 92       	push	r1
    3298:	cd b7       	in	r28, 0x3d	; 61
    329a:	de b7       	in	r29, 0x3e	; 62
    329c:	89 83       	std	Y+1, r24	; 0x01
			led_top_light(7-frame);
    329e:	89 81       	ldd	r24, Y+1	; 0x01
    32a0:	89 5f       	subi	r24, 0xF9	; 249
    32a2:	64 de       	rcall	.-824    	; 0x2f6c <led_top_light>
    32a4:	97 e0       	ldi	r25, 0x07	; 7
    32a6:	89 81       	ldd	r24, Y+1	; 0x01
    32a8:	29 2f       	mov	r18, r25
    32aa:	28 1b       	sub	r18, r24
			
				

			if(frame >= 8)
    32ac:	82 2f       	mov	r24, r18
    32ae:	5e de       	rcall	.-836    	; 0x2f6c <led_top_light>
    32b0:	89 81       	ldd	r24, Y+1	; 0x01
			{
				pre_defined_led_colors(PE_GREEN);
    32b2:	88 30       	cpi	r24, 0x08	; 8
    32b4:	10 f0       	brcs	.+4      	; 0x32ba <led_startup_animation+0x28>
    32b6:	82 e0       	ldi	r24, 0x02	; 2
			}
			
			if(frame >= 9)
    32b8:	bc dc       	rcall	.-1672   	; 0x2c32 <pre_defined_led_colors>
    32ba:	89 81       	ldd	r24, Y+1	; 0x01
    32bc:	89 30       	cpi	r24, 0x09	; 9
			{
				bms_error(1);
    32be:	10 f0       	brcs	.+4      	; 0x32c4 <led_startup_animation+0x32>
    32c0:	81 e0       	ldi	r24, 0x01	; 1
    32c2:	c0 df       	rcall	.-128    	; 0x3244 <bms_error>
			} 
			
			if(frame >= 14)
    32c4:	89 81       	ldd	r24, Y+1	; 0x01
    32c6:	8e 30       	cpi	r24, 0x0E	; 14
    32c8:	20 f0       	brcs	.+8      	; 0x32d2 <led_startup_animation+0x40>
			{
				pre_defined_led_colors(PE_OFF);
    32ca:	87 e0       	ldi	r24, 0x07	; 7
    32cc:	b2 dc       	rcall	.-1692   	; 0x2c32 <pre_defined_led_colors>
    32ce:	80 e0       	ldi	r24, 0x00	; 0
				bms_error(0);
    32d0:	b9 df       	rcall	.-142    	; 0x3244 <bms_error>
    32d2:	00 00       	nop
    32d4:	0f 90       	pop	r0
					led_top_clear(7 + (frame - 2));
					led_top_clear(7 - (frame + 2));
				}
				*/
		
    32d6:	df 91       	pop	r29
    32d8:	cf 91       	pop	r28
    32da:	08 95       	ret

000032dc <port_config>:
#include <avr/interrupt.h>
#include <stdio.h>
#include "port_definitions.h"


void port_config(){
    32dc:	cf 93       	push	r28
    32de:	df 93       	push	r29
    32e0:	cd b7       	in	r28, 0x3d	; 61
    32e2:	de b7       	in	r29, 0x3e	; 62
	//DDRB = 0 | (1<<PB6) | (1<<PB5)| (1<<PB4) | (1<<PB3);
	
	//PA2 --> IMD_LED
	//PA3 --> Chip_Select_RGB_Left
	//(PA4 - PA7) --> Top Bar
	DDRA |= (1<<PA2) | (1<<PA3) | (1<<PA4) | (1<<PA5) | (1<<PA6) | (1<<PA7);
    32e4:	81 e2       	ldi	r24, 0x21	; 33
    32e6:	90 e0       	ldi	r25, 0x00	; 0
    32e8:	21 e2       	ldi	r18, 0x21	; 33
    32ea:	30 e0       	ldi	r19, 0x00	; 0
    32ec:	f9 01       	movw	r30, r18
    32ee:	20 81       	ld	r18, Z
    32f0:	2c 6f       	ori	r18, 0xFC	; 252
    32f2:	fc 01       	movw	r30, r24
    32f4:	20 83       	st	Z, r18
	
	//Button Inputs
	DDRA &= ~(1<<PA0) & ~(1<<PA1);
    32f6:	81 e2       	ldi	r24, 0x21	; 33
    32f8:	90 e0       	ldi	r25, 0x00	; 0
    32fa:	21 e2       	ldi	r18, 0x21	; 33
    32fc:	30 e0       	ldi	r19, 0x00	; 0
    32fe:	f9 01       	movw	r30, r18
    3300:	20 81       	ld	r18, Z
    3302:	2c 7f       	andi	r18, 0xFC	; 252
    3304:	fc 01       	movw	r30, r24
    3306:	20 83       	st	Z, r18
	//PB2 --> MOSI
	//PB4 --> Display_Enable
	//PB5 --> Display_R/W
	//PB6 --> Display_RS
	//PB7 --> Chip_Select_RGB_Right
	DDRB |= (1<<PB1) | (1<<PB2) | (1<<PB4) | (1<<PB5) | (1<<PB6) | (1<<PB7);
    3308:	84 e2       	ldi	r24, 0x24	; 36
    330a:	90 e0       	ldi	r25, 0x00	; 0
    330c:	24 e2       	ldi	r18, 0x24	; 36
    330e:	30 e0       	ldi	r19, 0x00	; 0
    3310:	f9 01       	movw	r30, r18
    3312:	20 81       	ld	r18, Z
    3314:	26 6f       	ori	r18, 0xF6	; 246
    3316:	fc 01       	movw	r30, r24
    3318:	20 83       	st	Z, r18
	
	//PB3 --> MISO
	DDRB &= ~(1<<PB3);
    331a:	84 e2       	ldi	r24, 0x24	; 36
    331c:	90 e0       	ldi	r25, 0x00	; 0
    331e:	24 e2       	ldi	r18, 0x24	; 36
    3320:	30 e0       	ldi	r19, 0x00	; 0
    3322:	f9 01       	movw	r30, r18
    3324:	20 81       	ld	r18, Z
    3326:	27 7f       	andi	r18, 0xF7	; 247
    3328:	fc 01       	movw	r30, r24
    332a:	20 83       	st	Z, r18
	
	//Top Bar
	DDRC = 0xFF;
    332c:	87 e2       	ldi	r24, 0x27	; 39
    332e:	90 e0       	ldi	r25, 0x00	; 0
    3330:	2f ef       	ldi	r18, 0xFF	; 255
    3332:	fc 01       	movw	r30, r24
    3334:	20 83       	st	Z, r18
	
	//Bottom Bar
	DDRD |= (1<<PD0) | (1<<PD1) | (1<<PD2) | (1<<PD3) | (1<<PD4) | (1<<PD7);
    3336:	8a e2       	ldi	r24, 0x2A	; 42
    3338:	90 e0       	ldi	r25, 0x00	; 0
    333a:	2a e2       	ldi	r18, 0x2A	; 42
    333c:	30 e0       	ldi	r19, 0x00	; 0
    333e:	f9 01       	movw	r30, r18
    3340:	20 81       	ld	r18, Z
    3342:	2f 69       	ori	r18, 0x9F	; 159
    3344:	fc 01       	movw	r30, r24
    3346:	20 83       	st	Z, r18
	
	//Display-Bus Bar
	DDRE = 0xFF;
    3348:	8d e2       	ldi	r24, 0x2D	; 45
    334a:	90 e0       	ldi	r25, 0x00	; 0
    334c:	2f ef       	ldi	r18, 0xFF	; 255
    334e:	fc 01       	movw	r30, r24
    3350:	20 83       	st	Z, r18
	
	//SDCI Inputs:
	//PF1 --> SDB_DB
	//PF2 --> Inertia
	//PF3 --> BOTS
	DDRF &= ~(1<<PF1) & ~(1<<PF2) & ~(1<<PF3);
    3352:	80 e3       	ldi	r24, 0x30	; 48
    3354:	90 e0       	ldi	r25, 0x00	; 0
    3356:	20 e3       	ldi	r18, 0x30	; 48
    3358:	30 e0       	ldi	r19, 0x00	; 0
    335a:	f9 01       	movw	r30, r18
    335c:	20 81       	ld	r18, Z
    335e:	21 7f       	andi	r18, 0xF1	; 241
    3360:	fc 01       	movw	r30, r24
    3362:	20 83       	st	Z, r18
	
	//(PG0 - PG2) --> Top Bar
	//PG3 --> Heart
	//PG4 --> Fault
	DDRG |= (1<<PG0) | (1<<PG1) | (1<<PG2) | (1<<PG3) | (1<<PG4);
    3364:	83 e3       	ldi	r24, 0x33	; 51
    3366:	90 e0       	ldi	r25, 0x00	; 0
    3368:	23 e3       	ldi	r18, 0x33	; 51
    336a:	30 e0       	ldi	r19, 0x00	; 0
    336c:	f9 01       	movw	r30, r18
    336e:	20 81       	ld	r18, Z
    3370:	2f 61       	ori	r18, 0x1F	; 31
    3372:	fc 01       	movw	r30, r24
    3374:	20 83       	st	Z, r18
	
	//Resetting all PORTS
	PORTA = 0;
    3376:	82 e2       	ldi	r24, 0x22	; 34
    3378:	90 e0       	ldi	r25, 0x00	; 0
    337a:	fc 01       	movw	r30, r24
    337c:	10 82       	st	Z, r1
	//Resetting Display-Control-Ports
	PORTB = 0;
    337e:	85 e2       	ldi	r24, 0x25	; 37
    3380:	90 e0       	ldi	r25, 0x00	; 0
    3382:	fc 01       	movw	r30, r24
    3384:	10 82       	st	Z, r1
	PORTC = 0;
    3386:	88 e2       	ldi	r24, 0x28	; 40
    3388:	90 e0       	ldi	r25, 0x00	; 0
    338a:	fc 01       	movw	r30, r24
    338c:	10 82       	st	Z, r1
	PORTD = 0;
    338e:	8b e2       	ldi	r24, 0x2B	; 43
    3390:	90 e0       	ldi	r25, 0x00	; 0
    3392:	fc 01       	movw	r30, r24
    3394:	10 82       	st	Z, r1
	//Resetting Display-Bus Bar
	PORTE = 0;
    3396:	8e e2       	ldi	r24, 0x2E	; 46
    3398:	90 e0       	ldi	r25, 0x00	; 0
    339a:	fc 01       	movw	r30, r24
    339c:	10 82       	st	Z, r1
	PORTF = 0;
    339e:	81 e3       	ldi	r24, 0x31	; 49
    33a0:	90 e0       	ldi	r25, 0x00	; 0
    33a2:	fc 01       	movw	r30, r24
    33a4:	10 82       	st	Z, r1
	PORTG = 0;
    33a6:	84 e3       	ldi	r24, 0x34	; 52
    33a8:	90 e0       	ldi	r25, 0x00	; 0
    33aa:	fc 01       	movw	r30, r24
    33ac:	10 82       	st	Z, r1
	
	//Selecting Pull-Up Resistors for Button - Inputs
	PORTA |= (1<<PA0) | (1<<PA1);
    33ae:	82 e2       	ldi	r24, 0x22	; 34
    33b0:	90 e0       	ldi	r25, 0x00	; 0
    33b2:	22 e2       	ldi	r18, 0x22	; 34
    33b4:	30 e0       	ldi	r19, 0x00	; 0
    33b6:	f9 01       	movw	r30, r18
    33b8:	20 81       	ld	r18, Z
    33ba:	23 60       	ori	r18, 0x03	; 3
    33bc:	fc 01       	movw	r30, r24
    33be:	20 83       	st	Z, r18
    33c0:	00 00       	nop
    33c2:	df 91       	pop	r29
    33c4:	cf 91       	pop	r28
    33c6:	08 95       	ret

000033c8 <sys_timer_config>:
volatile unsigned long sys_time = 0;
volatile uint8_t draw_data = 0;


void sys_timer_config(void)
{
    33c8:	cf 93       	push	r28
    33ca:	df 93       	push	r29
    33cc:	cd b7       	in	r28, 0x3d	; 61
    33ce:	de b7       	in	r29, 0x3e	; 62

	//8 bit Timer 0 configuration
	//Mode --> CTC, Divider --> /64
	TCCR0A = 0 | (1<<WGM01) | (1<<CS01) | (1<<CS00);
    33d0:	84 e4       	ldi	r24, 0x44	; 68
    33d2:	90 e0       	ldi	r25, 0x00	; 0
    33d4:	2b e0       	ldi	r18, 0x0B	; 11
    33d6:	fc 01       	movw	r30, r24
    33d8:	20 83       	st	Z, r18
	//compare interrupt enable
	TIMSK0 = 0 | (1<<OCIE0A);
    33da:	8e e6       	ldi	r24, 0x6E	; 110
    33dc:	90 e0       	ldi	r25, 0x00	; 0
    33de:	22 e0       	ldi	r18, 0x02	; 2
    33e0:	fc 01       	movw	r30, r24
    33e2:	20 83       	st	Z, r18
	//compare value for 1ms;
	OCR0A = 250;
    33e4:	87 e4       	ldi	r24, 0x47	; 71
    33e6:	90 e0       	ldi	r25, 0x00	; 0
    33e8:	2a ef       	ldi	r18, 0xFA	; 250
    33ea:	fc 01       	movw	r30, r24
    33ec:	20 83       	st	Z, r18
}
    33ee:	00 00       	nop
    33f0:	df 91       	pop	r29
    33f2:	cf 91       	pop	r28
    33f4:	08 95       	ret

000033f6 <__vector_16>:

/*	Interrupt Service Routines	*/
ISR(TIMER0_COMP_vect)
{
    33f6:	1f 92       	push	r1
    33f8:	0f 92       	push	r0
    33fa:	00 90 5f 00 	lds	r0, 0x005F	; 0x80005f <__TEXT_REGION_LENGTH__+0x7e005f>
    33fe:	0f 92       	push	r0
    3400:	11 24       	eor	r1, r1
    3402:	8f 93       	push	r24
    3404:	9f 93       	push	r25
    3406:	af 93       	push	r26
    3408:	bf 93       	push	r27
    340a:	cf 93       	push	r28
    340c:	df 93       	push	r29
    340e:	cd b7       	in	r28, 0x3d	; 61
    3410:	de b7       	in	r29, 0x3e	; 62
	sys_time++;
    3412:	80 91 9d 02 	lds	r24, 0x029D	; 0x80029d <sys_time>
    3416:	90 91 9e 02 	lds	r25, 0x029E	; 0x80029e <sys_time+0x1>
    341a:	a0 91 9f 02 	lds	r26, 0x029F	; 0x80029f <sys_time+0x2>
    341e:	b0 91 a0 02 	lds	r27, 0x02A0	; 0x8002a0 <sys_time+0x3>
    3422:	01 96       	adiw	r24, 0x01	; 1
    3424:	a1 1d       	adc	r26, r1
    3426:	b1 1d       	adc	r27, r1
    3428:	80 93 9d 02 	sts	0x029D, r24	; 0x80029d <sys_time>
    342c:	90 93 9e 02 	sts	0x029E, r25	; 0x80029e <sys_time+0x1>
    3430:	a0 93 9f 02 	sts	0x029F, r26	; 0x80029f <sys_time+0x2>
    3434:	b0 93 a0 02 	sts	0x02A0, r27	; 0x8002a0 <sys_time+0x3>
	draw_data++;
    3438:	80 91 a1 02 	lds	r24, 0x02A1	; 0x8002a1 <draw_data>
    343c:	8f 5f       	subi	r24, 0xFF	; 255
    343e:	80 93 a1 02 	sts	0x02A1, r24	; 0x8002a1 <draw_data>
    3442:	00 00       	nop
    3444:	df 91       	pop	r29
    3446:	cf 91       	pop	r28
    3448:	bf 91       	pop	r27
    344a:	af 91       	pop	r26
    344c:	9f 91       	pop	r25
    344e:	8f 91       	pop	r24
    3450:	0f 90       	pop	r0
    3452:	00 92 5f 00 	sts	0x005F, r0	; 0x80005f <__TEXT_REGION_LENGTH__+0x7e005f>
    3456:	0f 90       	pop	r0
    3458:	1f 90       	pop	r1
    345a:	18 95       	reti

0000345c <__udivmodhi4>:
    345c:	aa 1b       	sub	r26, r26
    345e:	bb 1b       	sub	r27, r27
    3460:	51 e1       	ldi	r21, 0x11	; 17
    3462:	07 c0       	rjmp	.+14     	; 0x3472 <__udivmodhi4_ep>

00003464 <__udivmodhi4_loop>:
    3464:	aa 1f       	adc	r26, r26
    3466:	bb 1f       	adc	r27, r27
    3468:	a6 17       	cp	r26, r22
    346a:	b7 07       	cpc	r27, r23
    346c:	10 f0       	brcs	.+4      	; 0x3472 <__udivmodhi4_ep>
    346e:	a6 1b       	sub	r26, r22
    3470:	b7 0b       	sbc	r27, r23

00003472 <__udivmodhi4_ep>:
    3472:	88 1f       	adc	r24, r24
    3474:	99 1f       	adc	r25, r25
    3476:	5a 95       	dec	r21
    3478:	a9 f7       	brne	.-22     	; 0x3464 <__udivmodhi4_loop>
    347a:	80 95       	com	r24
    347c:	90 95       	com	r25
    347e:	bc 01       	movw	r22, r24
    3480:	cd 01       	movw	r24, r26
    3482:	08 95       	ret

00003484 <__tablejump2__>:
    3484:	ee 0f       	add	r30, r30
    3486:	ff 1f       	adc	r31, r31
    3488:	00 24       	eor	r0, r0
    348a:	00 1c       	adc	r0, r0
    348c:	0b be       	out	0x3b, r0	; 59
    348e:	07 90       	elpm	r0, Z+
    3490:	f6 91       	elpm	r31, Z
    3492:	e0 2d       	mov	r30, r0
    3494:	09 94       	ijmp

00003496 <__umulhisi3>:
    3496:	a2 9f       	mul	r26, r18
    3498:	b0 01       	movw	r22, r0
    349a:	b3 9f       	mul	r27, r19
    349c:	c0 01       	movw	r24, r0
    349e:	a3 9f       	mul	r26, r19
    34a0:	70 0d       	add	r23, r0
    34a2:	81 1d       	adc	r24, r1
    34a4:	11 24       	eor	r1, r1
    34a6:	91 1d       	adc	r25, r1
    34a8:	b2 9f       	mul	r27, r18
    34aa:	70 0d       	add	r23, r0
    34ac:	81 1d       	adc	r24, r1
    34ae:	11 24       	eor	r1, r1
    34b0:	91 1d       	adc	r25, r1
    34b2:	08 95       	ret

000034b4 <_exit>:
    34b4:	f8 94       	cli

000034b6 <__stop_program>:
    34b6:	ff cf       	rjmp	.-2      	; 0x34b6 <__stop_program>
